Ec:_glClearStencil
See:_Array_InternalArray__ICollection_Add_TisMark_t2724874473_m1613484179_gshared
Oog:__ZL80Graphic_t2426225576_CustomAttributesCacheGenerator_Graphic_OnFillVBO_m1723985607P21CustomAttributesCache
$Ag:_RuntimeTypeHandle_GetObjectData_m3567098501
aDj:__ZN6il2cpp2vm5Array13GetByteLengthEP11Il2CppArray
Xuh:_Raycast3DCallback_BeginInvoke_m3028685017
EF:__Z102Register_UnityEngine_Experimental_Director_AnimatorControllerPlayable_INTERNAL_CALL_ResetTriggerStringv
XUe:_Comparison_1_Invoke_m353639462_gshared
HNg:_UInt64_System_IConvertible_ToDecimal_m4205696037
w0d:_GraphicRegistry_RegisterGraphicForCanvas_m2284226562
YBa:__Z21SourceMipLevelForBlitiiii
Blb:__ZN31CanvasBatchIntermediateRenderer15AddAsRenderNodeER15RenderNodeQueueRK20DeprecatedSourceData
aBd:_Enumerator_get_Key_m2908810861
AD:__ZN23AnimationOffsetPlayable11SetRotationE11Quaternionf
zB:__ZN11UnityEngine9Animation28GenericAnimationBindingCacheD2Ev
Aqh:_EqualityComparer_1__cctor_m968537130_gshared
lre:_List_1_System_Collections_IList_IndexOf_m39706221_gshared
FDd:_Decimal_op_Implicit_m2971610317
gOi:_TextGenerator_get_lineCount_m4287181941
g1d:_Graphic_UnregisterDirtyVerticesCallback_m1526739224
d4a:__Z18RestoreRenderStateR20CameraRenderOldStateR17ShaderPassContext
Hwd:_SynchronizedArrayListWrapper_get_Item_m3309425850
ENb:__Z18Transfer_BlittableI18StreamedBinaryReadILb1EELb1E5RectTIfEEvRK29SerializationCommandArgumentsR31RuntimeSerializationCommandInfo
oKb:__Z18Transfer_BlittableI24GenerateTypeTreeTransferLb0E11ColorRGBA32EvRK29SerializationCommandArgumentsR31RuntimeSerializationCommandInfo
E3:__Z25scripting_class_from_name17ScriptingImagePtrPKcS1_
lpj:__ZN14dense_hash_mapI10KeyWrapperINSt3__24pairIPK12PropertyInfoP11Il2CppClassEEEj17ReflectionMapHashIS8_ENS9_14EqualsComparerINS1_8equal_toIS8_EEEENS1_9allocatorINS2_IKS9_jEEEEE15set_deleted_keyERSH_
dEb:__Z29scripting_class_enum_basetype17ScriptingClassPtr
VZj:_emscripten_glDeleteBuffers__wrapper
yGj:__ZN6il2cpp8metadata26Il2CppTypeEqualityComparer8AreEqualEPK10Il2CppTypeS4_
dWg:_GenericTypeParameterBuilder_GetHashCode_m867619899
MJg:_TimeSpan_ToString_m2947282901
Tph:_EqualityComparer_1__cctor_m3397254040_gshared
WW:__ZNK20LocalFileSystemPosix6ParentERK13FileEntryDataRN4core12basic_stringIcNS3_20StringStorageDefaultIcEEEE
aOi:_TextGenerator_get_verts_m3124035267
qQi:_Vector2_get_one_m3174311904
$je:_Array_Sort_TisVector2_t2243707579_m1307634946_gshared
zra:__ZN17PersistentManager22CheckInstanceIDsLoadedEPii
Qza:__ZN7ApiGLES17CopyBufferSubDataEjjlll
Wti:_AnimatorControllerPlayable_IsInTransition_m4064534331
A6i:__ZN15dense_hashtableINSt3__24pairIK10KeyWrapperIPKcEP11Il2CppClassEES5_N6il2cpp5utils11StringUtils12StringHasherIS4_EEN14dense_hash_mapIS5_S8_SE_NS5_14EqualsComparerINSC_21CaseSensitiveComparerEEENS0_9allocatorIS9_EEE9SelectKeyESI_SK_E13set_empty_keyERKS9_
TSi:_U3CCreateWhereIteratorU3Ec__Iterator1D_1_Reset_m1773515612_gshared
FXa:__ZN25CameraStackRenderingState20GetOrCreateBuiltinRTE24BuiltinRenderTextureTypeii17DepthBufferFormat19RenderTextureFormatj22RenderTextureReadWrite14VRTextureUsagei
ySi:_AesManaged_CreateEncryptor_m1729287824
g0a:__ZN17PrePassRenderLoop14RenderBasePassEP13RenderTextureRK14LightingLayersR13dynamic_arrayI16RenderObjectDataLj4EERbR10MinMaxAABB
Ltd:_Char_System_IConvertible_ToInt16_m2741348777_AdjustorThunk
Vlc:__ZN5IMGUI18RepaintModalWindowER8GUIState
Tgb:__ZN21ArchiveStorageCreator10InitializeERKN4core12basic_stringIcNS0_20StringStorageDefaultIcEEEEb
LNe:_ReadOnlyCollection_1_System_Collections_Generic_IListU3CTU3E_set_Item_m1547026160_gshared
FPf:__ZL61MarshalAsAttribute_t2900773360_CustomAttributesCacheGeneratorP21CustomAttributesCache
gsb:__Z23SetSpriteMeshIndexCountP14SharedMeshDataj
pca:__ZN7Texture13SetFilterModeEi
ucc:__Z46Register_UnityEngine_Application_get_isPlayingv
OEj:__ZN6il2cpp8metadata13GenericMethod9GetMethodEPK19Il2CppGenericMethod
Cq:__ZNSt3__26vectorIN4core12basic_stringIcNS1_20StringStorageDefaultIcEEEENS_9allocatorIS5_EEE7reserveEj
_Fd:_Convert_ToUInt16_m2130758075
tlj:__ZN15dense_hashtableINSt3__24pairIK10KeyWrapperINS1_IPK11Il2CppImageP11Il2CppClassEEEjEES9_17ReflectionMapHashIS8_EN14dense_hash_mapIS9_jSD_NS9_14EqualsComparerINS0_8equal_toIS8_EEEENS0_9allocatorISB_EEE9SelectKeyESI_SK_E3endEv
ZFf:_X509BasicConstraintsExtension_Encode_m3505127076
Aua:__ZN13GfxDeviceGLES11SetViewportERK5RectTIiE
V2d:_Image_get_pixelsPerUnit_m4104195799
sBh:_Toggle_InternalToggle_m2323729210
RJd:_Decimal_System_IConvertible_ToInt64_m2504363272
Tod:_Array_GetValue_m3182152438
Wd:_emscripten_glDepthRange
$Cg:_DESTransform_CipherFunct_m3559419566
uOg:_UIntPtr_get_Size_m537421489
Bbd:_Rijndael_Create_m113171669
m3g:_GUILayoutGroup_CalcWidth_m4107152934
OSb:__Z14resize_trimmedINSt3__26vectorIN9ShaderLab20SerializedSubProgram12UAVParameterENS0_9allocatorIS4_EEEEEvRT_j
bwg:_SerializationInfo_AddValue_m1781549036
Ntf:_TlsServerKeyExchange_verifySignature_m3641534563
t9b:__ZN13BuildSettings34ConvertScenePathToDisplayScenePathERKN4core12basic_stringIcNS0_20StringStorageDefaultIcEEEE
Gzh:_Slider_FindSelectableOnLeft_m3136767885
wBa:__ZN4crndL20crnd_default_reallocEPvjPjbS0_
Qbe:_Array_BinarySearch_TisInt32_t2071877448_m51233948_gshared
C8b:__ZN7Texture11SetWrapModeEi
MRj:__ZNSt3__212basic_stringIcNS_11char_traitsIcEENS_9allocatorIcEEEC2ERKS5_
xwg:_ProviderData_CopyFrom_m431414335
yFg:_UTF32Encoding_GetPreamble_m767706727
djc:__Z33Texture_CUSTOM_Internal_GetHeightP12Il2CppObject
j7d:_LayoutGroup_get_preferredHeight_m3901163825
eWa:__ZN23ScriptableRenderContextC2Ev
pDd:_DateTime_AbsoluteDays_m3061694073
yri:_AnimationClipPlayable_set_speed_m3332297554
NYc:_UNITY_FT_Stream_GetChar
_Nb:__Z18Transfer_BlittableI18StreamedBinaryReadILb1EELb1EdEvRK29SerializationCommandArgumentsR31RuntimeSerializationCommandInfo
jgh:_Enumerator_System_Collections_IEnumerator_get_Current_m229223308_gshared
pEb:__Z26BuildSerializationCacheFor17ScriptingClassPtrRb
lui:_AnimatorControllerPlayable_CrossFadeInFixedTimeInternal_m3729673154
Rpi:_Event_Init_m3901382626
Gfb:__ZN10FileSystem12MountHandlerEP17FileSystemHandler
qwd:_FixedSizeArrayListWrapper_AddRange_m2071800418
RB:__ZN13ProduceHelperI8AnimatorLb0EE7ProduceE18MemLabelIdentifier18ObjectCreationMode
raa:__Z9InitInputv
_pe:_Enumerator_VerifyState_m2358705882_AdjustorThunk
gLb:__Z29Transfer_Blittable_ArrayFieldI24GenerateTypeTreeTransfer11ColorRGBA32EvRT_R9ArrayInfoRK23StaticTransferFieldInfo
Wvh:_Selectable_Navigate_m915280351
Gab:__ZN16MemoryFileSystem6DeleteER13FileEntryDatab
IQi:_Vector3_get_normalized_m936072361
opa:__ZL21BlitScaleStbImageImplRK14ImageReferenceRS_NS_10ColorSpaceE
sAf:_TlsStream_set_Position_m378064217
WFc:__ZNSt3__26__sortIR31RayHitsByInverseDepthComparitorP12RaycastHit2DEEvT0_S5_T_
XGb:__Z29Transfer_Blittable_ArrayFieldI14SafeBinaryReadyEvRT_R9ArrayInfoRK23StaticTransferFieldInfo
pM:__ZN20SoundChannelInstance15setChannelGroupEPN4FMOD12ChannelGroupE
Pgd:_Evidence_Equals_m2325859915
nRg:_Default__ctor_m172834064
sc:invoke_vifffii
pBb:__ZN20ArchiveStorageReader17MakeStorageUnusedEv
ZEi:_Regex_IsMatch_m2159202025
LKa:__ZNK25MultiBlocksMemoryFileData5CloneEv
zJj:_GC_add_ext_descriptor
rxg:_RemotingServices_GetMethodBaseFromName_m3271095947
m0h:__Z71RuntimeInvoker_TimeSpan_t3430258949_Double_t4078015681_Int64_t909078037PK10MethodInfoPvPS2_
QTj:dynCall_iiiiiiiiiiii
kmd:_ASCIIEncoding_GetBytes_m3617160053
Rsf:_CipherSuiteCollection_System_Collections_IList_RemoveAt_m143866082
QC:__ZN26AnimatorControllerPlayable26ParameterControlledByCurveEi
_Wb:__ZL26KeywordSetToStringDontSortRKNSt3__26vectorIN4core12basic_stringIcNS1_20StringStorageDefaultIcEEEENS_9allocatorIS5_EEEERS5_
L4c:__Z54Register_UnityEngine_Analytics_CustomEventData_AddCharv
zka:__ZN6prcoreL17RemapGenericFloatI16TexFormatRGFloat17TexFormatRGBAHalfEEvPKNS_9InnerInfoE
SG:__ZN12AudioManager22CreateFMODSoundFromWWWEP10IWWWStream15FMOD_SOUND_TYPE17FMOD_SOUND_FORMATjjbbP10SampleClip
H2b:__ZNK32RendererMaterialAnimationBinding15GenerateBindingERKN4core12basic_stringIcNS0_20StringStorageDefaultIcEEEEbRN11UnityEngine9Animation14GenericBindingE
U2:__ZN8Remapper23GetOrGenerateInstanceIDERK26SerializedObjectIdentifier
a7e:_StreamWriter_Flush_m3426120024
Ya:invoke_iiiiiifffiiifii
G4e:_MemoryStream__ctor_m1489366847
ihd:_SecurityElement_IsValidTag_m64902195
mgh:_Enumerator_System_Collections_IEnumerator_get_Current_m229223308_AdjustorThunk
d0g:_PropertyInfo_SetValue_m2961483868
B2g:_GUILayoutEntry_set_style_m70917293
Swe:_List_1_System_Collections_IList_Contains_m4193366963_gshared
_Wi:_UnityEvent_3_FindMethod_Impl_m1889846153_gshared
LRg:_ConstructorInfo_Invoke_m2144827141
tsb:__ZN6Sprite8TransferI24GenerateTypeTreeTransferEEvRT_
hkc:__Z48Register_UnityEngine_Transform_SetAsFirstSiblingv
N0g:_Font_get_fontSize_m1732593415
vsb:__ZN7SubMesh8TransferI24GenerateTypeTreeTransferEEvRT_
Knj:__ZN14dense_hash_mapI10KeyWrapperIPK14Il2CppAssemblyEPK16MonoAssemblyNameN6il2cpp5utils11PointerHashIS2_EENS4_14EqualsComparerINSt3__28equal_toIS3_EEEENSD_9allocatorINSD_4pairIKS4_S7_EEEEE13set_empty_keyERSJ_
h$g:_MonoProperty_get_CanWrite_m2124922514
Fbi:__Z112RuntimeInvoker_Int32_t2071877448_Il2CppObject_Int32_t2071877448_Int32_t2071877448_Int32_t2071877448_Il2CppObjectPK10MethodInfoPvPS2_
OQj:_poll
s4e:_Stream_BeginRead_m1985960185
o5g:_GUIStyle_GetFontInternalDuringLoadingThread_m229734483
u0b:__ZN13ProduceHelperI14Texture2DArrayLb0EE7ProduceE18MemLabelIdentifier18ObjectCreationMode
fqf:_MD4Managed_GG_m1462438360
Dgc:__Z46Mesh_CUSTOM_PrintErrorCantAccessMeshForIndicesP12Il2CppObject
Wbc:__ZN9Transform23SetSiblingIndexInternalEib
g2e:_BinaryReader_CheckBuffer_m1059275266
Nua:__ZN13GfxDeviceGLES17DestroySubProgramEPN9ShaderLab10SubProgramE
Dx:__ZN7mecanim5human12HumanPoseSubERNS0_9HumanPoseERKS1_S4_
Tpf:_MD4_Create_m2582504069
Zwj:__ZN6il2cpp8metadata15GenericMetadata15GetGenericClassEiPK17Il2CppGenericInst
wrd:_Boolean_System_IConvertible_ToInt16_m977801621
QFb:__Z18Transfer_BlittableI14SafeBinaryReadLb0E10Matrix4x4fEvRK29SerializationCommandArgumentsR31RuntimeSerializationCommandInfo
uOa:__Z24GetFixedBehaviourManagerv
DUa:__ZN12FlareManager9UpdateJobEP25FlareManagerUpdateJobData
hcj:__ZN6il2cpp2vm10ThreadPool4WaitEP17Il2CppAsyncResultPPv
ZOj:_vfprintf
Qii:_Debug_get_logger_m4173808038
qVa:__ZN20DynamicPropertySheetD0Ev
u8a:__ZN14SafeBinaryRead17RegisterConverterEPKcS1_PFbPvRS_E
qZ:__ZN35RegisterRuntimeInitializeAndCleanup8RegisterEPFvPvES2_iS0_
Rqj:__ZNSt3__26vectorIN6il2cpp8metadata18GenericArrayMethodENS_9allocatorIS3_EEE7reserveEj
sTe:_ReadOnlyCollection_1_System_Collections_IList_Clear_m2600246370_gshared
l4h:__Z135RuntimeInvoker_RaycastHit2D_t4063908774_Vector2_t2243707579_Vector2_t2243707579_Single_t2076509932_Int32_t2071877448_Single_t2076509932PK10MethodInfoPvPS2_
ohf:_DSAManaged_NormalizeArray_m2287089393
cMh:_InternalEnumerator_1_System_Collections_IEnumerator_get_Current_m2389982234_AdjustorThunk
yOa:__ZN8Material26ResetAllCachedMaterialDataEP6Shader
YYc:_UNITY_TT_Get_MM_Var
vXi:__ZN6il2cpp6icalls8mscorlib6System7Decimal13decimal2Int64EP19il2cpp_decimal_reprPx
ba:invoke_diddi
bTd:_ExecuteEvents__cctor_m288775360
o_c:__ZNK2UI6Canvas13GetRenderModeEv
uEd:_Double_TryParseStringConstant_m2585405703
oFb:__Z18Transfer_BlittableI14SafeBinaryReadLb0EiEvRK29SerializationCommandArgumentsR31RuntimeSerializationCommandInfo
Xaj:__ZN6il2cpp2vm13MetadataCache30GetPropertyDefinitionFromIndexEi
xvi:_ResourceEnumerator__ctor_m1679839941
Mbd:_RijndaelTransform_Clear_m1652144089
mle:_BaseInvokableCall_ThrowOnInvalidArg_TisIl2CppObject_m1349548392_gshared
J7c:__ZN22BaseUnityConnectClient17InitializeSessionERKN4core12basic_stringIcNS0_20StringStorageDefaultIcEEEES6_N19CloudServiceHandler13InitModeFlagsE
Kbf:_NumberFormatter_get_IsZero_m1325357749
FNd:_Enum_ToObject_m322320225
phc:__ZN13MonoBehaviour34StopCoroutineFromEnumeratorManagedE18ScriptingObjectPtr
vfd:_X509Certificate__ctor_m3860837120
CF:__Z100Register_UnityEngine_Experimental_Director_AnimatorControllerPlayable_INTERNAL_CALL_SetTriggerStringv
T0g:_GameObject_Internal_CreateGameObject_m3428198595
Qli:_Camera_RaycastTry2D_m755036866
nTe:_ReadOnlyCollection_1_System_Collections_Generic_IListU3CTU3E_set_Item_m3663361643_gshared
dC:__ZN7mecanim9animation14AvatarConstant15InitializeClassEv
$wc:__ZN11UnityEngine9Analytics18SceneLoadTimeEvent12SetSceneLoadERKN4core12basic_stringIcNS2_20StringStorageDefaultIcEEEEiyyyy
wti:_AnimatorControllerPlayable_GetCurrentAnimatorStateInfo_m689786022
TAb:__ZN30RuntimeInitializeOnLoadManager8TransferI18StreamedBinaryReadILb0EEEEvRT_
nUg:_TypeBuilder_not_supported_m3178173643
bRc:_UNITY_tt_face_load_pclt
SBb:__ZN21ArchiveStorageCreator14StoreDirectoryEv
Nac:__ZL34GetComponentsImplementationRecurseILb1ELi0ELi2EEbR10GameObjectbRK17CompareParametersRK39GetComponentsImplementation_ReturnValue
tDc:__ZN10ClipperLib7Clipper24InsertLocalMinimaIntoAELEx
jMj:__ZN6il2cpp6icalls8mscorlib6System9Threading5Mutex20CreateMutex_internalEbP12Il2CppStringPb
Pwc:__ZNK27PerformanceReportingManager26GetTypeInfoVirtualInternalEv
Zvd:_ArrayListWrapper_Remove_m1105489978
EUa:__ZNK6Camera18WorldToScreenPointERK8Vector3fPb
s3c:__ZN14UnityAnalyticsD0Ev
Vrd:_Boolean_CompareTo_m3691698947_AdjustorThunk
Rzd:_HashKeys_CopyTo_m3566668422
Ttd:_Convert_ToSByte_m2665932200
h2:__ZNSt3__227__insertion_sort_incompleteIRPFbRKN18AwakeFromLoadQueue4ItemES4_EPS2_EEbT0_S9_T_
PJi:_PKCS12_Encrypt_m2154408631
iTg:_ILGenerator_label_fixup_m1325994348
pCg:_Base64Constants__cctor_m1807522504
$th:_Navigation_Equals_m4214630671_AdjustorThunk
zQe:_ReadOnlyCollection_1_System_Collections_Generic_IListU3CTU3E_set_Item_m257196015_gshared
vYg:_FieldInfo_GetPseudoCustomAttributes_m2500972355
Dpb:__ZN26EnlightenSystemInformation8TransferI14SafeBinaryReadEEvRT_
_le:_Array_InternalArray__get_Item_TisLink_t2723257478_m2281261655_gshared
Avb:__ZN12MeshRendererD0Ev
Syd:_Hashtable__ctor_m2702360557
Fh:_utime
Fof:_PrimalityTest_Invoke_m4058801829
fxg:_RemotingConfiguration_SetCustomErrorsMode_m1844153208
yn:FUNCTION_TABLE_viiiiii
Rbi:__Z84RuntimeInvoker_Int32_t2071877448_Il2CppObject_CustomAttributeNamedArgument_t94157543PK10MethodInfoPvPS2_
aQd:_CultureInfo_GetFormat_m3560116485
QA:__ZN7mecanim9animation22DestroyAvatarWorkspaceEPNS0_15AvatarWorkspaceERNS_6memory9AllocatorE
VLi:_ScriptableObject_CreateInstance_m3271154163
vJf:_FactoryCache__ctor_m254400436
zFi:_AnchorInfo_get_IsPosition_m3791659233
zde:_Array_InternalArray__IndexOf_TisResourceCacheItem_t333236149_m761772858_gshared
Qlc:__ZNSt3__210__list_impIN10GUIManager12SortedScriptE11memory_poolIS2_EE5clearEv
Wmb:__ZN14PlayableOutput17SetSourcePlayableEP8Playable
Bxg:_TrackingServices__cctor_m3639412334
woc:__Z32GUIStyle_Set_Custom_PropRichTextP12Il2CppObjecth
Fu:__ZN7mecanim9animation29MotionOutputGetDeltaTransformEPKNS0_12MotionOutputE
q_b:__Z13RegisterClassI16GraphicsSettingsEvv
_wc:__ZN27PerformanceReportingManager21OnSceneTimingCallbackERK15SceneLoadTimingRKN4core12basic_stringIcNS3_20StringStorageDefaultIcEEEE
AC:__ZN8Animator14OnAddComponentEPN5Unity9ComponentE
XCe:_List_1_CheckMatch_m1184924052_gshared
Fjc:__Z43Transform_CUSTOM_INTERNAL_get_localRotationP12Il2CppObjectP11Quaternionf
$Xj:_glGetShaderInfoLog__wrapper
gi:_emscripten_glGetTexParameteriv
arf:_RSAManaged_ImportParameters_m3060955884
Vxi:_ChannelData_CopyFrom_m4049054607
w_b:__Z13RegisterClassI4MeshEvv
Fce:_Array_FindLastIndex_TisIl2CppObject_m869210470_gshared
Amb:__ZN8PlayableD0Ev
hI:__ZN12AudioManager8TransferI19StreamedBinaryWriteILb0EEEEvRT_
Z4e:_WriteDelegate_Invoke_m2103848735
POb:__ZN18StreamedBinaryReadILb1EE21TransferSTLStyleArrayI13dynamic_arrayI11ColorRGBA32Lj4EEEEvRT_17TransferMetaFlags
eBa:__ZN18AsyncUploadManager19AsyncResourceUploadER9GfxDeviceii9TextureID
SRi:_Locale_GetText_m512920887
CPb:__Z18Transfer_BlittableI18StreamedBinaryReadILb0EELb0E8Vector2fEvRK29SerializationCommandArgumentsR31RuntimeSerializationCommandInfo
Pwg:_RemotingConfiguration_get_ProcessId_m3870172209
Ffh:_SceneManager_LoadScene_m1386820036
$Ye:_SortKey_ToString_m2406913228
mX:__ZN22LocalFileSystemHandler9MakeLocalER13FileEntryDatab
TFj:__ZN6il2cpp2vm8Profiler10AllocationEP12Il2CppObjectP11Il2CppClass
ADd:_Convert_ToDateTime_m1020507389
VNc:__ZNSt3__23mapIN20TextRenderingPrivate7FontRefENS1_6OSFontENS_4lessIS2_EENS_9allocatorINS_4pairIKS2_S3_EEEEEixERS8_
U2e:_Path_IsPathRooted_m1347207448
Nyg:_ObjectManager_RegisterObjectInternal_m879109503
g8d:_Array_get_swapper_TisVector4_t2243707581_m97441823_gshared
Bra:__ZNSt3__26__sortIRNS_4lessIiEEPiEEvT0_S5_T_
cLc:__ZN14SafeBinaryRead21TransferSTLStyleArrayI10vector_mapINSt3__24pairIttEEfN20TextRenderingPrivate8FontImpl14KerningCompareENS2_9allocatorINS3_IS4_fEEEEEEEvRT_17TransferMetaFlags
T_b:__Z13RegisterClassI15QualitySettingsEvv
dFj:__ZN6il2cpp2vm6String21InitializeEmptyStringEP11Il2CppClass
X$a:__ZN25DeferredRenderLoopScratchD0Ev
Jy:__ZN27AnimationLayerMixerPlayable14SetInputWeightEif
zx:__ZN7mecanim9animation17EvaluateHumanPoseERKNS0_18ClipMuscleConstantERKNS0_15ClipMuscleInputEPKfRKNS0_12MotionOutputERNS_5human9HumanPoseE
gJc:__ZN14dense_hash_mapINSt3__24pairIPK10Collider2DS4_EE11Collision2DNS2_23ColliderPairHashFunctorENS0_8equal_toIS5_EE13stl_allocatorINS1_IKS5_S6_EEL18MemLabelIdentifier65ELi16EEE15set_deleted_keyERSB_
BSb:__ZN15dense_hashtableINSt3__24pairIKiN4core17string_with_labelILi1EEEEEi18SInt32HashFunctionN14dense_hash_mapIiS5_S7_NS0_8equal_toIiEE13stl_allocatorIS6_L18MemLabelIdentifier1ELi16EEE9SelectKeyESA_SD_E9copy_fromERKSG_j
Dea:__ZN6Camera11ResetAspectEv
$Ff:_X509BasicConstraintsExtension_get_HasPathLengthConstraint_m3788532759
ylb:__ZNK17InstancedPropInfo22FillInstancePropertiesER19ShaderPropertySheetjPK17BatchInstanceDatajRK15RenderNodeQueue
aga:__ZN22CreateGpuProgramOutputD2Ev
avj:__ZN6il2cpp6icalls8mscorlib6System2IO6MonoIO9SetLengthE12Il2CppIntPtrxPi
bNj:__ZN6il2cpp8metadata22Il2CppSignatureCompare6EqualsERK13dynamic_arrayIPK10Il2CppTypeLj4EES8_
xO:__ZN13ProduceHelperI13AudioListenerLb0EE7ProduceE18MemLabelIdentifier18ObjectCreationMode
KVe:_DateTimeFormatInfo_GetInstance_m3133223810
Znf:_ModulusRing_BarrettReduction_m2802101099
mLa:__ZN12HandlerChain4OpenER13FileEntryData14FilePermission16FileAutoBehavior
hxc:__ZN27PerformanceReportingManager29OnSceneLoadedAfterAwakeStaticEPS_iR18AwakeFromLoadQueueN19RuntimeSceneManager11LoadingModeE
V4:__ZN14FileCacherReadD2Ev
Fqa:__ZN13RendererScene23UpdatePreviousFrameDataEii
pdd:_RSAPKCS1SignatureDeformatter_VerifySignature_m1825067195
n3i:__ZL25UnresolvedVirtualCall_123P12Il2CppObjectffPK10MethodInfo
jec:__Z50Register_UnityEngine_CullingGroup_FinalizerFailurev
roe:_KeyValuePair_2_ToString_m2613351884_gshared
Hjb:__ZN6Camera15ThreadedCleanupEv
Ung:__ZL69ColorBlock_t2652774230_CustomAttributesCacheGenerator_m_DisabledColorP21CustomAttributesCache
bvh:_Scrollbar__ctor_m2244981801
Yuj:__ZN6il2cpp6icalls8mscorlib6System2IO6MonoIO9GetLengthE12Il2CppIntPtrPi
Udd:_SHA256Managed_HashCore_m4111458495
SPd:_CultureInfo_get_CompareInfo_m3085280862
pQf:__ZL55Dictionary_2_t2276497324_CustomAttributesCacheGeneratorP21CustomAttributesCache
Ozg:_ObjectManager_RecordDelayedFixup_m1895730844
rpd:_ArrayTypeMismatchException__ctor_m1898555879
hG:__ZN9AudioClip23VirtualRedirectTransferER18StreamedBinaryReadILb0EE
ruf:_ClientSessionInfo_CheckDisposed_m1394638186
QBg:_SByte_Parse_m2544167007
$id:_Single_CompareTo_m2081476257
V6h:__Z61RuntimeInvoker_Boolean_t3825574718_Int32_t2071877448_IntPtr_tPK10MethodInfoPvPS2_
Zdb:__ZN24GenerateTypeTreeTransfer8TransferIN11AssetBundle9AssetInfoEEEvRT_PKc17TransferMetaFlags
Def:_BigInteger__ctor_m2945783161
bwf:_TlsClientHello_Update_m1723542631
e_e:_IndexOutOfRangeException__ctor_m3497760912
Fj:_glCopyTexSubImage2D
lQa:_UNITY_png_write_zTXt
eW:__ZN18ScreenManagerWebGL13SetShowCursorEb
QFj:__ZN6il2cpp6icalls8mscorlib6System7Convert24InternalFromBase64StringEP12Il2CppStringb
INa:__ZZ23InitPlayerLoopCallbacksvEN37EarlyUpdateProcessMouseInWindowstruct7ForwardEv
QAh:_Text_get_preferredWidth_m3352156860
Y0c:__ZN2UI13CanvasManager14GetRenderOrderEPKNS_6CanvasE
OFb:__Z18Transfer_BlittableI14SafeBinaryReadLb0E5RectTIfEEvRK29SerializationCommandArgumentsR31RuntimeSerializationCommandInfo
DRe:_ReadOnlyCollection_1_System_Collections_Generic_IListU3CTU3E_RemoveAt_m878653284_gshared
QVe:_DateTimeFormatInfo_GetFormat_m3676195179
nAa:__ZN14GfxContextGLES14GetFramebufferEv
k_j:_emscripten_glGenVertexArrays__wrapper
oja:__ZN6prcoreL21CreateRemapAnyBlitterE13TextureFormatS0_
i9b:__ZN17AnimationCurveTplIfE16StripInvalidKeysEv
tee:_Array_InternalArray__ICollection_Add_TisKeyValuePair_2_t3716250094_m2381539361_gshared
Olf:_X509Extension_WriteLine_m2850991173
Q$c:__ZNK2UI6Canvas17GetSortingLayerIDEv
UFc:__ZN14Raycast2DQuery8RunQueryEb
D4b:__Z13RegisterClassI17GlobalGameManagerEvv
t2a:__ZN8Renderer24SetupNewRendererForSceneEv
C9d:_Array_InternalArray__ICollection_Remove_TisInt64_t909078037_m2653583130_gshared
MGg:_Thread_get_ExecutionContext_m922067206
y5b:__ZN14PlayableOutput6HandleEv
SKj:__ZN6il2cpp5utils10MemoryPool9AddRegionEj
tn:FUNCTION_TABLE_iiiiiiiiiiiiii
TRc:_UNITY_tt_get_cmap_info
m6a:__ZN16ReflectionProbes8ScheduleEN18ReflectionProbeJob7JobTypeEP15ReflectionProbei
SKe:_Collection_1_IsFixedSize_m3675221982_gshared
O5:__ZN16MessageForwarder13HandleMessageEPviR11MessageData
bre:_Enumerator_MoveNext_m3293920409_AdjustorThunk
CX:__Z18IsDirectoryCreatedRKN4core12basic_stringIcNS_20StringStorageDefaultIcEEEE
sOh:_Comparer_1__cctor_m3112251759_gshared
jFf:_X509KeyUsageExtension_ToString_m1992050580
ANc:_UNITY_FT_GlyphLoader_Done
K7b:__ZN9Polygon2D16CheckConsistencyEv
Exi:_ConstructionCall__ctor_m1143766850
r7g:_GUIStyleState_Init_m2434147050
tOh:_Comparer_1_System_Collections_IComparer_Compare_m3203078743_gshared
AGc:__ZN19OverlapPointQuery2D14InitializeAABBER6b2AABB
HSc:_tt_cmap14_char_var_index
n0h:__Z77RuntimeInvoker_TimeSpan_t3430258949_TimeSpan_t3430258949_TimeSpan_t3430258949PK10MethodInfoPvPS2_
eUc:_psh_globals_new
N4e:_FileStream_Seek_m950719389
MDd:_Decimal_stripStyles_m294582157
FGg:_UTF8Decoder_GetChars_m3819660582
Vta:__ZN9GfxDevice20SetMaxBufferedFramesEi
wxe:_List_1_RemoveAll_m4125997475_gshared
QBc:__ZN10Collider2D19WakeAllBodyContactsEv
fUj:dynCall_vdd
t0c:__ZN2UIL17UnloadAllCanvasesEv
P9a:__Z23ConvertIntegerToTypePtrIsEbPvR14SafeBinaryRead
Kzc:__ZN12b2MouseJoint11ShiftOriginERK6b2Vec2
uwd:_FixedSizeArrayListWrapper_Remove_m1359458911
wja:__ZN6prcoreL29inner_stretch_rgb565_bilinearEPKNS_9InnerInfoE
gHi:_Uri__ctor_m3927533881
zRd:_EventSystem_get_current_m319019811
cAh:_Text_get_mainTexture_m813502234
d$a:__ZNK14RenderSettings19GetFlatAmbientColorEv
i6a:__ZN6prcoreL10inner_flipILj4EEEvPhS1_j
Byb:__ZN18StreamedBinaryReadILb0EE21TransferSTLStyleArrayI10vector_mapIPKN5Unity4TypeE7Hash128NSt3__24lessIS6_EENS8_9allocatorINS8_4pairIS6_S7_EEEEEEEvRT_17TransferMetaFlags
Wu:__ZNK27StateMachineBehaviourPlayer15IsSenderEnabledEv
bii:_CustomEventData_Add_m1028036439
pPh:_Enumerator_VerifyState_m2118679243_gshared
F3d:_InputField_get_shouldHideMobileInput_m3694613599
ckc:__Z40Register_UnityEngine_Transform_SetParentv
Eki:_AudioConfigurationChangeHandler_Invoke_m635374412
jtb:__ZN14Texture2DArray17UploadToGfxDeviceEv
ZQe:_ReadOnlyCollection_1_System_Collections_Generic_IListU3CTU3E_Insert_m4216310986_gshared
hNe:_ReadOnlyCollection_1_System_Collections_Generic_IListU3CTU3E_set_Item_m1532495847_gshared
UJ:__Z14FMODMemoryFreePvjPKc
Lfb:__ZN15dense_hashtableINSt3__24pairIKN4core12basic_stringIcNS2_20StringStorageDefaultIcEEEES6_EES6_20StringHash32FunctionIS6_EN14dense_hash_mapIS6_S6_SA_NS0_8equal_toIS6_EE13stl_allocatorIS8_L18MemLabelIdentifier54ELi16EEE9SelectKeyESD_SG_EC2ERKSJ_j
g3d:_Image_AddQuad_m1600600902
xVc:_cf2_glyphpath_moveTo
zId:_DateTimeOffset__ctor_m1796624924
p3g:_GUILayoutUtility_get_spaceStyle_m1918520192
wRd:_BaseRaycaster_OnDisable_m1716508791
s9d:_Array_InternalArray__ICollection_Remove_TisKeyValuePair_2_t3716250094_m2566517826_gshared
mmc:__ZN5IMGUI14GUIWindowStateD2Ev
HJj:_GC_is_heap_ptr
Ksj:__GLOBAL__sub_I_Assembly_cpp
Ut:__ZN7mecanim5human10RetargetToEPKNS0_5HumanEPKNS0_9HumanPoseES6_RKN4math4trsXEPS4_PNS_8skeleton13SkeletonPoseTIS8_EESF_
Wx:__ZN7mecanim9animation8SeekClipERKNS0_12StreamedClipERNS0_18StreamedClipMemoryEf
jm:_emscripten_glIsTexture
p9g:_Mathf_Clamp_m3542052159
awd:_ArrayListWrapper_CopyTo_m793444109
Qk:_emscripten_glHint
LYc:_ft_var_readpackeddeltas
SHd:_DateTime_AddMilliseconds_m1813199744_AdjustorThunk
RXg:_TypeBuilder_IsValueTypeImpl_m1499671481
zIf:_X509ChainStatus_t4278378721_marshal_pinvoke
Sqf:_RSAManaged__ctor_m1680944437
mm:_SDL_UpperBlit
v6g:_GUIStyle_op_Implicit_m781448948
K$a:__Z35GetTextureDecodeValuesWithIntensity16TextureUsageMode17TextureColorSpace10ColorSpacef
dtd:_Byte_GetHashCode_m2885528842_AdjustorThunk
epj:__ZN15dense_hashtableINSt3__24pairIK10KeyWrapperINS1_IPK9EventInfoP11Il2CppClassEEEjEES9_17ReflectionMapHashIS8_EN14dense_hash_mapIS9_jSD_NS9_14EqualsComparerINS0_8equal_toIS8_EEEENS0_9allocatorISB_EEE9SelectKeyESI_SK_E15set_deleted_keyERKSB_
Ekh:_Dictionary_2_OnDeserialization_m2092139626_gshared
Fzc:__ZNK12b2MouseJoint10GetAnchorAEv
vyj:__ZNK6il2cpp2os6Socket12GetLastErrorEv
HDb:__ZN14SafeBinaryRead20OverrideRootTypeNameEPKc
Z4:__ZN14FileCacherRead16UnlockCacheBlockEj
Skf:_X509Certificate_GetUnsignedBigInteger_m3491353542
qLc:__ZNSt3__26vectorIN4core12basic_stringIcNS1_20StringStorageDefaultIcEEEE13stl_allocatorIS5_L18MemLabelIdentifier34ELi16EEE6assignINS_11__wrap_iterIPS5_EEEENS_9enable_ifIXaasr21__is_forward_iteratorIT_EE5valuesr16is_constructibleIS5_NS_15iterator_traitsISF_E9referenceEEE5valueEvE4typeESF_SF_
l2a:__ZN6Camera6RenderER11CullResultsR17ShaderPassContextPK21CameraRenderingParamsNS_10RenderFlagE
Qc:_emscripten_glUniform1f
FZb:__ZN13dynamic_arrayIS_I8Vector2fLj4EELj4EE18resize_initializedEjRKS1_12ResizePolicy
qzf:_SslStreamBase_get_MightNeedHandshake_m3432170694
$Nc:__Z20ParseImageParametersR11UTF16StringRiRN20TextRenderingPrivate16TextFormatChangeE
Vc:_emscripten_glUniform1i
yDb:__ZN13MonoBehaviour9CallAwakeEv
w3g:__Z14bankers_roundff
XTb:__ZN9ShaderLab16SerializedTagMapaSERKS0_
eR:__ZN11UnityEngine15CloudWebService16SessionContainer20RestoreSessionHeaderERKN4core12basic_stringIcNS2_20StringStorageDefaultIcEEEES8_RNS0_13SessionHeaderE
nId:_DateTime_ToString_m1117481977
XVg:_GenericTypeParameterBuilder_GetGenericArguments_m277381309
EA:__ZN11UnityEngine9Animation27CreateAvatarBindingConstantER9TransformPKN7mecanim9animation14AvatarConstantERNS3_6memory9AllocatorE
qAb:__ZN14SafeBinaryRead21TransferSTLStyleArrayINSt3__26vectorIN30RuntimeInitializeOnLoadManager9ClassInfoE13stl_allocatorIS4_L18MemLabelIdentifier12ELi16EEEEEEvRT_17TransferMetaFlags
dPg:_UnitySerializationHolder_GetObjectData_m2280028722
VCi:_PatternCompiler_EmitFalse_m1188949782
FNg:_UInt64_System_IConvertible_ToDateTime_m2412118561
zbc:__ZN9BlobWriteC2ER13dynamic_arrayIhLj16EE24TransferInstructionFlags19BuildTargetPlatform
s3:__ZN14MessageHandler3GetEv
O4g:_GUISkin_set_verticalScrollbarThumb_m2647835739
OAa:__ZN10DynamicVBO9DrawChunkERK21DynamicVBOChunkHandle17ShaderChannelMaskS3_P17VertexDeclarationPKNS_10DrawParamsEi
hd:_emscripten_glAttachShader
gYb:__Z16tesedgeIntersectP10TESSvertexS0_S0_S0_S0_
QPe:_ReadOnlyCollection_1__ctor_m1539890895_gshared
Uta:__ZN9GfxDevice13SetActiveTierE12GraphicsTier
Npe:_Enumerator_System_Collections_IEnumerator_get_Current_m3079057684_AdjustorThunk
ixb:__ZNSt3__26vectorIN4core12basic_stringIcNS1_20StringStorageDefaultIcEEEENS_9allocatorIS5_EEE6assignIPS5_EENS_9enable_ifIXaasr21__is_forward_iteratorIT_EE5valuesr16is_constructibleIS5_NS_15iterator_traitsISC_E9referenceEEE5valueEvE4typeESC_SC_
Ihf:_KeyPairPersistence_get_UserPath_m3433052783
RMf:__ZL58Decimal_t724701077_CustomAttributesCacheGenerator_MinusOneP21CustomAttributesCache
AFb:__Z18Transfer_BlittableI14SafeBinaryReadLb0E11QuaternionfEvRK29SerializationCommandArgumentsR31RuntimeSerializationCommandInfo
$Pb:__Z18Transfer_BlittableI18StreamedBinaryReadILb0EELb1E12PropertyNameEvRK29SerializationCommandArgumentsR31RuntimeSerializationCommandInfo
rV:_tlsf_walk_heap
qkf:_PKCS12_Decode_m731190390
dJh:_InternalEnumerator_1_get_Current_m1550231132_gshared
qPg:_Version_CheckedSet_m76493673
mb:invoke_vif
nb:invoke_vid
bSj:__ZNSt3__212basic_stringIcNS_11char_traitsIcEENS_9allocatorIcEEE6insertEjPKc
zZf:__ZL67UnverifiableCodeAttribute_t765455733_CustomAttributesCacheGeneratorP21CustomAttributesCache
pb:invoke_vii
iPi:_Transform_get_localRotation_m4001487205
Nbb:__ZN12TLSAllocatorI14StackAllocatorE16ThreadInitializeEP13BaseAllocator
yvd:_ArrayList_Sort_m2778059513
Z1d:_LayoutGroup_SetChildAlongAxis_m2732017156
P1c:__Z41CanvasRenderer_CUSTOM_DisableRectClippingP12Il2CppObject
Jpf:_MD2_Create_m539024737
$Ka:__ZN25SingleBlockMemoryFileDataD0Ev
Rdb:__ZNSt3__26vectorI14ConstantStringNS_9allocatorIS1_EEE6assignINS_11__wrap_iterIPS1_EEEENS_9enable_ifIXaasr21__is_forward_iteratorIT_EE5valuesr16is_constructibleIS1_NS_15iterator_traitsISA_E9referenceEEE5valueEvE4typeESA_SA_
$Q:__ZN11UnityEngine15CloudWebService16SessionContainer21ConvertFromFolderTimeERKN4core12basic_stringIcNS2_20StringStorageDefaultIcEEEEPjPt
PGb:__ZNSt3__26vectorI8GUIStyle13stl_allocatorIS1_L18MemLabelIdentifier1ELi16EEE7reserveEj
Gsj:__ZN6il2cpp6icalls8mscorlib6System9Threading6Thread27GetSerializedCurrentCultureEP12Il2CppThread
Ide:_Array_InternalArray__IndexOf_TisUInt32_t2149682021_m3231515987_gshared
n0b:__Z31CalculateHierarchyTransformType23TransformAccessReadOnly
o8i:__ZN15dense_hashtableINSt3__24pairIK10KeyWrapperI13dynamic_arrayIPK10Il2CppTypeLj4EEEPFvvEEES8_N6il2cpp8metadata19Il2CppSignatureHashEN14dense_hash_mapIS8_SB_SF_NS8_14EqualsComparerINSE_22Il2CppSignatureCompareEEENS0_9allocatorISC_EEE9SelectKeyESJ_SL_E12resize_deltaEjj
M_b:__Z13RegisterClassI11TimeManagerEvv
KJ:__ZN4FMOD8ChannelI11setPositionEjj
ooi:_Component_SendMessage_m913946877
n9:__ZN17BaseObjectManager13StaticDestroyEPv
xNi:_TextGenerationSettings_CompareVector2_m592645251
aJd:_DBNull_System_IConvertible_ToChar_m3344298044
Dlf:_X509Certificate_GetObjectData_m3888130484
Uzb:__ZNSt3__26vectorIN15ResourceManager10DependencyE13stl_allocatorIS2_L18MemLabelIdentifier51ELi16EEEC2INS_11__wrap_iterIPS2_EEEET_SB_RKS5_PNS_9enable_ifIXaasr21__is_forward_iteratorISB_EE5valuesr16is_constructibleIS2_NS_15iterator_traitsISB_E9referenceEEE5valueEvE4typeE
iCi:_LinkStack_Push_m2660199875
EI:__ZN4FMOD6Reverb13setPropertiesEPK22FMOD_REVERB_PROPERTIES
yhi:_CustomEventData_AddChar_m1103619816
_Va:__ZN9DepthPass13PrepareSubsetEjRK10RenderNodeifRK17ShaderReplaceData
d8g:_Input_get_compositionString_m636835668
oJi:_X509CertificateCollection_Add_m4008705157
Y7b:__Z35SetMeshComponentFromArrayFromScriptR4Mesh30InternalScriptingShaderChannel34InternalScriptingVertexChannelTypei17ScriptingArrayPtri
B9b:__Z18ExtractTagThrowingR11ICallString
_He:_Collection_1_IsFixedSize_m1816795498_gshared
PNa:__ZZ23InitPlayerLoopCallbacksvEN40EarlyUpdatePlayerCleanupCachedDatastruct7ForwardEv
vq:__ZN4core20StringStorageDefaultIcE6assignEPKcj
b4g:_GUIStyleState_GetBackgroundInternal_m439046630
Zxj:__ZN15dense_hashtableINSt3__24pairIK10KeyWrapperIP12Il2CppObjectEN6il2cpp2gc9CachedCCWEEES5_NS7_5utils11PointerHashIS3_EEN14dense_hash_mapIS5_S9_SD_NS5_14EqualsComparerINS0_8equal_toIS4_EEEENS0_9allocatorISA_EEE9SelectKeyESI_SK_E3endEv
tAb:__Z14resize_trimmedINSt3__26vectorIi13stl_allocatorIiL18MemLabelIdentifier12ELi16EEEEEvRT_j
GUd:_MouseButtonEventData_ReleasedThisFrame_m482758300
Ypj:__ZN15dense_hashtableINSt3__24pairIK10KeyWrapperINS1_IP11Il2CppClassjEEES4_EES6_N6il2cpp8metadata14ArrayClassHashEN14dense_hash_mapIS6_S4_SB_NS6_14EqualsComparerINSA_17ArrayClassCompareEEENS0_9allocatorIS8_EEE9SelectKeyESF_SH_E9copy_fromERKSK_j
zwd:_ReadOnlyArrayListWrapper_set_Item_m2199017141
T3a:__ZN6Camera6SetFarEf
jJi:_DeriveBytes_DeriveIV_m3343375195
yPc:_UNITY_FT_Init_Class_ft_bitmap_glyph_class
Ccd:_RNGCryptoServiceProvider_GetBytes_m167497991
bka:__ZN6prcoreL12RemapGenericI17TexFormatABGR888817TexFormatARGB8888EEvPKNS_9InnerInfoE
Ghb:__ZN11GameManager17MainThreadCleanupEv
esi:_AnimatorControllerPlayable_INTERNAL_CALL_GetAnimatorControllerInternal_m239716681
dej:__ZN6il2cpp6icalls8mscorlib6System18CollectTypeMethodsINS_5utils10functional6FilterINSt3__212basic_stringIcNS7_11char_traitsIcEENS7_9allocatorIcEEEENS4_11StringUtils23CaseInsensitiveComparerEEEEEvP11Il2CppClassPKSH_jRKT_RNS7_6vectorIPK10MethodInfoNSB_ISR_EEEERA65535_b
XTg:_TypeBuilder_get_Assembly_m492491492
yXc:_UNITY_tt_slot_init
Aad:_HMACSHA512__cctor_m1167457383
mRb:__Z25scripting_array_class_get17ScriptingClassPtrj
nsc:__ZL22Transfer_ManagedObjectI9JSONWriteLb1EEvRK29SerializationCommandArgumentsR31RuntimeSerializationCommandInfo
ova:__ZN9GfxDevice20DestroyRenderSurfaceER12ObjectHandleI17RenderSurface_TagP17RenderSurfaceBaseE
P0b:__ZL24PrepareSpriteRenderNodesILb1EEvR35RenderNodeQueuePrepareThreadContext
PIa:__ZN9GfxDevice22UpdateComputeResourcesEjPK9TextureIDPK16TextureDimensionPKijPKjjPK15ComputeBufferIDS7_PK20ComputeBufferCounterjSC_S2_S5_S9_SF_
l4b:__ZN12_GLOBAL__N_15qAsinEff
Mke:_Dictionary_2_Do_ICollectionCopyTo_TisKeyValuePair_2_t3749587448_m2536766696_gshared
Obb:__ZN12TLSAllocatorI14StackAllocatorE13ThreadCleanupEv
GFj:__ZThn4_N6il2cpp2vm13ComObjectBase16MarshalInterfaceEP13Il2CppIStreamRK10Il2CppGuidPvjS7_j
aub:__ZN4Mesh27SwizzleVertexColorsIfNeededEb
ucb:__Z27FindActiveTransformWithPathPKc
vmi:_CanvasGroup_get_alpha_m1304564441
eki:_AsyncOperation_Finalize_m67522446
h0h:__Z56RuntimeInvoker_TimeSpan_t3430258949_TimeSpan_t3430258949PK10MethodInfoPvPS2_
rPa:_UNITY_png_write_info
eYa:__ZNK6Camera7GetNearEv
Xza:__ZN7ApiGLES11UnmapBufferEjN2gl12BufferTargetE
rBj:__ZN6il2cpp5utilsL24Utf32CharToSurrogatePairEjRA2_Ds
vob:__Z25GetNextAllowedTextureSizeib13TextureFormat
jX:__ZN20LocalFileSystemWebGL4CopyER13FileEntryDataS1_
pye:_List_1_CheckIndex_m4231572822_gshared
$S:__ZN19CloudServiceHandler6RetainEv
phd:_StrongName_Equals_m67226644
Sib:__ZN12BaseRenderer20FlattenToRenderQueueER15RenderNodeQueueRK20DeprecatedSourceData
x8e:_UnmanagedMemoryStream_get_Length_m587008850
Hma:__Z34scripting_liveness_calculation_endPv
TBj:__ZN6il2cpp2os6ThreadC2Ev
eid:_SecurityFrame_InitFromRuntimeFrame_m45195821
nHf:_X509Chain_IsSignedWith_m292245392
x9d:_Array_InternalArray__ICollection_Remove_TisDateTime_t693205669_m1275668216_gshared
UPe:_ReadOnlyCollection_1_System_Collections_Generic_ICollectionU3CTU3E_Remove_m3751131234_gshared
Htc:__Z18Transfer_BlittableI8JSONReadLb0E8Vector3fEvRK29SerializationCommandArgumentsR31RuntimeSerializationCommandInfo
Zxi:_ChannelServices__cctor_m3534779830
zrj:__ZN6il2cpp2vm6Thread6DetachEP12Il2CppThread
oTc:_Render_Single_Pass
EEd:_Convert_ToInt16_m416789348
gnd:_EncoderExceptionFallback_Equals_m762170768
nsh:_EqualityComparer_1__cctor_m2666196678_gshared
$1g:_GUIStyle_Init_m3872198731
KA:__ZN7mecanim8skeleton30SkeletonBuildReverseIndexArrayEPiPKiPKNS0_8SkeletonES6_
llc:__Z19GetGUIBlendMaterialv
FCj:__ZN6il2cpp2os10ThreadImpl5SleepEjb
r4c:__ZN11UnityEngine9Analytics15UserCustomEvent3AddEPKcb
JBb:__ZN15FileSystemEntry4MoveERS_23FileSystemCopyMoveFlags
fBf:_ListDictionary_FindEntry_m432748847
LZj:_glBindSampler__wrapper
nVi:_UnityAction_1_Invoke_m3523417209_gshared
Of:_emscripten_set_mouseup_callback
BMi:_SpaceAttribute__ctor_m1444406696
pW:__ZNK18ScreenManagerWebGL8GetWidthEv
qUj:dynCall_iiifii
G1d:_GridLayoutGroup_set_startAxis_m1635162426
OF:__ZN10SampleClipD2Ev
FAi:_SynchronizationAttribute_EnterContext_m2984912761
cQd:_CultureInfo_construct_internal_locale_from_name_m971766383
g7b:__ZN19SpriteMeshGenerator7contourERNSt3__26vectorINS_6vertexENS0_9allocatorIS2_EEEERiRf
hfe:_Array_InternalArray__ICollection_Add_TisUIVertex_t1204258818_m3869382594_gshared
RD:__Z56AnimationOffsetPlayable_CUSTOM_INTERNAL_CALL_GetPositionR9HPlayableR8Vector3f
UWc:_cff_cmap_unicode_init
uNd:_Enum_ToObject_m2460371738
Aff:_PrimalityTests_Test_m1088386156
knc:__Z36Event_CUSTOM_Internal_SetNativeEvent13Il2Cpp_IntPtr
CQj:_readlink
Imj:__ZN15dense_hashtableINSt3__24pairIK10KeyWrapperINS1_IPK9EventInfoP11Il2CppClassEEEjEES9_17ReflectionMapHashIS8_EN14dense_hash_mapIS9_jSD_NS9_14EqualsComparerINS0_8equal_toIS8_EEEENS0_9allocatorISB_EEE9SelectKeyESI_SK_E12resize_deltaEjj
kje:_Array_Resize_TisVector3_t2243707580_m893658391_gshared
uFh:_InternalEnumerator_1_System_Collections_IEnumerator_get_Current_m4259662004_AdjustorThunk
Fme:_Array_InternalArray__get_Item_TisKeyframe_t1449471340_m1003508933_gshared
ELj:__ZN6il2cpp8metadata14Il2CppTypeHash4HashEPK10Il2CppType
kkf:_StrongName_get_PublicKeyToken_m1968460885
_wb:__ZNK6Sprite9GetBoundsE8Vector2fbb
DRa:__ZNK19RenderEventsContext21CleanupCommandBuffersEv
xya:__ZN11ContextGLES6CreateEi
c2e:_BinaryReader_Dispose_m4249456877
RFf:_X500DistinguishedName_Decode_m3070515374
JDd:_Double_ToString_m1085043609
NQb:__Z19TransferField_ArrayI18StreamedBinaryReadILb0EE27Converter_SimpleNativeClassI17AnimationCurveTplIfEEEvRK23StaticTransferFieldInfoR31RuntimeSerializationCommandInfoRT0_
lsf:_CipherSuite_createEncryptionCipher_m1926075645
zbb:__ZN14StackAllocator16FrameMaintenanceEb
Y0d:_Graphic_Raycast_m3582517890
kfb:__Z18ReadStringFromFilePN4core17string_with_labelILi1EEERKNS_12basic_stringIcNS_20StringStorageDefaultIcEEEE
y0:__ZNK10GameObject20QueryComponentByTypeEPKN5Unity4TypeE
Sqe:_Enumerator_MoveNext_m1367380970_AdjustorThunk
lXg:_OpCode_GetHashCode_m2974727122
msf:_CipherSuite_createDecryptionCipher_m1118350455
nDi:_PatternCompiler_EmitReference_m1381860071
UE:__Z78AnimatorControllerPlayable_CUSTOM_INTERNAL_CALL_IsParameterControlledByCurveIDR9HPlayablei
kMd:_Double_System_IConvertible_ToInt16_m4200640326
sfc:__Z53Register_UnityEngine_GameObject_get_activeInHierarchyv
B3h:__Z90RuntimeInvoker_Single_t2076509932_Single_t2076509932_Single_t2076509932_Single_t2076509932PK10MethodInfoPvPS2_
z_:__ZL30InitializeCoreScriptingClassesv
QKe:_Collection_1_CheckWritable_m3938993573_gshared
Jg:_glBlitFramebuffer
Iff:_BigInteger_GeneratePseudoPrime_m2606361440
nIb:__Z35Transfer_Blittable_SingleValueFieldI14SafeBinaryReadhEvRT_R17GeneralMonoObjectRK23StaticTransferFieldInfo
L8c:__ZN22BaseUnityConnectClientC2ERN11UnityEngine7Connect20BasePersistentValuesE
qWh:__Z129RuntimeInvoker_Int32_t2071877448_Il2CppObject_Int32_t2071877448_Int32_t2071877448_Il2CppObject_Int32_t2071877448_SByte_t454417549PK10MethodInfoPvPS2_
bvg:_RemotingServices_GetRealProxy_m620317996
AWa:__ZN13dynamic_arrayI11CulledLightLj4EE6insertEPS0_PKS0_S4_
H7i:__ZNK15dense_hashtableI10KeyWrapperIPK19Il2CppGenericMethodES4_N6il2cpp8metadata23Il2CppGenericMethodHashEN14dense_hash_setIS4_S7_NS4_14EqualsComparerINS6_26Il2CppGenericMethodCompareEEENSt3__29allocatorIS4_EEE8IdentityESB_SE_E3endEv
uTi:_Predicate_1_Invoke_m2060780095_gshared
Oaj:__ZN6il2cpp2vm13MetadataCache23GetInterfaceOffsetIndexEi
Rn:FUNCTION_TABLE_vif
Sn:FUNCTION_TABLE_vid
Un:FUNCTION_TABLE_vii
Tma:__Z40scripting_liveness_calculation_from_root18ScriptingObjectPtrPv
iPa:_UNITY_png_create_write_struct
oVh:__Z149RuntimeInvoker_Boolean_t3825574718_Int32_t2071877448_Il2CppObject_Int32_t2071877448_Int32_t2071877448_Il2CppObject_Int32_t2071877448_SByte_t454417549PK10MethodInfoPvPS2_
ifa:__ZN7Texture23VirtualRedirectTransferER24GenerateTypeTreeTransfer
FMc:_UNITY_FT_Set_Transform
rCh:_ArrayReadOnlyList_1_Contains_m1266627404_gshared
qZj:_glDeleteFramebuffers__wrapper
y2d:_Image_get_overrideSprite_m706080347
Mnf:_BigInteger_ModInverse_m1881894572
xcj:__ZN6il2cpp2vm7Runtime17GetDelegateInvokeEP11Il2CppClass
lve:_List_1_AddEnumerable_m3541747636_gshared
Fpb:__ZN28EnlightenRendererInformation8TransferI14SafeBinaryReadEEvRT_
wUf:__ZL69DefaultDependencyAttribute_t3858269114_CustomAttributesCacheGeneratorP21CustomAttributesCache
HJa:__ZNK15Lz4Decompressor16DecompressMemoryEPKvPjPvS2_
KRc:_UNITY_tt_face_build_cmaps
Sch:_Ray_ToString_m2019179238
vIc:__ZN11Rigidbody2D8TransferI24GenerateTypeTreeTransferEEvRT_
BJd:_Decimal_System_IConvertible_ToType_m3828527724_AdjustorThunk
XQc:_UNITY_tt_face_load_os2
ZHc:__ZN17PolygonCollider2D8TransferI24GenerateTypeTreeTransferEEvRT_
Bpf:_HMAC_get_Key_m2528863640
CLe:_Collection_1_IsSynchronized_m1366278230_gshared
QHb:__Z29Transfer_Blittable_ArrayFieldI14SafeBinaryRead8Vector4fEvRT_R9ArrayInfoRK23StaticTransferFieldInfo
W7d:_Array_get_swapper_TisInt32_t2071877448_m2837069166_gshared
Mkj:__ZN6il2cpp2gc19AppendOnlyGCHashMapINSt3__24pairIPK10MethodInfoP11Il2CppClassEEP22Il2CppReflectionMethod17ReflectionMapHashIS9_ENS2_8equal_toIS9_EEE3AddERKS9_SB_
meh:_RectTransform_INTERNAL_get_rect_m1177342209
_Td:_PointerEventData_IsScrolling_m1971908975
bEj:__ZN6il2cpp2os26LibraryNamePrefixAndSuffixD2Ev
NJd:_Decimal_System_IConvertible_ToInt16_m3159038792
vx:__ZN7mecanim9animation12EvaluateClipEPKNS0_4ClipEPKNS0_9ClipInputEPNS0_10ClipMemoryEPNS0_10ClipOutputE
z_g:_MonoMethodInfo_GetReturnType_m2864247130
q0a:__ZN13RenderManager29SetCurrentCameraAndStackStateEP6CameraP25CameraStackRenderingState
lrj:__ZN15dense_hashtableINSt3__24pairIK10KeyWrapperINS1_IP11Il2CppClassjEEES4_EES6_N6il2cpp8metadata14ArrayClassHashEN14dense_hash_mapIS6_S4_SB_NS6_14EqualsComparerINSA_17ArrayClassCompareEEENS0_9allocatorIS8_EEE9SelectKeyESF_SH_E12resize_deltaEjj
Yh:_JS_WebRequest_Release
p3e:_DirectoryNotFoundException__ctor_m2242202556
zR:__ZN11UnityEngine15CloudWebService14DataErrorEventD0Ev
Rld:_String_CreateString_m2448464375
UIf:_X509SubjectKeyIdentifierExtension__ctor_m2959112706
oYg:_FieldInfo_get_IsNotSerialized_m2322769148
hxj:__ZN6il2cpp8metadata15GenericMetadata7InflateEPK19Il2CppGenericMethodPK20Il2CppGenericContext
rSa:__ZN19ShaderPropertySheet16SetArrayPropertyEN9ShaderLab16FastPropertyNameENS_12PropertyTypeEPKvj
s_g:_MonoGenericCMethod_get_ReflectedType_m2689239043
DLe:_Collection_1_IsFixedSize_m499196375_gshared
RYd:_ColorTween_set_startColor_m3546206870_AdjustorThunk
O_c:__ZN2UI11CanvasGroup23VirtualRedirectTransferER19StreamedBinaryWriteILb0EE
hIh:_InternalEnumerator_1_get_Current_m4083613828_gshared
vmc:__ZN8GUIState8EndOnGUIEv
eFg:_UnicodeEncoding_GetString_m542738941
FXc:_UNITY_TT_Get_VMetrics
Q2e:_Path_InsecureGetFullPath_m2635272425
xHd:_DateTime_System_IConvertible_ToUInt32_m1363211018
MAg:_RuntimeMethodHandle__ctor_m1162528746
tae:_SetPropertyUtility_SetStruct_TisSingle_t2076509932_m3849235084_gshared
iBa:__ZN7Texture21GetMasterTextureLimitEv
$4a:__Z12CanAddScriptR10GameObject17ScriptingClassPtrPS1_S2_
Hpj:__ZN6il2cpp2vm10Reflection12HasAttributeEP12Il2CppObjectP11Il2CppClass
GQa:_UNITY_png_write_sRGB
Mvc:__ZN8JSONRead21TransferSTLStyleArrayI13dynamic_arrayI4AABBLj4EEEEvRT_18MemLabelIdentifier17TransferMetaFlags
I0:__ZN9ShaderLabL25StaticInitializeShaderLabEPv
U:Math_max
Qfj:_il2cpp_class_get_methods
T2e:_Path_CanonicalizePath_m383914732
nPh:_Enumerator_System_Collections_IEnumerator_get_Current_m1631145297_gshared
Dvd:_ArrayList_Synchronized_m2395071980
$Bj:__ZN6il2cpp2os6Thread16GetCurrentThreadEv
G4b:__ZN10GameObject13ComponentPair15SetComponentPtrEPN5Unity9ComponentE
r8e:_UnexceptionalStreamWriter_Write_m3206913035
x_b:__Z13RegisterClassI10MeshFilterEvv
$C:__ZNK26AnimatorControllerPlayable24GetAnimatorClipInfoCountEib
Eib:__ZN10TagManager8TransferI19StreamedBinaryWriteILb0EEEEvRT_
JEb:__ZN11PreloadData23VirtualRedirectTransferER18StreamedBinaryReadILb0EE
Gw:__Z17dynamic_pptr_castIP10MonoScript6ObjectET_RK4PPtrIT0_E
nFj:__ZN6il2cpp6icalls8mscorlib6System10ReflectionL40il2cpp_class_get_generic_type_definitionEP11Il2CppClass
cDg:_DESTransform_ProcessBlock_m2826669227
Y1h:__Z115RuntimeInvoker_Void_t1841601450_Il2CppObject_Int32_t2071877448_Int32_t2071877448_SByte_t454417549_Int32_t2071877448PK10MethodInfoPvPS2_
L_e:_Int16_CompareTo_m3493496879
Vrb:__ZN6Sprite17MainThreadCleanupEv
aL:__ZN10AudioMixer14UpdateMuteSoloEv
doi:_Component_GetComponents_m637589504
Cth:_MaskableGraphic_UnityEngine_UI_IClippable_get_gameObject_m954171032
Wfa:__ZN9ShaderLab10SubProgram7CompileEv
lAa:__ZN7ApiGLES16SetPatchVerticesEi
P5e:_MonoIOStat_t1621921065_marshal_pinvoke
pKa:__ZN10MemoryFileC2E18MemLabelIdentifierP14MemoryFileData14FilePermission
jwg:_TrackingServices_NotifyUnmarshaledObject_m1794048369
l$i:__ZN6il2cpp2vm5Class20FromGenericParameterEPK22Il2CppGenericParameter
BT:__ZN19CloudServiceHandler11FlushEventsEv
Hti:_AnimatorControllerPlayable_INTERNAL_CALL_GetAnimatorClipInfoInternal_m3180917212
N8:__ZN15GlobalCallbacksC2Ev
ydb:__ZN11AssetBundle8TransferI14SafeBinaryReadEEvRT_
Mhe:_Array_InternalArray__set_Item_TisLabelFixup_t4090909514_m565370771_gshared
jFc:__ZN7b2World10CreateBodyEPK9b2BodyDef
eOc:_UNITY_FT_New_Memory_Face
oE:__Z81AnimatorControllerPlayable_CUSTOM_INTERNAL_CALL_GetAnimatorTransitionInfoInternalR9HPlayablei
aOa:__ZZ23InitPlayerLoopCallbacksvEN43PostLateUpdatePlayerSendFrameCompletestruct7ForwardEv
sta:__ZN26VertexDeclarationCacheGLES24DestroyVertexDeclarationEP17VertexDeclaration
hhd:__Z15CastclassSealedP12Il2CppObjectP11Il2CppClass
Y8g:_Material_HasProperty_m3175512802
o3a:__ZN16ReflectionProbes40UpdateRealtimeReflectionProbesTimeslicedEv
l2b:__ZN16ReflectionProbes15InitializeClassEv
YKj:__ZN6il2cpp5utils5MatchENSt3__212basic_stringIcNS1_11char_traitsIcEENS1_9allocatorIcEEEEjRKS7_j
YOc:_UNITY_FT_Destroy_Class_psnames_module_class
RCi:_MRUList_Evict_m2430323183
wQe:_ReadOnlyCollection_1_System_Collections_Generic_ICollectionU3CTU3E_Remove_m1060547576_gshared
Syj:__ZN6il2cpp2vm5Image9GetCorlibEv
wA:__ZN8Animator13BatchedFKPassERK13dynamic_arrayIP14PlayableOutputLj4EE
uxf:_RecordProtocol_ProcessChangeCipherSpec_m3233959862
Vni:_Component_GetComponent_m4225719715
gke:_Array_Sort_TisVector4_t2243707581_m474199742_gshared
yve:_List_1_CheckIndex_m2247532995_gshared
$7e:_TextWriter_Write_m576684782
QQi:_Vector3_Max_m2105825185
Uj:_glIsVertexArray
yF:__Z100Register_UnityEngine_Experimental_Director_AnimatorControllerPlayable_INTERNAL_CALL_SetIntegerStringv
MAb:__ZNSt3__26vectorIN4core12basic_stringIcNS1_20StringStorageDefaultIcEEEE13stl_allocatorIS5_L18MemLabelIdentifier12ELi16EEEC2INS_11__wrap_iterIPS5_EEEET_SE_RKS8_PNS_9enable_ifIXaasr21__is_forward_iteratorISE_EE5valuesr16is_constructibleIS5_NS_15iterator_traitsISE_E9referenceEEE5valueEvE4typeE
oKa:__ZN25SingleBlockMemoryFileDataC2E18MemLabelIdentifierPvjb
fa:invoke_fff
uAh:_Text_get_fontSize_m3105730761
vWj:b14
Lwf:_TlsServerHello_Update_m1740270635
ZZc:__ZN2UI6Canvas17MainThreadCleanupEv
axh:_ScrollRect_Rebuild_m3423824761
aBe:_List_1_Find_m3862454845_gshared
pDc:__ZTv0_n12_N10ClipperLib7ClipperD1Ev
GCi:_MatchCollection_get_Item_m2609281578
cHa:__ZN7ApiGLES13CreateProgramEv
vkb:__ZN11HaloManager7AddHaloEv
cGg:_UTF8Encoding__ctor_m100325490
vBa:__ZN4crnd12crn_unpackerD2Ev
Zzh:_StencilMaterial_ClearAll_m1372779118
ek:_emscripten_glTexImage2D
Dug:_ObjRefSurrogate_SetObjectData_m1873902916
qXc:_tt_driver_class_pic_init
r_:__ZN18ScriptingArguments9AddStringEPKc
LIj:_setup_header
cTj:runPostSets
tpa:__ZL23stbir__resize_arbitraryPvPKviiiS_iiiffffPfiij14stbir_datatype12stbir_filterS4_10stbir_edgeS5_16stbir_colorspace
Uwe:_List_1_System_Collections_IList_Insert_m848656350_gshared
f7b:__ZN19SpriteMeshGenerator4maskC2EP11ColorRGBA32iihj
jKb:__Z18Transfer_BlittableI24GenerateTypeTreeTransferLb1E8Vector4fEvRK29SerializationCommandArgumentsR31RuntimeSerializationCommandInfo
j$e:_Int16_ToString_m3971652088_AdjustorThunk
pk:_pthread_detach
tbj:__ZN6il2cpp2vm19SocketPollingThread7RunLoopEv
Rtg:_MethodDictionary_AllocInternalProperties_m3261295876
Ohc:__ZN15DirectorManager20ScheduleGraphDestroyERK14HPlayableGraph
hsa:__ZNSt3__213__stable_sortIRN10vector_mapI17ScriptingClassPtrPKN5Unity4TypeENS_4lessIS2_EENS_9allocatorINS_4pairIS2_S6_EEEEE13value_compareENS_11__wrap_iterIPSB_EEEEvT0_SJ_T_NS_15iterator_traitsISJ_E15difference_typeEPNSM_10value_typeEi
IUb:__ZN9ShaderLab25SerializedTextureProperty8TransferI24GenerateTypeTreeTransferEEvRT_
Beb:__ZN15dense_hashtableINSt3__24pairIKN4core12basic_stringIcNS2_20StringStorageDefaultIcEEEEP11AssetBundleEES6_20StringHash32FunctionIS6_EN14dense_hash_mapIS6_S9_SC_NS0_8equal_toIS6_EENS0_9allocatorISA_EEE9SelectKeyESF_SH_E12resize_deltaEjj
a2j:_emscripten_glIsShader__wrapper
znj:__ZN6il2cpp2gc19AppendOnlyGCHashMapINSt3__24pairIPK14Il2CppAssemblyP11Il2CppClassEEP24Il2CppReflectionAssembly17ReflectionMapHashIS9_ENS2_8equal_toIS9_EEEC2Ev
roc:__Z32GUIStyle_Get_Custom_PropFontSizeP12Il2CppObject
Tzg:_DelegatePInvokeWrapper_CallbackHandler_t362827733
suc:__Z18Transfer_BlittableI8JSONReadLb1EyEvRK29SerializationCommandArgumentsR31RuntimeSerializationCommandInfo
Mk:_emscripten_glMatrixMode
Rr:__ZN8Animator23VirtualRedirectTransferER18StreamedBinaryReadILb0EE
d4e:_NotSupportedException__ctor_m836173213
nug:_MethodReturnDictionary__ctor_m756139344
VQ:__ZN11UnityEngine15CloudWebService14DataDispatcher16PrepareDataBlockERNS0_16SessionContainerE
tHa:__ZN18GfxFramebufferGLES5ClearE13GfxClearFlagsRK10ColorRGBAffib
eQb:__ZL26Transfer_SimpleNativeClassI18StreamedBinaryReadILb0EE10RectOffsetLb0EEvRK29SerializationCommandArgumentsR31RuntimeSerializationCommandInfo
VOc:_UNITY_ft_destroy_default_module_classes
zte:_List_1_CheckMatch_m1772343151_gshared
JVa:__ZL12DepthPassJobPN21GfxDeviceAsyncCommand10ArgScratchEPKNS_3ArgE
lTb:__ZNSt3__26vectorIN9ShaderLab20SerializedSubProgram16TextureParameterENS_9allocatorIS3_EEE6assignINS_11__wrap_iterIPS3_EEEENS_9enable_ifIXaasr21__is_forward_iteratorIT_EE5valuesr16is_constructibleIS3_NS_15iterator_traitsISC_E9referenceEEE5valueEvE4typeESC_SC_
D1e:_IntPtr_Equals_m1214967011_AdjustorThunk
Uze:_List_1_Add_m3591975577_gshared
L1c:__Z55Register_UnityEngine_CanvasGroup_get_ignoreParentGroupsv
Z_b:__Z13RegisterClassI19LowerResBlitTextureEvv
Qm:FUNCTION_TABLE_iiiiiiiiiiii
Yjb:__ZN16GraphicsSettingsD0Ev
i$j:_pthread_mutex_init__wrapper
Q1a:__ZN15LODGroupManager21CalculateLODDataArrayERK13LODParametersPK6Cameraf
n:cttz_i8
jVc:_UNITY_FT_GlyphLoader_Add
IEh:_InternalEnumerator_1_System_Collections_IEnumerator_get_Current_m1004764375_AdjustorThunk
rXe:_DateTimeFormatInfo_get_FullDateTimePattern_m2607507656
jxf:_HttpsClientStream_RaiseServerCertificateValidation_m3356770426
oLd:_DelegateSerializationHolder__ctor_m3915060553
PAb:__ZN15SerializeTraitsINSt3__26vectorIN30RuntimeInitializeOnLoadManager9ClassInfoE13stl_allocatorIS3_L18MemLabelIdentifier12ELi16EEEEE8TransferI24GenerateTypeTreeTransferEEvRS7_RT_
Ake:_Array_swap_TisUIVertex_t1204258818_TisUIVertex_t1204258818_m1163375424_gshared
Il:_emscripten_glViewport
AZb:__Z21GenerateTilingAreaJobP22GenerateTilingAreaInfoj
tFj:__ZN6il2cpp6icalls8mscorlib6System15MonoCustomAttrs17IsDefinedInternalEP12Il2CppObjectP20Il2CppReflectionType
Mtb:__ZN4Mesh21UnswizzleVertexColorsEb
qId:_DateTime_ToString_m2276663647_AdjustorThunk
nXc:_cff_parse_font_bbox
vB:__GLOBAL__sub_I_runtime_animation2_lump_cpp
Myb:__ZN14PlayerSettings23VirtualRedirectTransferER18StreamedBinaryReadILb0EE
RNj:__ZN6il2cpp2os5Event5ResetEv
pNe:_ReadOnlyCollection_1_System_Collections_IList_Insert_m1130110335_gshared
Mti:_AnimatorControllerPlayable_GetCurrentAnimatorClipInfoCount_m335090574
Vwj:__ZN6il2cpp8metadata15GenericMetadata17InflateParametersEPK13ParameterInfohPK20Il2CppGenericContextb
O0e:_Int64_System_IConvertible_ToUInt32_m850395426_AdjustorThunk
ski:_PCMReaderCallback_Invoke_m3610389815
xad:_HMACSHA512__ctor_m2390736870
Ru:__ZNK17AnimationPlayable27GetNextCompatibleDescendantEi
ps:__ZN8Animator20ProcessAnimationsJobEPNS_11AnimatorJobEj
HUg:_TypeBuilder_GetInterfaces_m1818658502
Qaa:__Z25SetNeedToPerformRenderingb
N_g:_MonoMethod_GetPseudoCustomAttributes_m466965107
BZa:__ZNSt3__227__insertion_sort_incompleteIR23CompareReflectionProbesP31RuntimeReflectionProbeBlendInfoEEbT0_S5_T_
YVa:__ZN14qsort_internal30FindAndMovePivotToLastPositionIP15RODataDepthPassi17ROSorterDepthPassEEvT_S4_T0_T1_
Yfh:_Enumerator_System_Collections_IDictionaryEnumerator_get_Value_m3005608231_gshared
Tsh:_MaskUtilities_NotifyStencilStateChanged_m1527407683
X1a:__ZN12CullingGroup10SendEventsEPK17CullingGroupEventj
ihf:_DSAManaged_GenerateKeyPair_m2711647034
X7a:__ZN13sorted_vectorINSt3__24pairIN4core12basic_stringIcNS2_20StringStorageDefaultIcEEEES6_EEN10vector_mapIS6_S6_27compare_tstring_insensitiveIS6_E13stl_allocatorIS7_L18MemLabelIdentifier37ELi16EEE13value_compareESD_E9erase_oneIS6_EEjRKT_
xqb:__ZThn32_NK8Renderer8GetLayerEv
Mee:_Array_InternalArray__ICollection_Add_TisResourceCacheItem_t333236149_m1151081240_gshared
Fxg:_SoapServices_GetXmlTypeForInteropType_m3821579913
$$j:_emscripten_glTexParameterfv__wrapper
XFi:_CaptureAssertion_IsComplex_m1433259302
Ybh:_Physics2D_INTERNAL_CALL_Internal_Raycast_m489831109
Hgj:_il2cpp_method_get_param_count
mZb:__ZN10systeminfo19ISOToSystemLanguageERN4core12basic_stringIcNS0_20StringStorageDefaultIcEEEE
hFc:__ZN18StreamedBinaryReadILb0EE21TransferSTLStyleArrayI13dynamic_arrayIS2_I8Vector2fLj4EELj4EEEEvRT_17TransferMetaFlags
smj:__ZNK15dense_hashtableINSt3__24pairIK10KeyWrapperINS1_IPK12PropertyInfoP11Il2CppClassEEEjEES9_17ReflectionMapHashIS8_EN14dense_hash_mapIS9_jSD_NS9_14EqualsComparerINS0_8equal_toIS8_EEEENS0_9allocatorISB_EEE9SelectKeyESI_SK_E3endEv
xIc:__ZN11Rigidbody2D8TransferI19StreamedBinaryWriteILb0EEEEvRT_
iOj:__ZN6il2cpp8metadata26Il2CppGenericMethodCompare6EqualsEPK19Il2CppGenericMethodS4_
Nca:__ZNSt3__26vectorIP10MemoryPool13stl_allocatorIS2_L18MemLabelIdentifier72ELi16EEE21__push_back_slow_pathIKS2_EEvRT_
FTc:_ps_dimension_done
tWd:_LayoutRebuilder_MarkLayoutForRebuild_m640589351
PZc:__Z46Register_UnityEngine_TextGenerator_Dispose_cppv
aUd:_PointerEventData_get_pressEventCamera_m724559964
wgd:_String_IndexOfUnchecked_m3356721554
kpb:__ZN16LightmapSettings8TransferI14SafeBinaryReadEEvRT_
HCa:__ZN17BufferManagerGLES13ReleaseBufferEP14DataBufferGLES
quc:__Z18Transfer_BlittableI8JSONReadLb1EjEvRK29SerializationCommandArgumentsR31RuntimeSerializationCommandInfo
dJi:_PKCS12_Decrypt_m1557069392
MAh:_VertexHelper_AddUIVertexQuad_m280792808
pEf:_WebHeaderCollection_ToString_m1246460752
gGh:_InternalEnumerator_1_System_Collections_IEnumerator_get_Current_m2842514953_AdjustorThunk
ip:stackSave
$Tc:_ps_dimension_end
Ogc:__Z41Register_UnityEngine_Mesh_Internal_Createv
jwb:__ZN14SpriteRenderer23VirtualRedirectTransferER24GenerateTypeTreeTransfer
Twj:__ZNK15dense_hashtableI10KeyWrapperIP18Il2CppGenericClassES3_N6il2cpp8metadata22Il2CppGenericClassHashEN14dense_hash_setIS3_S6_NS3_14EqualsComparerINS5_25Il2CppGenericClassCompareEEENSt3__29allocatorIS3_EEE8IdentityESA_SD_E12test_deletedERK30dense_hashtable_const_iteratorIS3_S3_S6_SF_SA_SD_E
n0i:__ZN6il2cpp2vm5Class14GetNestedTypesEP11Il2CppClassPPv
Oad:_MACTripleDES_Initialize_m1318099802
nqf:_MD5SHA1_VerifySignature_m507888141
ssd:_Byte_System_IConvertible_ToChar_m4188836679
$We:_NumberFormatter_InitDecHexDigits_m2036076025
Bgh:_Enumerator_get_CurrentKey_m3839846791_AdjustorThunk
bvc:__ZN8JSONRead21TransferSTLStyleArrayI13dynamic_arrayIaLj1EEEEvRT_18MemLabelIdentifier17TransferMetaFlags
Z3a:__ZN6Camera9SetAspectEf
xa:invoke_viiffiii
ong:__ZL79TouchInputModule_t2561058385_CustomAttributesCacheGenerator_m_ForceModuleActiveP21CustomAttributesCache
r1j:_emscripten_glBindVertexArray__wrapper
_lh:_Dictionary_2_InitArrays_m435313205_gshared
U4a:__ZN9Transform37InitializeTransformHierarchyRecursiveER18TransformHierarchyRii
m0b:__Z34DefaultPrepareDispatchBoundsUpdateR13RendererScene18MemLabelIdentifier
i0d:_Graphic_get_useLegacyMeshGeneration_m1366444625
kpg:__ZL65InputField_t1631627530_CustomAttributesCacheGenerator_m_InputTypeP21CustomAttributesCache
xff:_ModulusRing_Pow_m1137250399
VRa:__ZN17MeshRenderingData4InitEP4MeshS1_iP15SharedGfxBufferS3_
$yd:_Hashtable__cctor_m2952659675
CIf:_X509ChainStatus__ctor_m3628359961_AdjustorThunk
iie:_Array_InternalArray__set_Item_TisUICharInfo_t3056636800_m1953167516_gshared
Mgd:_Evidence_get_HostEvidenceList_m2095478124
Wjc:__Z57Register_UnityEngine_Transform_INTERNAL_set_localPositionv
stf:_Context_Clear_m4000337070
nxa:__ZN13GfxDeviceGLES26SetRandomWriteTargetBufferEi15ComputeBufferID
mLf:_IntervalCollection_Normalize_m538796191
BBd:_Console_SetEncodings_m342145566
VOi:_TrackedReference_op_Equality_m3491334086
$$d:_FontUpdateTracker_UntrackText_m3827316510
yeb:__ZN18AssetBundleManager19RegisterAssetBundleEP11AssetBundle
ume:_Array_InternalArray__get_Item_TisSingle_t2076509932_m1495809753_gshared
$he:_Array_InternalArray__set_Item_TisAnimatorClipInfo_t3905751349_m978873279_gshared
D9b:__ZNK11ICallString6ToUTF8Ev
VFi:_CaptureAssertion_get_Alternate_m2729005740
QGj:_GC_number_stack_black_listed
ZVa:__ZNSt3__211__sift_downIR17ROSorterDepthPassP15RODataDepthPassEEvT0_S5_T_NS_15iterator_traitsIS5_E15difference_typeES5_
uRg:_Default_SelectMethod_m3081239996
rha:__ZN18UnityPropertySheet11UnityTexEnvC2Ev
Bs:__ZN8Animator17ApplyOnAnimatorIKEiRNS_11AnimatorJobE
h5:__ZN12FileAccessor4ReadEyyPvPy
Tfa:__ZN13dynamic_arrayI16ShaderKeywordSetLj4EE6insertEPS0_PKS0_S4_
Ttg:_MethodDictionary_IsOverridenKey_m3922224650
oAd:_SyncHashtable_Contains_m3042906549
KCe:_List_1_System_Collections_IList_set_Item_m4016273526_gshared
TIf:_X509KeyUsageExtension_CopyFrom_m931530012
y3a:__ZN13RenderTexture9SetHeightEi
Qni:_Color32__ctor_m1932627809_AdjustorThunk
Zzf:_SslStreamBase_Read_m1036897444
Huh:_RectMask2D_PerformClipping_m1232012832
Uuj:__ZN6il2cpp6icalls8mscorlib6System2IO6MonoIO17GetFileAttributesEP12Il2CppStringPi
ihh:_Transform_1_Invoke_m4020530914_gshared
lSc:_tt_cmap8_char_index
jYb:__Z14tessMeshDeleteP8TESSmeshP12TESShalfEdge
N_:__Z24scripting_class_get_name17ScriptingClassPtr
a7:__ZN13RuntimeStaticI15GUIEventManagerLb0EE13StaticDestroyEPv
xEa:__ZN7ApiGLES14TextureSamplerEjj17TextureFilterMode15TextureWrapModeifb18ShadowSamplingModeN2gl17TextureSrgbDecodeE
o5b:__ZN15DirectorManager18ScheduleGraphStartERK14HPlayableGraph
Chi:_CustomEventData_AddUInt16_m3349298376
_Gb:__Z29Transfer_Blittable_ArrayFieldI14SafeBinaryReadjEvRT_R9ArrayInfoRK23StaticTransferFieldInfo
Nli:_Camera_FireOnPostRender_m94860165
le:_emscripten_set_keydown_callback
Lzd:_Enumerator_get_Value_m3684748062
Fib:__ZN19StreamedBinaryWriteILb0EE21TransferSTLStyleArrayINSt3__26vectorI17SortingLayerEntryNS2_9allocatorIS4_EEEEEEvRT_17TransferMetaFlags
tMg:_UInt32_Parse_m3371984903
p5:__ZN12FileAccessorC2Ev
T5a:__ZN9Transform35SetLocalPositionWithoutNotificationERKN4math7_float3E
JDi:_PatternLinkStack_GetCurrent_m2994645935
ujb:__ZN6Camera8TransferI19StreamedBinaryWriteILb0EEEEvRT_
MIc:__ZN23ColliderTilingExtensionC2Ev
Cui:_AnimatorControllerPlayable_PlayInFixedTime_m2629510873
Vtg:_MethodDictionary_set_Item_m3475146889
aBh:_Toggle_PlayEffect_m3950629415
wae:_SetPropertyUtility_SetStruct_TisColorBlock_t2652774230_m2085520896_gshared
rEb:__Z39WriteQueueForTransferSignatureIntoCacheRK31TransferFunctionScriptingTraitsRK24TransferRequestSignature17ScriptingClassPtrR23CachedSerializationDataRb
Rna:__ZN13RenderManager18UpdateAllRenderersEv
k5c:__ZN22BaseUnityConnectClient30OnEnteringStatePausedOrStoppedEv
NDc:__ZN10ClipperLib7Clipper18SwapPositionsInAELEPNS_5TEdgeES2_
R8i:__ZN13dynamic_arrayIPK10Il2CppTypeLj4EE6assignEPKS2_S5_
bmj:__ZN15dense_hashtableINSt3__24pairIK10KeyWrapperINS1_IPK12PropertyInfoP11Il2CppClassEEEjEES9_17ReflectionMapHashIS8_EN14dense_hash_mapIS9_jSD_NS9_14EqualsComparerINS0_8equal_toIS8_EEEENS0_9allocatorISB_EEE9SelectKeyESI_SK_E12resize_deltaEjj
Qx:__ZN7mecanim5human12HumanPoseAddERNS0_9HumanPoseERKS1_S4_
Wii:_Animator_ResetTrigger_m865269317
vJe:_Collection_1_IsFixedSize_m218241296_gshared
O5a:__Z24MergeTransformComponentsR9TransformS0_b
Fki:_DelegatePInvokeWrapper_AudioConfigurationChangeHandler_t3743753033
O5e:_MonoIO_get_PathSeparator_m2635828107
Waf:_MonoType_get_Name_m865859211
EPd:_CultureInfo__cctor_m2290268677
hkd:_String_Trim_m3982520224
Nwg:_RemotingConfiguration__cctor_m2129988840
MHe:_Collection_1_Insert_m44548038_gshared
vFj:__ZN6il2cpp2vm13ComObjectBase19GetRuntimeClassNameEPP15Il2CppHString__
Sj:_emscripten_glVertexAttribPointer
Zla:__ZN14PreloadManager26UpdatePreloadingSingleStepENS_21UpdatePreloadingFlagsEi
R8g:_Material__ctor_m1440882780
red:_SHA512Managed_Initialize_m891287980
D5h:__Z82RuntimeInvoker_Boolean_t3825574718_Il2CppObject_TextGenerationSettings_t2543476768PK10MethodInfoPvPS2_
_gd:_SecurityException__ctor_m1484114982
nLi:_X509Crl_GetHashName_m183504634
fpd:_Array_GetValue_m1507415734
cic:__Z57Register_UnityEngine_RectTransform_INTERNAL_set_anchorMinv
PVe:_Object_MemberwiseClone_m2655589444
vja:__ZN6prcoreL25inner_stretch_i8_bilinearEPKNS_9InnerInfoE
rS:__ZN11UnityEngine15CloudWebService13WWWRestClient17GetResponseStatusEv
W_g:_MonoMethod_get_IsGenericMethod_m4276550811
vhh:_Transform_1_BeginInvoke_m3826027984_gshared
pR:__ZN11UnityEngine15CloudWebService16SessionContainer24GetSessionHeaderJsonDataERKN4core12basic_stringIcNS2_20StringStorageDefaultIcEEEERNS2_13StringBuilderE
WDd:_Decimal_op_Implicit_m2149927308
P6:__ZN13RuntimeStaticI21AssetReferenceStorageLb0EE13StaticDestroyEPv
gMg:_UInt16_System_IConvertible_ToUInt32_m1864968312
FBj:__ZN6il2cpp6icalls8mscorlib6System9AppDomain22InternalGetProcessGuidEP12Il2CppString
WUc:_cf2_builder_moveTo
Ghf:_KeyPairPersistence_get_UseMachineKeyStore_m560802076
vPh:_Enumerator_System_Collections_IDictionaryEnumerator_get_Entry_m345330700_AdjustorThunk
mZj:_glBindRenderbuffer__wrapper
DKb:__Z18Transfer_BlittableI24GenerateTypeTreeTransferLb1EjEvRK29SerializationCommandArgumentsR31RuntimeSerializationCommandInfo
Mpf:_MD2Managed_Padding_m410163267
ilb:__ZN11ColorRGBA328TransferI14SafeBinaryReadEEvRT_
Ski:_Bounds__ctor_m1202659404_AdjustorThunk
Qf:_emscripten_glClearDepth
xrb:__ZN14SafeBinaryRead21TransferSTLStyleArrayINSt3__26vectorIN15QualitySettings14QualitySettingENS1_9allocatorIS4_EEEEEEvRT_17TransferMetaFlags
D3e:_File_OpenText_m4058508963
eza:__ZN7ApiGLES13CreateTextureEjN2gl9TexFormatEiiiii
c2h:__Z54RuntimeInvoker_Double_t4078015681_Interval_t2354235237PK10MethodInfoPvPS2_
xyb:__ZNSt3__26vectorINS_4pairIPKN5Unity4TypeE7Hash128EENS_9allocatorIS7_EEE8__appendEj
Rxg:_WellKnownClientTypeEntry__ctor_m670594074
uqj:__ZN15dense_hashtableINSt3__24pairIK10KeyWrapperIP11Il2CppClassES4_EES5_N6il2cpp8metadata16SZArrayClassHashEN14dense_hash_mapIS5_S4_SA_NS5_14EqualsComparerINS9_19SZArrayClassCompareEEENS0_9allocatorIS7_EEE9SelectKeyESE_SG_EC2ERKSJ_j
mHd:_DateTime_System_IConvertible_ToSingle_m3927769066_AdjustorThunk
zWc:_cff_font_load
rxf:_RecordProtocol_SendRecord_m2977889250
jcc:__Z13IsPathCreatedRKN4core12basic_stringIcNS_20StringStorageDefaultIcEEEE
zpa:__ZL22stbir__encode_scanlineP11stbir__infoiPvPfiii
NKc:__ZN20QuadTreeNodeRenderer13StaticDestroyEPv
_$b:__ZN9Transform12CleanupClassEv
pKj:__ZN6il2cpp6icalls8mscorlib6System9Threading16NativeEventCalls19CloseEvent_internalE12Il2CppIntPtr
Nt:__ZN11UnityEngine9Animation33SetGenericTransformPropertyValuesERKNS0_30AnimatorGenericBindingConstantERKN7mecanim10ValueArrayEP9Transformb
qtf:_ClientContext_set_ClientHelloProtocol_m2246603449
iOc:_UNITY_FT_Set_Pixel_Sizes
x6d:_U3CMouseDragOutsideRectU3Ec__Iterator1_MoveNext_m2845491958
ZTb:__ZNSt3__26vectorIN9ShaderLab19SerializedSubShaderENS_9allocatorIS2_EEE26__swap_out_circular_bufferERNS_14__split_bufferIS2_RS4_EE
Wej:_AnalyticsTracker_TriggerEvent_m1494303835
kVd:_StandaloneInputModule_IsModuleSupported_m623598506
yrj:__ZN6il2cpp2vmL24thread_cleanup_on_cancelEPv
VBg:_SByte_ToString_m4105923225_AdjustorThunk
ghb:_LZ4_compress_generic
IPd:_CultureInfo_ConstructCurrentUICulture_m3363349599
qsb:__ZN13dynamic_arrayI7SubMeshLj4EE18resize_initializedEjRKS0_12ResizePolicy
Mrg:__ZL75CanvasScaler_t2574720772_CustomAttributesCacheGenerator_m_FallbackScreenDPIP21CustomAttributesCache
taf:_MonoType_GetEvent_m4160342003
ruh:_RawImage_set_texture_m2400157626
m_i:_PrimeHelper_ToPrime_m1606935350_gshared
vlb:__Z30ProcessDynamicBatchGeometryJobP25DynamicVBOGeometryJobDataj
HWa:__ZNSt3__27__sort4IRNS_6__lessI11CulledLightS2_EEPS2_EEjT0_S6_S6_S6_T_
Dhj:__ZN6il2cpp2vm14TypeNameParser26ParseArrayModifierOptionalEv
Tcf:_MSCompatUnicodeTable_Level3_m260824928
c_:__Z26scripting_object_get_class18ScriptingObjectPtr
C$b:__ZNK28MonoBehaviourPropertyBinding15GenerateBindingERKN4core12basic_stringIcNS0_20StringStorageDefaultIcEEEEbRN11UnityEngine9Animation14GenericBindingE
P6g:_GUIStyle_CalcMinMaxWidth_m2027503105
d$e:_Int32_FindExponent_m3187554672
Shf:_KeyPairPersistence_Load_m1355205585
f0e:_Int32_ToString_m2960866144_AdjustorThunk
KTi:_Predicate_1_Invoke_m3539717340_gshared
F_i:_HashSet_1_Contains_m3626542335_gshared
djd:_Single_CompareTo_m2081476257_AdjustorThunk
Eci:__Z57RuntimeInvoker_Int32_t2071877448_RaycastHit2D_t4063908774PK10MethodInfoPvPS2_
TDj:__ZN6il2cpp6icalls8mscorlib6System11Environment15internalGetHomeEv
Ccb:__ZNK5Unity9Component7GetNameEv
Czg:__ZN21InterfaceFuncInvoker4IP12Il2CppObjectS1_P28SerializationInfo_t22898743028StreamingContext_t1417235061S1_E6InvokeEjP11Il2CppClassS1_S1_S3_S4_S1_
$Yi:_ObjectPool_1_Get_m3724675538_gshared
VQa:_UNITY_png_set_error_fn
tAc:__ZNK11b2RopeJoint16GetReactionForceEf
yt:__ZN7mecanim8skeleton26SkeletonPoseComputeGlobalQEPKNS0_8SkeletonEPKNS0_13SkeletonPoseTIN4math4trsXEEEPS7_ii
awc:__ZN8JSONRead21TransferSTLStyleArrayI13dynamic_arrayIfLj4EEEEvRT_18MemLabelIdentifier17TransferMetaFlags
pxe:_List_1_GetEnumerator_m2672519407_gshared
Zs:__ZN9BlobWrite8TransferI22OffsetPtrArrayTransferIiEEEvRT_PKc17TransferMetaFlags
Ecf:_ContractionComparer_Compare_m314873025
vGj:__ZN6il2cpp6icalls8mscorlib6System7Runtime15InteropServices8GCHandle15GetTargetHandleEP12Il2CppObjectii
B7g:_GUIUtility_EndGUIFromException_m2091524531
x0e:_Int64_System_IConvertible_ToDouble_m638786774
iK:__ZN4FMOD6System7releaseEv
T4:__Z18PathToAbsolutePathRKN4core12basic_stringIcNS_20StringStorageDefaultIcEEEE
Doe:_Enumerator_MoveNext_m3078170540_AdjustorThunk
drb:__ZNK8Renderer26GetTypeInfoVirtualInternalEv
PHc:__ZThn160_N17PolygonCollider2D5ResetEv
Kni:_Color_Lerp_m3323752807
Igc:__Z22Mesh_CUSTOM_HasChannelP12Il2CppObject30InternalScriptingShaderChannel
z5b:__ZN15DirectorManager17AcquireOutputNodeEv
Sw:__ZN8Playable11SetDurationEd
wGa:__ZN16GeometryJobTasks20ScheduleGeometryJobsER9GfxDevicePFvP15GeometryJobDataEPK22GeometryJobInstructionjb
t6g:_GUIUtility_Internal_GetHotControl_m2510727642
jI:__ZN12AudioManager29ShutdownReinitializeAndReloadEv
PIi:_NetscapeCertTypeExtension_Decode_m2210025005
Leh:_RectTransform_GetLocalCorners_m1836626405
_xg:_BaseFixupRecord_DoFixup_m1821597450
o$i:__ZN15dense_hashtableINSt3__24pairIK10KeyWrapperIPK22Il2CppGenericParameterEP11Il2CppClassEES6_N6il2cpp5utils11PointerHashIS4_EEN14dense_hash_mapIS6_S9_SE_NS6_14EqualsComparerINS0_8equal_toIS5_EEEENS0_9allocatorISA_EEE9SelectKeyESJ_SL_E6insertERKSA_
H3e:_FileLoadException__ctor_m1356374414
Pza:__ZN14DataBufferGLES16RecreateWithDataEjPKv
Ibc:__Z29GetGlobalAllowNameConversionsv
M6a:__ZN8Material8SetColorEN9ShaderLab16FastPropertyNameERK10ColorRGBAf
eZg:_Module_GetCustomAttributes_m3581287913
bM:__ZN11AudioSource23VirtualRedirectTransferER18StreamedBinaryReadILb0EE
vd:___syscall91
U6:__ZN21AssetReferenceStorageC2Ev
sLc:__ZNSt3__26vectorIN4core12basic_stringIcNS1_20StringStorageDefaultIcEEEE13stl_allocatorIS5_L18MemLabelIdentifier34ELi16EEEC2INS_11__wrap_iterIPS5_EEEET_SE_RKS8_PNS_9enable_ifIXaasr21__is_forward_iteratorISE_EE5valuesr16is_constructibleIS5_NS_15iterator_traitsISE_E9referenceEEE5valueEvE4typeE
R_:__ZL41AssemblyNameMatchesWithOrWithoutExtensionPKcS0_
HEc:__ZN23ColliderTilingExtension5ResetEv
eEa:__ZN14GfxContextGLES43AddRenderSurfaceToDeferredFBOInvalidateListEPK17RenderSurfaceGLES
wsj:__ZN6il2cpp6icalls8mscorlib6System9Threading6Thread15Thread_internalEP12Il2CppThreadP14Il2CppDelegate
bfa:__ZN11NamedObject23VirtualRedirectTransferER14SafeBinaryRead
YNc:__ZNSt3__26vectorIN20TextRenderingPrivate8FontImpl13CharacterInfoE13stl_allocatorIS3_L18MemLabelIdentifier1ELi16EEE6insertENS_11__wrap_iterIPKS3_EERS9_
hma:__ZN23PreloadManagerOperation6IsDoneEv
Dcj:__ZN6il2cpp2vm7Runtime15InvokeWithThrowEPK10MethodInfoPvPS5_
xlf:_X509Certificate_get_RawData_m3000055075
g6b:__Z33GetHasChangedDeprecatedSystemMaskv
XAj:__ZN6il2cpp5utils11StringUtils11Utf16ToUtf8ERKNSt3__212basic_stringIDsNS2_11char_traitsIDsEENS2_9allocatorIDsEEEE
W2e:_MonoIO_GetException_m2577367044
jQh:_Enumerator_VerifyState_m1165543189_AdjustorThunk
UHd:_DateTime_AddSeconds_m722082155_AdjustorThunk
axd:_SynchronizedArrayListWrapper_CopyTo_m956887031
v9i:__ZNSt3__213__lower_boundIRN6il2cpp5utils11collections13ArrayValueMapIPK10Il2CppType17Il2CppInteropData26InteropDataToTypeConverterNS1_8metadata14Il2CppTypeLessENSA_26Il2CppTypeEqualityComparerEE22LowerBoundFindComparerEPKS8_S7_EET0_SI_SI_RKT1_T_
Dqa:__ZN21LightProbeProxyVolume18HasHardwareSupportEv
HFc:__ZNK20b2SeparationFunction17FindMinSeparationEPiS0_f
qja:__ZN6prcoreL31inner_stretch_argb8888_bilinearEPKNS_9InnerInfoE
KNb:__Z18Transfer_BlittableI18StreamedBinaryReadILb1EELb1E8BitFieldEvRK29SerializationCommandArgumentsR31RuntimeSerializationCommandInfo
BQc:_UNITY_FT_Outline_Decompose
Cvf:_TlsClientCertificate_get_ClientCertificate_m3062440489
Cgd:_StrongNamePublicKeyBlob_ToString_m3721281223
yFh:_InternalEnumerator_1_get_Current_m198513457_AdjustorThunk
tUa:__Z20scripting_object_new17ScriptingClassPtr
fS:__ZN11UnityEngine15CloudWebService10RestClientINS0_16WWWRestHeaderMapEED2Ev
Ekc:__Z58Register_UnityEngine_Object_Internal_CloneSingleWithParentv
qE:__Z75AnimatorControllerPlayable_CUSTOM_INTERNAL_CALL_GetAnimatorClipInfoInternalP12Il2CppObjectR9HPlayableihS0_
Ysc:__ZN9JSONWrite8TransferI13dynamic_arrayI8BitFieldLj4EEEEvRT_PKc17TransferMetaFlags
X_a:__ZN18ShadowMapJobHeaderD0Ev
o0d:_Graphic_OnRectTransformDimensionsChange_m1610753363
TFd:_Convert_ToUInt16_m3265369225
P:Math_exp
_9e:_MonoEnumInfo_get_Cache_m3551569711
Ko:FUNCTION_TABLE_iiifi
QAj:__ZN6il2cpp2os5posix13PosixAutoLockD2Ev
h9d:_Array_InternalArray__ICollection_Contains_TisVector3_t2243707580_m3625701788_gshared
Msa:__ZNSt3__26vectorINS_4pairIyP17VertexDeclarationEENS_9allocatorIS4_EEE6insertENS_11__wrap_iterIPKS4_EERS9_
JUc:_cff_get_advances
B4a:__ZN13MonoBehaviour9SetScriptERK4PPtrI10MonoScriptE18ScriptingObjectPtr
hQc:_UNITY_FT_Create_Class_sfnt_module_class
nsi:_AnimatorControllerPlayable_SetFloatString_m3937146789
mKd:_Decimal_IsZero_m3557909184_AdjustorThunk
Gud:_Char_ToString_m1401375624
Wad:_MD5CryptoServiceProvider__cctor_m3309191799
PX:__ZNK10FileSystem16LastErrorMessageEv
AGj:__ZNK6il2cpp8metadata14Il2CppTypeLessclEPK10Il2CppTypeS4_
Oyi:_ConfigHandler_ReadCustomProviderData_m784203316
oqe:_Enumerator_System_Collections_IEnumerator_Reset_m3052395060_gshared
n9c:__ZN22UnityWebRequestManager10InitializeEv
Vnf:_Kernel_DwordDivMod_m3728402123
$Cb:__ZN13MonoBehaviour13AwakeFromLoadE17AwakeFromLoadMode
p1c:__ZZN2UI14CanvasRenderer15InitializeClassEvEN38FunctorImpl_810kCanvasHierarchyChanged4CallEPviR11MessageData
bJb:__ZL26Transfer_SimpleNativeClassI17RemapPPtrTransfer8GradientLb1EEvRK29SerializationCommandArgumentsR31RuntimeSerializationCommandInfo
u6b:__ZN12CachedWriter9InitWriteER15CacheWriterBase
a5b:__Z21UnsignedInt64ToStringy
XFg:_UTF7Decoder__ctor_m549434986
Fch:_Quaternion_ToString_m2638853272
OLh:_InternalEnumerator_1_get_Current_m1025321669_AdjustorThunk
ehc:__Z36MonoBehaviour_CUSTOM_InvokeRepeatingP12Il2CppObjectP12Il2CppStringff
fkc:__Z66Register_UnityEngine_Transform_INTERNAL_CALL_InverseTransformPointv
wLi:_X509Crl_VerifySignature_m1390212587
EJf:_Group__ctor_m4103922028
kRa:__ZN6Camera26ClearIntermediateRenderersEj
wQa:_UNITY_png_write_pCAL
a1j:_glLinkProgram__wrapper
Xja:__ZN6prcoreL12RemapGenericI17TexFormatARGB888815TexFormatBGR888EEvPKNS_9InnerInfoE
abd:_MD5CryptoServiceProvider_ProcessFinalBlock_m1052610785
sE:__Z79AnimatorControllerPlayable_CUSTOM_INTERNAL_CALL_GetNextAnimatorClipInfoInternalR9HPlayablei
qxd:_BitArray_Set_m2878881714
NZe:_Guid_CompareTo_m2203922782_AdjustorThunk
dyh:_Selectable_get_colors_m3501193396
twj:__ZN6il2cpp6icalls8mscorlib6System13Globalization11CultureInfo35construct_internal_locale_from_nameEP17Il2CppCultureInfoP12Il2CppString
uSh:__Z58RuntimeInvoker_Il2CppObject_Int32_t2071877448_Il2CppObjectPK10MethodInfoPvPS2_
PKb:__ZL22Transfer_ManagedObjectI24GenerateTypeTreeTransferLb1EEvRK29SerializationCommandArgumentsR31RuntimeSerializationCommandInfo
hAi:_ContextAttribute_Equals_m53324298
qmi:_Canvas_ForceUpdateCanvases_m2446828475
$j:_emscripten_set_main_loop_timing
MPg:_WeakReference_AllocateHandle_m1783929473
Kza:__ZN14DataBufferGLES12RecordRenderEv
e6a:__ZN14ImageReference10FlipImageYEv
opi:_DebugLogHandler_LogFormat_m177245518
Nmc:__Z14GetDefaultSkini
IF:__ZN4FMOD3DSP9setBypassEb
dbb:__Z19NormalizeWheelInputf
p9d:_Array_InternalArray__ICollection_Remove_TisLink_t865133271_m1984184141_gshared
bwc:__Z29Transfer_Blittable_ArrayFieldI8JSONReadhEvRT_R9ArrayInfoRK23StaticTransferFieldInfo
G7d:_LayoutRebuilder_IsDestroyed_m3442208294
G9b:__ZN11MonoManager25GetImageFromAssemblyIndexEi
BNj:__ZN6il2cpp2os20ThreadLocalValueImpl8SetValueEPv
IRa:__ZN22RenderingCommandBuffer20CleanupCommandBufferEv
Hrc:__Z18Transfer_BlittableI9JSONWriteLb1EtEvRK29SerializationCommandArgumentsR31RuntimeSerializationCommandInfo
I3e:_FileLoadException__ctor_m918124939
rk:___syscall85
ATa:__ZNSt3__26__sortIRPFbP10GUIElementS2_EPS2_EEvT0_S7_T_
Cof:_SequentialSearchPrimeGeneratorBase_GenerateSearchBase_m2930465198
N3b:__ZN16GraphicsSettings12CleanupClassEv
$L:__ZNK11AudioSource26GetTypeInfoVirtualInternalEv
J$i:__ZN6il2cpp2vmL21SetupInterfacesLockedEP11Il2CppClassRKNS_2os12FastAutoLockE
VEb:__ZN11MonoManager23VirtualRedirectTransferER24GenerateTypeTreeTransfer
rA:__ZN23AnimationPlayableOutput17SetSourcePlayableEP8Playable
eJf:_Capture__ctor_m885749277
S5g:_GUIStyle_set_clipOffset_m3871613343
y3d:_SubmitEvent__ctor_m222860306
Yi:_emscripten_glUniformMatrix4fv
lR:__ZN11UnityEngine15CloudWebService14DataDispatcher15SetupWebRequestEv
iZh:__Z94RuntimeInvoker_Int32_t2071877448_Il2CppObject_Int32_t2071877448_Il2CppObject_Int32_t2071877448PK10MethodInfoPvPS2_
S7e:_TextWriter__cctor_m4047845042
d6c:__ZN11UnityEngine15PlatformWrapper13GetShaderCapsEv
a0a:__ZNSt3__211__sift_downIR26RenderDeferredObjectSorterP16RenderObjectDataEEvT0_S5_T_NS_15iterator_traitsIS5_E15difference_typeES5_
S3d:_InputField_CaretBlink_m3960486606
bk:_emscripten_glGetProgramiv
qif:_SmallXmlParser_ReadCharacters_m1966365555
xzf:_InternalAsyncResult_get_CompletedWithError_m3993955322
w4b:__ZN21FixedBehaviourManager6UpdateEv
Xbc:__ZN9Transform9SetParentEPS_NS_15SetParentOptionE
VOe:_ReadOnlyCollection_1_System_Collections_IList_Add_m527174473_gshared
i0:__ZN19ShaderPropertySheet8SetFloatEN9ShaderLab16FastPropertyNameEfNS_8SetFlagsE
lpg:__ZL68InputField_t1631627530_CustomAttributesCacheGenerator_m_AsteriskCharP21CustomAttributesCache
tna:__ZN19RuntimeSceneManager24BeginIntegrateMainThreadEP10UnityScene
J0h:__Z80RuntimeInvoker_Void_t1841601450_Il2CppObject_Int32_t2071877448_Int16_t4041245914PK10MethodInfoPvPS2_
mDj:__ZNSt3__2plIcNS_11char_traitsIcEENS_9allocatorIcEEEENS_12basic_stringIT_T0_T1_EERKS9_S6_
J8e:_LocalDataStoreSlot__cctor_m1192669356
FTb:__ZN9ShaderLab20SerializedSubProgramaSERKS0_
xTj:_roundf
Tld:_String_CreateString_m2556700934
Dib:__ZN18StreamedBinaryReadILb0EE21TransferSTLStyleArrayINSt3__26vectorI17SortingLayerEntryNS2_9allocatorIS4_EEEEEEvRT_17TransferMetaFlags
_r:__ZN8Animator15SetPrepareStageEv
yzh:_Slider_get_axis_m162140813
K$i:__ZN6il2cpp2vmL24SetupTypeHierarchyLockedEP11Il2CppClassRKNS_2os12FastAutoLockE
kbb:__ZL11TextHandleriPK23EmscriptenKeyboardEventPv
lZa:__Z20CalculateLightMatrixRK15SharedLightDataP10Matrix4x4f
Wxh:_ScrollRect_SetLayoutHorizontal_m3486408020
wNc:_destroy_face
Sri:_AnimationOffsetPlayable_INTERNAL_CALL_GetPosition_m602003518
KKj:__ZN6il2cpp6icalls8mscorlib6System8Security12Cryptography24RNGCryptoServiceProvider13RngInitializeEP11Il2CppArray
gDf:_IPAddress__cctor_m3624830012
kM:__ZN20SoundChannelInstance7setMuteEb
ycg:__ZL115AnimatorStateInfo_t2577870592_CustomAttributesCacheGenerator_AnimatorStateInfo_t2577870592____nameHash_PropertyInfoP21CustomAttributesCache
_Ef:_AsnEncodedData_EnhancedKeyUsageExtension_m1452131166
FOb:__Z19TransferField_ArrayI18StreamedBinaryReadILb1EE27Converter_SimpleNativeClassI17AnimationCurveTplIfEEEvRK23StaticTransferFieldInfoR31RuntimeSerializationCommandInfoRT0_
KIc:__ZN7b2World18SetContactListenerEP17b2ContactListener
sAa:__ZN18GfxFramebufferGLES22MakeCurrentFramebufferENS_7BuiltinE
kKf:_Interpreter_Close_m1500459069
vk:_JS_SystemInfo_GetWidth
Wpa:__ZN12CachedReader4ReadEPvj
dVc:_cf2_blues_init
CFh:_InternalEnumerator_1_System_Collections_IEnumerator_get_Current_m3600601141_gshared
Hdd:_SHA1Internal_HashFinal_m3188468925
_Qi:_Vector3_op_Inequality_m799191452
lud:_Char_GetHashCode_m2343577184
DYa:__Z24CalculateLightShadowFadeRK6CamerafffR8Vector4f
H1:__ZN19RuntimeSceneManagerD2Ev
Uxi:_ChannelData_get_CustomProperties_m1470957369
pja:__ZN6prcore17GetIntegerBlitterE13TextureFormatS0_N14ImageReference8BlitModeE
Gli:_Camera_INTERNAL_CALL_ScreenPointToRay_m2752248646
qlj:__ZN6il2cpp2gc19AppendOnlyGCHashMapINSt3__24pairIPK11Il2CppImageP11Il2CppClassEEP22Il2CppReflectionModule17ReflectionMapHashIS9_ENS2_8equal_toIS9_EEE11TryGetValueERKS9_PSB_
fgh:_Enumerator_VerifyState_m3173176371_AdjustorThunk
kCf:_TypeConverterAttribute__cctor_m506796812
Hbc:__ZN9BlobWrite14ReduceCopyImplERK14ReduceCopyDataj
dOh:_Comparer_1_System_Collections_IComparer_Compare_m1790257529_gshared
LAc:__ZNK12b2WheelJoint10GetAnchorAEv
dYj:_glShaderSource__wrapper
MKa:__ZN25MultiBlocksMemoryFileData17AdjustBlocksCountEj
atj:__ZNSt3__214__split_bufferIN6il2cpp2vm22EmbeddedResourceRecordERNS_9allocatorIS3_EEED2Ev
xtf:_TlsClientHello__ctor_m1699671541
BLc:__ZN13TextRendering4Font8TransferI24GenerateTypeTreeTransferEEvRT_
Czi:_Context_NotifyGlobalDynamicSinks_m2916447645
tNa:__ZN23ManagedAttributeManager15InitializeClassEv
gec:__Z27CullingGroup_CUSTOM_DisposeP12Il2CppObject
Hch:_Random_Range_m2884721203
psj:__ZN6il2cpp6icalls8mscorlib6SystemL23CheckWideningConversionEjjj
dSa:__ZN13ComputeShader15SetTextureParamEjRKN9ShaderLab16FastPropertyNameE9TextureID16TextureDimension
Pyh:_Shadow_set_effectDistance_m1951993364
P2g:_GUILayoutEntry_ApplyStyleSettings_m371609721
gmh:_Dictionary_2_ContainsKey_m416495915_gshared
Bm:_glStencilMask
HCj:__ZN6il2cpp2os10ThreadImpl16GetCurrentThreadEv
juf:_TlsServerHelloDone__ctor_m2125611008
Xyd:_Hashtable__ctor_m2337481811
Mfh:_Enumerator_System_Collections_IEnumerator_get_Current_m2010873149_gshared
lrg:__ZL74SpriteState_t1353336012_CustomAttributesCacheGenerator_m_HighlightedSpriteP21CustomAttributesCache
uwg:_RealProxy__ctor_m2505535530
bIj:_GC_push_conditional_with_exclusions
dNg:_UInt32_System_IConvertible_ToUInt16_m2798641702_AdjustorThunk
vyg:_BinaryFormatter_get_DefaultSurrogateSelector_m219714691
z$g:_MonoProperty_GetOptionalCustomModifiers_m3827844355
zdf:_SimpleCollator_GetSortKey_m2188419329
dsg:__ZL56LayoutElement_t2808691390_CustomAttributesCacheGeneratorP21CustomAttributesCache
Qhc:__Z33Register_UnityEngine_Random_Rangev
wmb:__ZN14RenderSettings27UpdateIndirectSpecularColorEv
hzb:__ZN14PlayerSettings8TransferI18StreamedBinaryReadILb0EEEEvRT_
cej:__ZN6il2cpp6icalls8mscorlib6System8MonoType16GetMethodsByNameEP20Il2CppReflectionTypeP12Il2CppStringibS5_
Fwi:_GCHandle__ctor_m2952050298
Xsh:_Mask_IsRaycastLocationValid_m62488857
F$:__ZN17DirectorFrameTime10SampleTimeEfff
Rsa:__ZNSt3__27__sort3IRNS_4lessIN22BuiltinResourceManager8ResourceEEEPS3_EEjT0_S7_S7_T_
rNh:_DefaultComparer_Compare_m3472472212_gshared
g4e:_MonoIO_GetLength_m2812344043
NTc:_ps_hints_t2mask
jF:__Z110Register_UnityEngine_Experimental_Director_AnimatorControllerPlayable_INTERNAL_CALL_GetParametersArrayInternalv
Yub:__ZN10BlendShape8TransferI19StreamedBinaryWriteILb0EEEEvRT_
Vui:_PlayableHandle_INTERNAL_CALL_IsValidInternal_m2792360706
EPi:_Transform_IsChildOf_m10844547
A1e:__Z21il2cpp_codegen_sizeofP11Il2CppClass
nba:__Z19GetTimeSinceStartupv
lid:_SecurityFrame_get_Assembly_m2816566490
cZc:_TT_Load_Composite_Glyph
JRi:_NetFxCoreExtensions_CreateDelegate_m2492743074
fRh:__Z51RuntimeInvoker_Boolean_t3825574718_Int64_t909078037PK10MethodInfoPvPS2_
Gpd:_Array_Sort_m2994254654
uCe:_List_1__ctor_m593058937_gshared
ZWa:__ZN29RenderNodeQueuePrepareContextC2Ev
XN:__ZN10SampleClipC2E18MemLabelIdentifier18ObjectCreationMode
DUb:__ZN9ShaderLab20SerializedSubProgram16TextureParameter8TransferI24GenerateTypeTreeTransferEEvRT_
nMj:__ZN6il2cpp2os11MutexHandle4WaitEj
Cac:__ZL34GetComponentsImplementationRecurseILb1ELi1ELi1EEbR10GameObjectbRK17CompareParametersRK39GetComponentsImplementation_ReturnValue
mMj:__ZN6il2cpp2os11MutexHandle4WaitEv
avd:_ArrayList_set_Capacity_m592558035
ela:__ZN6prcoreL17RemapGenericFloatI15TexFormatRGHalf18TexFormatARGBFloatEEvPKNS_9InnerInfoE
$Qa:__ZN13RenderManager23AddRemoveCamerasDelayedEv
yQa:_UNITY_png_write_pHYs
J9d:_Array_InternalArray__ICollection_Remove_TisILTokenInfo_t149559338_m1523907845_gshared
a4c:__ZN11UnityEngine9Analytics15AnalyticsConfigC2Ev
yoi:_ContactFilter2D_CheckConsistency_m1391185667
_Zi:_Enumerator_CheckState_m1761755727_gshared
ozd:_Hashtable_Rehash_m2877670513
x3a:__ZN13RenderTexture8SetWidthEi
Q5d:_InputField_Insert_m1593238693
eZc:_UNITY_FT_GlyphLoader_CheckSubGlyphs
Ebj:__ZN6il2cpp2vm21ThreadPoolCompartment20SpawnNewWorkerThreadEv
Hee:_Array_InternalArray__ICollection_Add_TisCustomAttributeTypedArgument_t1498197914_m3260005285_gshared
fZa:__Z25SetupObjectBakedOcclusionbRK15SharedLightDataRK26SharedLightmapSettingsDataRK15LightmapIndicesR17ShaderPassContext
dAd:_SyncHashtable_GetObjectData_m3774367030
QZe:_Guid_GetHashCode_m1401300871
xpc:__Z42Register_UnityEngine_GUIStyle_set_fontSizev
ks:__ZN8Animator9BuildJobsERK13dynamic_arrayIP14PlayableOutputLj4EERS0_INS_11AnimatorJobELj4EEPS7_bb
J$:__ZN9ShaderLab16FastPropertyName4InitEPKc
V_b:__Z13RegisterClassIN2UI13RectTransformEEvv
Xcf:_MSCompatUnicodeTable_ToWidthCompat_m2299599532
L_i:__ZN13Il2CppHashMapIPK22Il2CppGenericParameterP11Il2CppClassN6il2cpp5utils11PointerHashIS1_EENSt3__28equal_toIS2_EENS9_9allocatorINS9_4pairIK10KeyWrapperIS2_ES4_EEEEEC2EjRKS8_RKSB_
Jbf:_NumberFormatter_get_IsFloatingSource_m2830957202
zsb:__ZN10VertexData8TransferI17RemapPPtrTransferEEvRT_
Pca:__ZN13RenderTexture9SetMipMapEb
Wwh:_ScrollRect_set_verticalScrollbarSpacing_m2356851539
RZ:__Z18GetDirectorManagerv
qcf:_OperatingSystem_GetObjectData_m2276196875
aib:__ZNK10TagManager26GetTypeInfoVirtualInternalEv
QBb:__ZN21ArchiveStorageCreator13AppendRawNodeERKN4core12basic_stringIcNS0_20StringStorageDefaultIcEEEEN20ArchiveStorageHeader9NodeFlagsEyy
Ejc:__Z38Transform_CUSTOM_INTERNAL_get_rotationP12Il2CppObjectP11Quaternionf
lij:__ZNSt3__26vectorIN6il2cpp2vm17TypeNameParseInfoENS_9allocatorIS3_EEE8allocateEj
iui:_AnimatorControllerPlayable_CrossFadeInFixedTime_m1082259778
flj:__ZNK15dense_hashtableINSt3__24pairIK10KeyWrapperINS1_IPK10MethodInfoP11Il2CppClassEEEjEES9_17ReflectionMapHashIS8_EN14dense_hash_mapIS9_jSD_NS9_14EqualsComparerINS0_8equal_toIS8_EEEENS0_9allocatorISB_EEE9SelectKeyESI_SK_E5beginEv
GCa:__ZN7ApiGLES19UploadBufferSubDataEjN2gl12BufferTargetEllPKv
Hjd:_String_System_IConvertible_ToInt32_m1927223638
dae:_Array_InternalArray__ICollection_Remove_TisContentType_t1028629049_m3085152315_gshared
fmi:_Canvas_set_sortingOrder_m2922819993
uXi:__ZL18div128DecadeFactorPyS_i
Ild:_ASCIIEncoding__ctor_m4127831672
GGb:__Z19TransferField_ArrayI14SafeBinaryRead27Converter_SimpleNativeClassI8GUIStyleEEvRK23StaticTransferFieldInfoR31RuntimeSerializationCommandInfoRT0_
eGg:_UTF8Encoding__ctor_m3336862259
VKj:__ZN6il2cpp5utils10MemoryPoolC2Ej
tHf:_X509Chain_GetAuthorityKeyIdentifier_m2607407678
RKj:__ZN6il2cpp5utils10MemoryPoolC2Ev
Ylb:__ZN14RenderSettings5ResetEv
wtj:__ZNSt3__212basic_stringIDsNS_11char_traitsIDsEENS_9allocatorIDsEEE6appendEPKDsj
hVh:__Z117RuntimeInvoker_Int32_t2071877448_Il2CppObject_Il2CppObject_Int32_t2071877448_Int32_t2071877448_BooleanU26_t3168250738PK10MethodInfoPvPS2_
IKh:_InternalEnumerator_1_get_Current_m3724267862_AdjustorThunk
_ke:_Dictionary_2_Do_ICollectionCopyTo_TisKeyValuePair_2_t3716250094_m1740410536_gshared
I1g:_GUI_CallWindowDelegate_m2039577415
rCj:__ZN6il2cpp2os10ThreadImplD2Ev
wjf:_RSAManaged_Dispose_m3018788098
Mzc:__ZN12b2MouseJoint23InitVelocityConstraintsERK12b2SolverData
xqc:__ZN8Gradient8TransferI9JSONWriteEEvRT_
Kbb:__ZNK12TLSAllocatorI14StackAllocatorE22GetAllocatedMemorySizeEv
qTf:__ZL54AssemblyName_t894705941_CustomAttributesCacheGeneratorP21CustomAttributesCache
eGd:_Convert_ToUInt32_m3394039268
G5a:__ZN17RemapPPtrTransfer12PushMetaFlagE17TransferMetaFlags
BLa:__ZN12HandlerChain4NameEv
Ixb:__ZNSt3__26vectorI9InputAxisNS_9allocatorIS1_EEE10deallocateEv
O_e:_Int16_Equals_m3925135434_AdjustorThunk
w2c:__Z44Register_UnityEngine_CanvasRenderer_get_cullv
$Qf:__ZL60IHashCodeProvider_t1980576455_CustomAttributesCacheGeneratorP21CustomAttributesCache
p$b:__ZN13ProduceHelperI13MonoBehaviourLb0EE7ProduceE18MemLabelIdentifier18ObjectCreationMode
Epe:_Enumerator_VerifyState_m1677639504_AdjustorThunk
Hsf:_CipherSuiteCollection_get_Item_m280627160
mFb:__Z44InitializeTransferFunctionScriptingTraitsForI17RemapPPtrTransferEvR31TransferFunctionScriptingTraits
Ovg:_SerializationInfoEnumerator_MoveNext_m1876990879
wJg:_TimeSpan_Duration_m4205681645
d7a:__ZN14UnityWebStream24UpdateAllUnityWebStreamsEv
DPf:__ZL60ObsoleteAttribute_t3878847927_CustomAttributesCacheGeneratorP21CustomAttributesCache
tHi:_Uri_ParseAsWindowsAbsoluteFilePath_m1108586962
dge:_Array_InternalArray__ICollection_CopyTo_TisRaycastHit2D_t4063908774_m3837098618_gshared
rna:__ZN18LoadSceneOperation21MustCompleteNextFrameEv
NK:__ZNK12AudioManager16GetAudioListenerEv
kSd:_EventTrigger_OnScroll_m626934407
F5f:__ZL48Camera_t189460977_CustomAttributesCacheGeneratorP21CustomAttributesCache
S2a:__ZNSt3__26vectorI11CameraStackNS_9allocatorIS1_EEE8__appendEj
OBc:__ZNK11Rigidbody2D20GetAttachedCollidersER13dynamic_arrayIP10Collider2DLj4EE
Z4d:_InputField_OnDisable_m1865339380
aNg:_UInt32_System_IConvertible_ToType_m747769316
Bx:__ZN7mecanim9animation12GetHumanPoseERKNS0_18ClipMuscleConstantEPKNS0_10ValueDeltaERNS_5human9HumanPoseE
Wlj:__ZN6il2cpp2vm10Reflection17GetPropertyObjectEP11Il2CppClassPK12PropertyInfo
M3c:__ZN11UnityEngine9Analytics15UserCustomEvent12CustomParams6InsertEPKcRNS1_11CustomValueE
DZj:_glDeleteVertexArrays__wrapper
DX:__Z13GetFileSystemv
g6:__ZNK5Unity4Type21FindAllDerivedClassesER13dynamic_arrayIPKS0_Lj4EENS0_17TypeFilterOptionsE
$6:__ZN13RuntimeStaticI15GUIEventManagerLb0EE16StaticInitializeEPv
Hwb:__ZN14SafeBinaryRead8TransferIfEEvRT_PKc17TransferMetaFlags
KXe:_DaylightTime_get_Delta_m2316831491
eGc:__ZNSt3__27__sort5IR24RayHitsByDepthComparitorP12RaycastHit2DEEjT0_S5_S5_S5_S5_T_
e9d:_Array_InternalArray__ICollection_Contains_TisUILineInfo_t3621277874_m1175659630_gshared
MIg:_WaitHandle_WaitOne_m370363697
zJf:_FactoryCache_Lookup_m1681894361
mId:_DateTime_Subtract_m698282245_AdjustorThunk
owb:__ZThn32_N14SpriteRenderer15AddAsRenderNodeER15RenderNodeQueueRK20DeprecatedSourceData
qSa:__ZN19ShaderPropertySheet9SetMatrixEN9ShaderLab16FastPropertyNameERK10Matrix4x4fNS_8SetFlagsE
_bd:_RIPEMD160Managed_Initialize_m3365407578
Aob:__Z29GetTextureSizeAllowedMultiple13TextureFormat
fDf:_IPAddress_HostToNetworkOrder_m1092199707
Iae:_SetPropertyUtility_SetStruct_TisSpriteState_t1353336012_m2898060836_gshared
pgd:_SecurityAttribute__ctor_m3425755778
V4b:__ZN21IntermediateRenderers3AddEP20IntermediateRenderer
Efj:_il2cpp_array_element_size
bg:_glCheckFramebufferStatus
Wbe:_Array_compare_TisInt32_t2071877448_m840310202_gshared
QMh:_InternalEnumerator_1_System_Collections_IEnumerator_get_Current_m442726479_AdjustorThunk
dDg:_DESTransform_ECB_m2629024873
qLh:_InternalEnumerator_1_System_Collections_IEnumerator_get_Current_m790514740_AdjustorThunk
Hld:__Z37il2cpp_codegen_get_executing_assemblyPK10MethodInfo
ade:_Array_InternalArray__IndexOf_TisByte_t3683104436_m3605266236_gshared
h7g:_GUIStyle_set_richText_m1853532836
_uh:_RaycastAllCallback_Invoke_m981876639
TEg:_UnicodeEncoding__ctor_m72484327
uvj:__ZN14dense_hash_mapI10KeyWrapperIP14Il2CppIUnknownEjN6il2cpp5utils11PointerHashIS1_EENS3_14EqualsComparerINSt3__28equal_toIS2_EEEENS9_9allocatorINS9_4pairIKS3_jEEEEE15set_deleted_keyERSF_
L6:__ZN22BuiltinResourceManager16StaticInitializeEPv
NWe:_NumberFormatter_ScaleOrder_m1915154678
tyc:__ZN24b2ChainAndCapsuleContact8EvaluateEP10b2ManifoldRK11b2TransformS4_
Cuf:_ClientSessionInfo_SetContext_m2649357891
F$e:_Int32_System_IConvertible_ToInt64_m3790029067_AdjustorThunk
ORd:_RaycasterManager_GetRaycasters_m1154876874
Pzf:_SslStreamBase_InternalReadCallback_m2524917586
J5:__ZN8Remapper6RemoveEi
Due:_List_1_CheckCollection_m2608305187_gshared
dOc:__ZL36CleanupTextRenderingScriptingClassesv
t3a:__ZN15ReflectionProbe17UseRendererResultEP13ProbeRenderer
mpd:_Array_BinarySearch_m3270245097
Ggc:__Z34Mesh_CUSTOM_SetArrayForChannelImplP12Il2CppObject30InternalScriptingShaderChannel34InternalScriptingVertexChannelTypeiP11Il2CppArrayi
u3e:_MonoIO_DeleteFile_m3273821223
Hef:_BigInteger_GenerateRandom_m2507308768
cHd:_DateTime_System_IConvertible_ToDouble_m1431748426_AdjustorThunk
Ndi:__Z76RuntimeInvoker_Void_t1841601450_Int32_t2071877448_ContactPoint2D_t3659330976PK10MethodInfoPvPS2_
S8d:_Array_InternalArray__ICollection_Contains_TisUInt16_t986882611_m510319131_gshared
ehe:_Array_InternalArray__Insert_TisRaycastHit2D_t4063908774_m3174907903_gshared
CKd:_Decimal_ToString_m541380585
Wfj:_il2cpp_class_is_valuetype
V8c:__ZZN18UnityConnectClient23RegisterGlobalCallbacksEvEN41EarlyUpdateUnityConnectClientUpdatestruct7ForwardEv
NB:__ZN11UnityEngine9Animation28GenericAnimationBindingCache25RegisterIAnimationBindingEPKN5Unity4TypeEiP17IAnimationBinding
ZE:__Z106Register_UnityEngine_Experimental_Director_AnimatorControllerPlayable_INTERNAL_CALL_GetLayerWeightInternalv
A2c:__Z70RectTransformUtility_CUSTOM_INTERNAL_CALL_RectangleContainsScreenPointP12Il2CppObjectRK13Vector2fIcallS0_
GNd:_Enum_ToObject_m2601523252
$Tj:dynCall_viiffiii
FVa:__Z20RenderSceneDepthPassRK19SharedRendererSceneRK17ShaderReplaceDatabR17ShaderPassContext
u3c:__ZN14UnityAnalytics25UnregisterGlobalCallbacksEv
w1a:__Z40ProcessCameraIndexListIsNodeVisibleInOutRK22SceneCullingParametersPK9SceneNodePK4AABBR9IndexList
Ykb:__ZN16GraphicsSettings8TransferI17RemapPPtrTransferEEvRT_
B6e:_StreamReader__ctor_m2654332332
_$c:__ZN2UI6Canvas13UpdateBatchesEb
dFc:__ZN17PolygonCollider2D15TransformPointsERK13dynamic_arrayI8Vector2fLj4EERK10Matrix4x4fRKS1_fP6b2Vec2
vaf:_MonoType_GetFields_internal_m2022019979
Jse:_List_1_CheckCollection_m3968030679_gshared
xEg:_StringBuilder_ToString_m617673931
C6c:__ZN11UnityEngine7Connect13ConfigHandler12GetListenersERKN4core12basic_stringIcNS2_20StringStorageDefaultIcEEEE
Fva:__ZN9GfxDevice18AllocRenderSurfaceEb
wZb:__ZN10TagManager32GetSortingLayerUniqueIDFromValueEi
uFi:_AnchorInfo_get_IsComplete_m1247624133
R_d:_Dropdown_Show_m324374589
A_:__ZL27CleanupCoreScriptingClassesv
fUd:_RaycastResult_get_isValid_m2482925612
vgc:__Z26AnimationCurve_CUSTOM_InitP12Il2CppObjectP11Il2CppArray
H$j:_glUniform1uiv__wrapper
ayc:__ZNK14b2PolygonShape5CloneEP16b2BlockAllocator
tnj:__ZN6il2cpp2vm10Reflection7IsEventEP12Il2CppObject
q2:__ZN17PersistentManager26GetStreamNameSpaceInternalEi
uG:__ZN4FMOD6System11createSoundEPKcjP22FMOD_CREATESOUNDEXINFOPPNS_5SoundE
Zmi:_CanvasRenderer_get_cull_m3577089379
bo:FUNCTION_TABLE_iiifiiii
ubh:_Object_Destroy_m4145850038
S4h:__Z109RuntimeInvoker_Void_t1841601450_PlayableHandleU26_t3483893774_Int32_t2071877448_SByte_t454417549_Il2CppObjectPK10MethodInfoPvPS2_
Mij:__ZN6il2cpp2vm4Type14IsSystemDBNullEPK10Il2CppType
F0:__ZN9ShaderLab19CommonPropertyNames13StaticCleanupEPv
y3:__Z31scripting_method_get_returntype18ScriptingMethodPtr
cxh:_ScrollRect_UpdateBounds_m3266596336
Jpb:__ZN15SerializeTraitsI12LightmapDataE8TransferI24GenerateTypeTreeTransferEEvRS0_RT_
yYd:_ColorBlock_GetHashCode_m649325222
fYj:_glStencilOpSeparate__wrapper
a8b:__ZN4Mesh5SetUvEiPKfjj
Una:__ZN7Texture13SetAnisoLimitENS_20AnisotropicFilteringE
joa:__ZN28LightProbeProxyVolumeManager25UpdateSHCoeffsTextureDataER21LightProbeProxyVolume
DJa:__Z18CreateDecompressor15CompressionType18MemLabelIdentifier
QO:__ZN11AudioModule16SetListenerPauseEb
Vh:_emscripten_glCompressedTexSubImage2D
WDa:__ZN13GfxDeviceGLES22MemoryBarrierImmediateEyN2gl17MemoryBarrierTypeE
dGd:_Convert_ToUInt32_m1336475941
huj:__ZN6il2cpp6icalls8mscorlib6System4Type18internal_from_nameEP12Il2CppStringbb
tla:__ZN6prcoreL26RemapGenericFloatToIntegerI18TexFormatARGBFloat17TexFormatARGB8888EEvPKNS_9InnerInfoE
lXc:_cff_ps_has_glyph_names
ZUi:_InvokableCall_1__ctor_m2837611051_gshared
gDi:_PatternCompiler_EmitPosition_m3013268572
XIf:_X509SubjectKeyIdentifierExtension__ctor_m1109455121
QYb:__Z13tessTesselateP14TESStesselatoriiiiPKf
b1d:_Graphic_CreateColorFromAlpha_m2614574534
Jpc:__Z44Register_UnityEngine_GUIStyle_SetDefaultFontv
_6b:__ZN19SpriteMeshGenerator9MakeShapeEP11ColorRGBA32iifhbjfi
eNb:__Z18Transfer_BlittableI18StreamedBinaryReadILb1EELb1EiEvRK29SerializationCommandArgumentsR31RuntimeSerializationCommandInfo
Xs:__ZN9BlobWrite8TransferI22OffsetPtrArrayTransferIKN4math7_float3EEEEvRT_PKc17TransferMetaFlags
kfd:_TripleDES_IsWeakKey_m483013953
kGf:_X509Certificate2_get_PrivateKey_m2662162956
imj:__ZN15dense_hashtableINSt3__24pairIK10KeyWrapperINS1_IPK12PropertyInfoP11Il2CppClassEEEjEES9_17ReflectionMapHashIS8_EN14dense_hash_mapIS9_jSD_NS9_14EqualsComparerINS0_8equal_toIS8_EEEENS0_9allocatorISB_EEE9SelectKeyESI_SK_E12maybe_shrinkEv
wNb:__Z18Transfer_BlittableI18StreamedBinaryReadILb1EELb1EsEvRK29SerializationCommandArgumentsR31RuntimeSerializationCommandInfo
oz:__ZN26AnimatorControllerPlayable17IsMultithreadableEv
Pid:_Single_System_IConvertible_ToSByte_m3757385387
u4e:_StreamAsyncResult_SetComplete_m2141125667
Zna:__ZL21SetAnisoLimitEnumImplN7Texture20AnisotropicFilteringEb
h5c:__ZN22BaseUnityConnectClient17OnEnterStateReadyEv
AY:__GLOBAL__sub_I_platformdependent_webgl_source_lump_cpp
Gkb:__ZN14GrowableBufferD2Ev
Qfc:__Z29Input_CUSTOM_GetMouseButtonUpi
Cej:__ZN6il2cpp6icalls8mscorlib6System8MonoType16InternalGetEventEP20Il2CppReflectionTypeP12Il2CppStringi
WQc:_UNITY_tt_face_load_maxp
$fc:__Z46Input_CUSTOM_INTERNAL_set_compositionCursorPosRK13Vector2fIcall
qu:__ZN7mecanim5human12FullBodyMaskEv
e0:__ZN19ShaderPropertySheet11ComputeHashEv
Dyc:__ZN12b2EPCollider24ComputePolygonSeparationEv
Wge:_Array_InternalArray__Insert_TisUInt16_t986882611_m2263078_gshared
CXd:_CanvasScaler_HandleScaleWithScreenSize_m80056230
PR:__ZN11UnityEngine15CloudWebService16SessionContainer16GetJsonDataBlockEjRKN4core12basic_stringIcNS2_20StringStorageDefaultIcEEEERS6_PjSA_
Ldj:__ZNK6il2cpp5utils10functional6FilterINSt3__212basic_stringIcNS3_11char_traitsIcEENS3_9allocatorIcEEEENS0_11StringUtils21CaseSensitiveComparerEEclIPKcEEbRKT_
OFg:_UTF7Encoding_InternalGetBytes_m2772055844
hdf:_SimpleCollator__cctor_m2693747668
vKd:_Decimal_CompareTo_m2454501434_AdjustorThunk
F2:__ZN14SafeBinaryReadD2Ev
NLg:_UInt16_System_IConvertible_ToChar_m4055364664
O_b:__Z13RegisterClassI7TextureEvv
DOb:__ZN8Gradient8TransferI18StreamedBinaryReadILb1EEEEvRT_
iih:_Enumerator_Dispose_m2369319718_AdjustorThunk
tpc:__Z45Register_UnityEngine_GUIStyle_SetFontInternalv
JEc:__ZN19CollisionListener2DD0Ev
Kdj:__ZN6il2cpp6icalls8mscorlib6SystemL16CheckMemberMatchI9FieldInfoNS_5utils10functional6FilterINSt3__212basic_stringIcNS8_11char_traitsIcEENS8_9allocatorIcEEEENS5_11StringUtils21CaseSensitiveComparerEEEEEbPKT_PK11Il2CppClassSN_iRKT0_
kuj:__ZN6il2cpp6icalls8mscorlib6System4Type15MakeGenericTypeEP20Il2CppReflectionTypeP11Il2CppArray
oj:_SDL_PauseAudio
$fj:_il2cpp_class_from_type
Upd:_Array_Sort_m2323017822
QHj:_GC_clear_mark_bit
Gvh:_Scrollbar_UpdateDrag_m3839695926
H3g:_GUILayoutUtility__cctor_m2957755459
E0:__ZN9ShaderLab19CommonPropertyNames16StaticInitializeEPv
f9e:_MissingMemberException__ctor_m3710131950
DA:__ZN7mecanim9animation18CreateAvatarOutputEPKNS0_14AvatarConstantEbbRNS_6memory9AllocatorE
Tpc:__Z45GUIUtility_CUSTOM_Internal_GetKeyboardControlv
FCg:_CspParameters__ctor_m2546931874
dM:__ZN11AudioSource23VirtualRedirectTransferER24GenerateTypeTreeTransfer
g4c:__ZN14UnityAnalytics15SendCustomEventERN11UnityEngine9Analytics15UserCustomEventE
atb:__ZN14Texture2DArray23VirtualRedirectTransferER14SafeBinaryRead
yYa:__ZNK6Camera21CalculateCanDoShadowsEv
j1d:_Graphic__cctor_m1643894470
dCj:__ZN6il2cpp2os6Thread12SetStackSizeEj
GGf:_X509ChainElementEnumerator_get_Current_m2232618221
nBb:__ZNK20ArchiveStorageReader15HasStreamBlocksEv
v8b:__ZNK8Renderer16IsVisibleInSceneEv
Qki:_Behaviour_get_isActiveAndEnabled_m3838334305
Ywh:_ScrollRect_set_onValueChanged_m3957749575
bY:__Z13VFormatBufferPciPKcz
vPb:__Z18Transfer_BlittableI18StreamedBinaryReadILb0EELb1EhEvRK29SerializationCommandArgumentsR31RuntimeSerializationCommandInfo
SSi:_U3CCreateWhereIteratorU3Ec__Iterator1D_1_Dispose_m1879652802_gshared
BZb:__ZL24GenerateTilingJobCombineP22GenerateTilingAreaInfo
b3d:_Image_GenerateSimpleSprite_m4275440988
ypi:_Display_get_systemHeight_m3377672024
CMg:_UInt16_ToString_m3280699191
xla:__ZN6prcoreL27StretchGenericFloatBilinearI15TexFormatRFloatEEvPKNS_9InnerInfoE
jSh:__Z130RuntimeInvoker_Int32_t2071877448_Il2CppObject_Int32_t2071877448_Int32_t2071877448_Il2CppObject_Int32_t2071877448_Int32_t2071877448PK10MethodInfoPvPS2_
kXh:__Z102RuntimeInvoker_Il2CppObject_Int32_t2071877448_Int32_t2071877448_Il2CppObject_Il2CppObject_Il2CppObjectPK10MethodInfoPvPS2_
Mce:_Array_IndexOf_TisCustomAttributeNamedArgument_t94157543_m745056346_gshared
fCa:__Z14PadImageBorderR14ImageReferenceii
Nkj:__ZN15dense_hashtableINSt3__24pairIK10KeyWrapperINS1_IPK10MethodInfoP11Il2CppClassEEEjEES9_17ReflectionMapHashIS8_EN14dense_hash_mapIS9_jSD_NS9_14EqualsComparerINS0_8equal_toIS8_EEEENS0_9allocatorISB_EEE9SelectKeyESI_SK_E4findERSA_
Taj:__ZN6il2cpp2vm13MetadataCache28GetFieldDefaultValueForFieldEPK9FieldInfo
yCh:_ArrayReadOnlyList_1_ReadOnlyError_m2289309720_gshared
Hy:__ZN27AnimationLayerMixerPlayableD2Ev
jcj:__ZN6il2cpp2vm8basepathEPKc
tI:__ZN12AudioManager39HandlePendingAudioConfigurationCallbackEv
kk:_emscripten_glIsFramebuffer
VEa:__ZNK13TranslateGLES9GetFormatE13TextureFormat17TextureColorSpace
k4b:__ZN12_GLOBAL__N_16qAtan2Eff
oFd:_Convert_ToInt64_m954367741
ok:_JS_Sound_SetLoopPoints
Uud:_ArrayList__ctor_m1467563650
oN:__ZN12AudioManager17ShouldSourcePauseEb
kLj:__ZN6il2cpp2vm26MetadataAllocGenericMethodEv
xGa:__ZN19ConstantBuffersGLES12RecordRenderEv
qqa:__ZN18AsyncUploadManager22UploadStreamingTextureEP28FileTextureUploadInstruction
zsc:__ZN9JSONWrite8TransferI10RectOffsetEEvRT_PKc17TransferMetaFlags
NBa:__ZN4crnd12symbol_codec11decode_bitsEj
Eyc:__ZN15b2CircleContact8EvaluateEP10b2ManifoldRK11b2TransformS4_
Mje:_Array_Sort_TisRaycastResult_t21186376_TisRaycastResult_t21186376_m38820193_gshared
Xii:_Animator_ResetTriggerString_m1445965342
E3e:_StreamReader__ctor_m3454466728
yI:__ZN4FMOD6System12createReverbEPPNS_6ReverbE
cOg:_UInt64_Equals_m1243465002
VPi:_Vector2_get_Item_m2792130561
Fma:__Z16MarkDependenciesR27GarbageCollectorThreadStatej
yIf:_X509ChainElementEnumerator_Reset_m3832280427
nbf:_MulticastDelegate_RemoveImpl_m2024746777
MXd:_CanvasUpdateRegistry_ParentCount_m2367607495
hbf:_MulticastDelegate_Equals_m3064081489
$8h:__Z54RuntimeInvoker_Void_t1841601450_ColorBlock_t2652774230PK10MethodInfoPvPS2_
smf:_Activator_CreateInstance_m1465989661
z0:__ZNK9Transform11GetPositionEv
VGi:_PositionAssertion_GetWidth_m2294218483
eTa:__ZN23SharedMeshRenderingData18UnloadVertexStreamEi
eRi:_Vector4_set_Item_m3077071044
U4b:__ZN31CanvasBatchIntermediateRenderer11AddSubBatchERK16DrawBuffersRangePK19ShaderPropertySheet
u3b:__ZN19RenderEventsContextC2Ei
bQ:__Z6simd4fRKf
_fe:_Array_InternalArray__ICollection_CopyTo_TisColor32_t874517518_m379086718_gshared
wzh:_Slider_ClampValue_m2851810895
Rk:_emscripten_glEnable
f4g:_GUISkin_set_font_m4009958323
EWi:_UnityEvent_1_FindMethod_Impl_m3813546_gshared
Xxj:__ZN6il2cpp2gc16GarbageCollector29RegisterFinalizerForNewObjectEP12Il2CppObject
gib:__ZN10TagManager23VirtualRedirectTransferER14SafeBinaryRead
qQc:_UNITY_FT_Init_Class_ft_grays_raster
p$a:__Z15InitLightMeshesv
T_f:__ZL97WaitHandle_t677569169_CustomAttributesCacheGenerator_WaitHandle_t677569169____Handle_PropertyInfoP21CustomAttributesCache
Qne:_KeyValuePair_2_ToString_m1391611625_AdjustorThunk
Cn:FUNCTION_TABLE_iifiii
Daf:_MonoType_HasElementTypeImpl_m1040892148
PRa:__ZN22RenderingCommandBuffer36AcquireAndRegisterSharedMaterialDataEP8Material
ILb:__Z18Transfer_BlittableI19StreamedBinaryWriteILb0EELb1E8Vector2fEvRK29SerializationCommandArgumentsR31RuntimeSerializationCommandInfo
lVc:_cf2_arrstack_init
HUf:__ZL65ClassInterfaceAttribute_t910653559_CustomAttributesCacheGeneratorP21CustomAttributesCache
$ij:__ZN15dense_hashtableINSt3__24pairIK10KeyWrapperINS1_IPK14Il2CppAssemblyP11Il2CppClassEEEjEES9_17ReflectionMapHashIS8_EN14dense_hash_mapIS9_jSD_NS9_14EqualsComparerINS0_8equal_toIS8_EEEENS0_9allocatorISB_EEE9SelectKeyESI_SK_E15insert_noresizeERKSB_
KV:__Z15CleanLogHandler7LogTypePKcz
eVb:__ZN9ShaderLab19SerializedSubShader8TransferI19StreamedBinaryWriteILb0EEEEvRT_
rFg:_UTF32Encoding_GetBytes_m2290150495
vDb:__ZN6Camera17RemoveImageFilterERK11ImageFilter
wDa:__ZNSt3__218__insertion_sort_3IR25ValueParameterArraySorterPN20GpuProgramParameters14ValueParameterEEEvT0_S6_T_
wDc:__ZN10ClipperLib7Clipper27ProcessEdgesAtTopOfScanbeamEx
ush:_LayoutUtility_GetLayoutProperty_m4052007472
bVi:_InvokableCall_1_Invoke_m3239892614_gshared
NSa:__ZNSt3__214__split_bufferI20ComputeShaderVariantRNS_9allocatorIS1_EEED2Ev
pLc:__ZNSt3__26vectorIN4core12basic_stringIcNS1_20StringStorageDefaultIcEEEE13stl_allocatorIS5_L18MemLabelIdentifier34ELi16EEE7reserveEj
_uf:_Context_set_WriteSequenceNumber_m3356252710
G0c:__ZN2UI26InitializeDeviceForOverlayEi
OZe:_Guid_Equals_m2389236871
U0:__Z27LogRepeatingStringWithFlagsRKN4core12basic_stringIcNS_20StringStorageDefaultIcEEEE15LogMessageFlagsi
Tw:__ZNK8Playable11GetDurationEv
lx:__ZN17AnimationPlayable28ComputeNeedsBindingRebuildedEv
Lre:_List_1_CheckIndex_m3609163576_gshared
tzb:__ZN15ResourceManagerD0Ev
gGf:_X509ExtensionCollection__ctor_m1324282194
B7c:__ZN18UnityConnectClient33OnPlayerSessionStateChangedStaticEPS_jyy
FQf:__ZL74CaseInsensitiveHashCodeProvider_t2307530285_CustomAttributesCacheGeneratorP21CustomAttributesCache
Yya:__ZN7ApiGLES4LoadE16GfxDeviceLevelGL
Wpb:__ZN18StreamedBinaryReadILb0EE21TransferSTLStyleArrayI13dynamic_arrayI31EnlightenSystemAtlasInformationLj8EEEEvRT_17TransferMetaFlags
GBa:__ZN4crnd12crn_unpacker22decode_color_endpointsEv
cxj:__ZN15dense_hashtableI10KeyWrapperIP18Il2CppGenericClassES3_N6il2cpp8metadata22Il2CppGenericClassHashEN14dense_hash_setIS3_S6_NS3_14EqualsComparerINS5_25Il2CppGenericClassCompareEEENSt3__29allocatorIS3_EEE8IdentityESA_SD_E15insert_noresizeERKS3_
WOe:_ReadOnlyCollection_1_System_Collections_IList_Clear_m3006875897_gshared
B2b:__ZZL31RegisterOtherRendererPropertiesR22GenericPropertyBindingEN30Wrapper_RendererReceiveShadows13GetFloatValueEPv
Yqe:_Enumerator_System_Collections_IEnumerator_get_Current_m3866069145_gshared
Jba:__ZN8Material11SetPassFastEPN9ShaderLab4PassER17ShaderPassContextP6Shaderib
z7c:__ZN11UnityEngine7Connect20BasePersistentValues10SaveValuesER9JSONWrite
Cdh:_Rect_get_max_m96665935_AdjustorThunk
mwi:_RuntimeHelpers_InitializeArray_m3920580167
OSd:_ExecuteEvents_get_pointerDownHandler_m1172742772
dGc:__ZNSt3__27__sort4IR24RayHitsByDepthComparitorP12RaycastHit2DEEjT0_S5_S5_S5_T_
g9b:__Z14ScaleCurveTimeR17AnimationCurveTplIfEf
VHf:_X509CertificateEnumerator_System_Collections_IEnumerator_MoveNext_m3708362145
jVa:__Z12SetupLODFadeR9GfxDeviceR17ShaderPassContextf
BBc:__ZN26b2PolygonAndCapsuleContact6CreateEP9b2FixtureiS1_iP16b2BlockAllocator
$Ji:_X501_ToString_m3328169518
c$a:__ZL24CollectForwardObjectsJobP27CollectForwardObjectsHeader
YZ:__ZN8Playable13SetGameObjectEP10GameObject
K2a:__ZNK25CameraStackRenderingState24ResolveTempToEyeTexturesEv
W0a:__Z13IsNodeVisibleRK9SceneNodeRK4AABBRK22SceneCullingParameters
C2c:__Z57RectTransformUtility_CUSTOM_INTERNAL_CALL_PixelAdjustRectP12Il2CppObjectS0_R5RectTIfE
cyg:_DelayedFixupRecord_FixupImpl_m4249966635
E1j:_emscripten_glStencilMask__wrapper
vOc:__ZZ29InitializeTextRenderingModulevEN40CleanUpTextRenderingGarbageCollectstruct7ForwardEv
M3:__ZN11TypeManager19ClassNameToTypeInfoEPKcb
Tef:_BigInteger_ToString_m3837784224
KRa:__ZN15RenderNodeQueue7CleanupEv
lKc:__ZN16NovodexAllocator8allocateEjPKcS1_i
D_a:__Z17PrepareShadowMapsRK11CullResultsRK11ActiveLightRK10MinMaxAABB
TGg:_NativeEventCalls_CreateEvent_internal_m1605829321
pjg:__ZL73RuntimePlatform_t1869584967_CustomAttributesCacheGenerator_MetroPlayerX64P21CustomAttributesCache
_Hh:_InternalEnumerator_1_System_Collections_IEnumerator_get_Current_m3239681450_AdjustorThunk
$_a:__ZN9ShaderLab10GrabPassesD2Ev
Qah:_MonoBehaviour_set_useGUILayout_m2666356651
ltb:__ZN14Texture2DArray13UploadTextureEv
l9h:__Z69RuntimeInvoker_TextGenerationSettings_t2543476768_Vector2_t2243707579PK10MethodInfoPvPS2_
ESc:_tt_cmap14_done
una:__ZN18AwakeFromLoadQueue25RegisterObjectInstanceIDsEv
ksd:_Buffer_BlockCopy_m1586717258
GXf:__ZL93X509Certificate_t283079845_CustomAttributesCacheGenerator_X509Certificate_GetName_m2354987368P21CustomAttributesCache
lMc:__ZN20TextRenderingPrivate19NativeTextGenerator15InsertCharacterEiPj
qDc:__ZTv0_n12_N10ClipperLib7ClipperD0Ev
pPd:_CompareInfo_GetSortKey_m3691382873
yAc:__ZN11b2RopeJoint24SolveVelocityConstraintsERK12b2SolverData
pJd:_DBNull_ToString_m3228904745
lEf:_WebHeaderCollection_AddWithoutValidate_m1479880592
c0h:__Z80RuntimeInvoker_Void_t1841601450_Int32_t2071877448_Int32_t2071877448_Il2CppObjectPK10MethodInfoPvPS2_
Pqf:_RC4_get_IV_m506011366
iLi:_X509Crl__ctor_m2469408229
HPh:_Enumerator_get_CurrentValue_m3562053380_AdjustorThunk
bJf:_X509SubjectKeyIdentifierExtension_CopyFrom_m136762226
Voe:_Enumerator_System_Collections_IEnumerator_Reset_m610822832_AdjustorThunk
vhc:__Z41MonoBehaviour_Set_Custom_PropUseGUILayoutP12Il2CppObjecth
gNc:_UNITY_FT_Open_Face
vZj:_glGenRenderbuffers__wrapper
pli:_Bounds_ToString_m1966597703
Off:_BigInteger_op_Division_m1581119694
qRb:__ZN16ScriptingManagerD0Ev
Nhi:_UnityAnalyticsHandler_CustomEvent_m2884790978
pzg:_CallbackHandler_Invoke_m1498072969
kDg:_DSACryptoServiceProvider__ctor_m701823690
x3g:_Mathf_Clamp_m2354025655
RRg:_CustomAttributeData_GetCustomAttributes_m2421330738
uzj:__ZN30dense_hashtable_const_iteratorINSt3__24pairIK10KeyWrapperINS1_IPKcS4_EEEiEES6_24NamespaceAndNamePairHashN14dense_hash_mapIS6_iS9_NS6_14EqualsComparerI26NamespaceAndNamePairEqualsEENS0_9allocatorIS8_EEE9SelectKeyESD_SF_EppEv
sKg:_Type_get_IsEnum_m313908919
Zdc:__Z44Register_UnityEngine_Component_get_transformv
qHe:_Collection_1_System_Collections_ICollection_CopyTo_m1335644572_gshared
kye:_List_1_CheckMatch_m2830747427_gshared
wJa:__ZN17ArchiveFileSystem12MountArchiveEPKcS1_
Jrc:__Z18Transfer_BlittableI9JSONWriteLb1E8Vector4fEvRK29SerializationCommandArgumentsR31RuntimeSerializationCommandInfo
E_:__Z11RequireTypePKcS0_S0_
TPh:_Enumerator_System_Collections_IEnumerator_Reset_m70453843_gshared
Aqb:__ZThn32_NK8Renderer14GetSubsetIndexEi
xQi:_Vector3_get_Item_m3616014016
p1b:__ZN13ProduceHelperI15ResourceManagerLb0EE7ProduceE18MemLabelIdentifier18ObjectCreationMode
uwa:__ZN9GfxDevice15ImmediateVertexEfff
v_b:__Z13RegisterClassI8MaterialEvv
vOd:_FieldAccessException__ctor_m3893881490
s6h:__Z82RuntimeInvoker_Int32_t2071877448_Rect_t3681755626_Il2CppObject_Vector2_t2243707579PK10MethodInfoPvPS2_
gua:__ZN13GfxDeviceGLES15SetStencilStateEPK18DeviceStencilStatei
Qkj:__ZN15dense_hashtableINSt3__24pairIK10KeyWrapperINS1_IPK10MethodInfoP11Il2CppClassEEEjEES9_17ReflectionMapHashIS8_EN14dense_hash_mapIS9_jSD_NS9_14EqualsComparerINS0_8equal_toIS8_EEEENS0_9allocatorISB_EEE9SelectKeyESI_SK_E6insertERKSB_
CPj:_cycle
ZNi:_TextGenerator_Populate_m4139823822
Ld:_emscripten_glUniform1iv
TAh:_Text_get_preferredHeight_m452532789
CFc:__ZN15b2DistanceProxy3SetEPK7b2Shapei
Fjd:_String_System_IConvertible_ToDouble_m3860911722
dab:__ZN16MemoryFileSystemD2Ev
iUb:__ZN9ShaderLab18SerializedPropertyD2Ev
xMc:__Z17dynamic_pptr_castIP9Texture2D7TextureET_RK4PPtrIT0_E
Jx:__ZN7mecanim14ValueArrayLoopERKNS_10ValueArrayES2_RS0_fRKNS_14ValueArrayMaskE
lQe:_ReadOnlyCollection_1_System_Collections_IList_set_Item_m1272038804_gshared
CDh:_InternalEnumerator_1_System_Collections_IEnumerator_get_Current_m1931522460_AdjustorThunk
lgd:_SecurityPermission_IsEmpty_m1869313067
OHf:_X509CertificateCollection__ctor_m3709509050
Bdc:__Z37Register_UnityEngine_Camera_get_depthv
$if:_EncryptedPrivateKeyInfo_get_Salt_m2734354394
hSe:_ReadOnlyCollection_1_System_Collections_Generic_IListU3CTU3E_set_Item_m1918537449_gshared
UFe:_Collection_1_System_Collections_ICollection_CopyTo_m3896480607_gshared
sTd:_PointerEventData_set_position_m794507622
q6h:__Z115RuntimeInvoker_Void_t1841601450_Rect_t3681755626_Il2CppObject_Int32_t2071877448_Int32_t2071877448_Int32_t2071877448PK10MethodInfoPvPS2_
z9:__ZN15dense_hashtableINSt3__24pairIKPKcPK4RTTIEES3_N11TypeManager23ConstCharPtrHashFunctorEN14dense_hash_mapIS3_S7_SA_NS9_19ConstCharPtrEqualToE13stl_allocatorIS8_L18MemLabelIdentifier6ELi16EEE9SelectKeyESC_SF_E12resize_deltaEjj
Q9a:__Z23ConvertIntegerToTypePtrItEbPvR14SafeBinaryRead
eti:_AnimatorControllerPlayable_IsParameterControlledByCurveID_m4183631446
Gu:__ZN7mecanim5human29HumanGetGoalOrientationOffsetENS0_4GoalE
ae:_emscripten_glStencilFunc
xXh:__Z101RuntimeInvoker_Void_t1841601450_Il2CppObject_Il2CppObject_Il2CppObject_Il2CppObject_Int32_t2071877448PK10MethodInfoPvPS2_
Kwd:_SynchronizedArrayListWrapper_get_Capacity_m2541698837
T_g:_MonoMethod_MakeGenericMethod_impl_m2063853616
bid:__Z46il2cpp_codegen_get_marshal_directive_exceptionPKc
gWb:__ZN9ShaderLab20SerializedSubProgram14AddMatrixParamEPKcii15ShaderParamTypei
ge:_glGetActiveUniformBlockName
CD:__ZN26AnimatorControllerPlayable23ValidateParameterStringE17GetSetValueResultRKN4core12basic_stringIcNS1_20StringStorageDefaultIcEEEE
WZe:_Guid_AppendByte_m2890893073
BWg:_MethodBuilder_Invoke_m1874904900
wtd:_Char_System_IConvertible_ToType_m3106771703_AdjustorThunk
eLf:_Interval_Intersects_m3480157390_AdjustorThunk
qgc:__Z39Quaternion_CUSTOM_INTERNAL_CALL_InverseRK11QuaternionfRS_
Mwi:_GCHandle_Alloc_m1063472408
qJ:__ZN4FMOD7Channel20set3DConeOrientationEP11FMOD_VECTOR
rn:FUNCTION_TABLE_iiifii
sCg:_CryptoConfig_CreateFromName_m391442950
tAj:__ZN6il2cpp2vm12GenericClass11SetupEventsEP11Il2CppClass
MYc:_tt_delta_interpolate
xSc:_tt_cmap12_get_info
wAd:_SortedList__ctor_m3698381356
Xvj:__ZN6il2cpp2vm15ReboxIReferenceEP14Il2CppIUnknownP11Il2CppClass
e7e:_StreamWriter_LowLevelWrite_m4205372900
kXi:__ZN6il2cpp6icalls8mscorlib6System7Decimal14decimalCompareEP19il2cpp_decimal_reprS5_
$Jj:__ZThn4_N6il2cpp2vm13CachedCCWBaseINS0_13ManagedObjectEE7ReleaseEv
ayd:_CollectionBase_System_Collections_IList_get_Item_m2370387510
Bje:_Array_Sort_TisCustomAttributeNamedArgument_t94157543_m3436077809_gshared
I_j:_glCopyTexImage2D__wrapper
wfh:_ResourceRequest__ctor_m3340010930
G6d:_LayoutElement__ctor_m789941073
Kli:_Camera_FireOnPreCull_m1679634170
_ia:__Z18ClearByDrawingQuad13GfxClearFlagsRK10ColorRGBAffjR17ShaderPassContext
wzi:_DynamicPropertyCollection_FindProperty_m1233265924
Vka:__ZN6prcoreL17RemapGenericFloatI14TexFormatRHalf15TexFormatRFloatEEvPKNS_9InnerInfoE
YUa:__Z16ShouldUseShadowsb
NZ:__ZN15DirectorManager21RebuildStageCallbacksEv
Wla:__ZN19RuntimeSceneManager9LoadSceneERKN4core12basic_stringIcNS0_20StringStorageDefaultIcEEEES6_S6_RK9UnityGUIDiNS_11LoadingModeE
zCa:__ZN7ApiGLES10DrawArraysE16GfxPrimitiveTypejjj
kqi:_Event_PopEvent_m1952528237
ZG:__ZN10SampleClip13LoadBaseSoundEv
XVh:__Z62RuntimeInvoker_Il2CppObject_Int32_t2071877448_SByte_t454417549PK10MethodInfoPvPS2_
jyj:__ZN15dense_hashtableINSt3__24pairIK10KeyWrapperIP12Il2CppObjectEN6il2cpp2gc9CachedCCWEEES5_NS7_5utils11PointerHashIS3_EEN14dense_hash_mapIS5_S9_SD_NS5_14EqualsComparerINS0_8equal_toIS4_EEEENS0_9allocatorISA_EEE9SelectKeyESI_SK_E15insert_noresizeERKSA_
AKe:_Collection_1_Contains_m643401393_gshared
Zia:__ZN22DeviceMVPMatricesStateC2ER9GfxDevice
xjd:_String__ctor_m372528291
bn:FUNCTION_TABLE_iifii
Ipj:__ZN6il2cpp2vm10Reflection12HasAttributeEP9FieldInfoP11Il2CppClass
dna:__ZNSt3__26__treeIiNS_4lessIiEE13stl_allocatorIiL18MemLabelIdentifier1ELi16EEE7destroyEPNS_11__tree_nodeIiPvEE
oc:invoke_viiifi
xri:_AnimationClipPlayable_GetSpeed_m668389965
caf:_LongComparer_Compare_m3981323622
Izh:_Slider_FindSelectableOnUp_m15474611
Wra:__ZNK11AssetBundle14GetPreloadDataEiR13dynamic_arrayIiLj4EE
hkf:_EncryptedData_get_EncryptedContent_m2732115576
HYh:__Z81RuntimeInvoker_Boolean_t3825574718_SByte_t454417549_Il2CppObject_SByte_t454417549PK10MethodInfoPvPS2_
qf:_JS_Sound_SetPosition
wEi:_Assertion_set_FalseExpression_m1781616372
ZIf:_X509SubjectKeyIdentifierExtension_FromHexChars_m2515150420
uaj:__ZL13GetSharedInstPK17Il2CppGenericInst
tPf:__ZL51IReflect_t3412036974_CustomAttributesCacheGeneratorP21CustomAttributesCache
rVd:_StandaloneInputModule_SendSubmitEventToSelectedObject_m3421155293
$ni:_Component_GetComponentsInChildren_m908027537
p5c:__ZN22BaseUnityConnectClient17SaveSessionValuesEv
jBi:_CallContextRemotingData_Clone_m2226242476
e2:__Z63ThreadAndSerializationSafeCheckSetMonoBehaviourBeingTransferredP13MonoBehaviour
f$a:__Z24SetupActiveLightsContextR21ActiveLightingContextRK12ActiveLightsRK11CullResultsP14ShadowMapCacheRK10MinMaxAABB
Mic:__Z38Sprite_CUSTOM_INTERNAL_get_textureRectP12Il2CppObjectP5RectTIfE
lJd:_DBNull_System_IConvertible_ToUInt32_m2681284284
uoj:__ZNK15dense_hashtableINSt3__24pairIK10KeyWrapperIPK22Il2CppGenericParameterEPK24MonoGenericParameterInfoEES6_N6il2cpp5utils11PointerHashIS4_EEN14dense_hash_mapIS6_SA_SF_NS6_14EqualsComparerINS0_8equal_toIS5_EEEENS0_9allocatorISB_EEE9SelectKeyESK_SM_E3endEv
pjb:__ZN6Camera8TransferI24GenerateTypeTreeTransferEEvRT_
vqh:_EqualityComparer_1__cctor_m416314417_gshared
Ka:invoke_iiiiiiif
Ga:invoke_iiiiiiii
YBb:__ZN24RingBufferMemoryFileData16ConsumeReadBytesEy
cah:_Mesh_GetUVChannel_m364477864
qHf:_X509ChainElementCollection_Contains_m3599995067
s2a:__ZN8Renderer17PendingAddToSceneEv
y2j:b123
x2j:b122
A2j:b125
z2j:b124
C2j:b127
B2j:b126
E2j:b129
aic:__Z52Register_UnityEngine_RectTransform_INTERNAL_get_rectv
q_:__Z21PostprocessStacktracePKcRN4core12basic_stringIcNS1_20StringStorageDefaultIcEEEE
lca:__ZN19RenderBufferManager13GetTempBufferEii17DepthBufferFormat19RenderTextureFormatj22RenderTextureReadWrite14VRTextureUsagei
lzb:__ZN18StreamedBinaryReadILb0EE21TransferSTLStyleArrayI13dynamic_arrayI16SplashScreenLogoLj4EEEEvRT_17TransferMetaFlags
P9d:_Array_InternalArray__ICollection_Remove_TisX509ChainStatus_t4278378721_m4127982424_gshared
Mdc:__Z47Register_UnityEngine_Camera_get_allCamerasCountv
Lcd:___clang_call_terminate
s5c:__ZN22BaseUnityConnectClient20StartEventDispatcherEv
j8b:__ZNSt3__26vectorIj13stl_allocatorIjL18MemLabelIdentifier1ELi16EEE6assignIPKtEENS_9enable_ifIXaasr21__is_forward_iteratorIT_EE5valuesr16is_constructibleIjNS_15iterator_traitsIS9_E9referenceEEE5valueEvE4typeES9_S9_
zs:__ZN7mecanim9animation16EvaluateAvatarIKEPKNS0_14AvatarConstantEPKNS0_11AvatarInputEPNS0_12AvatarOutputEPNS0_12AvatarMemoryEPNS0_15AvatarWorkspaceEb
aDa:__ZL25ProgramUniformMatrix4x3fvPK7ApiGLESjiihPKv
y4h:__Z83RuntimeInvoker_Il2CppObject_RayU26_t3651946800_Single_t2076509932_Int32_t2071877448PK10MethodInfoPvPS2_
LOa:__ZN12InputManager13InputEndFrameEv
bAd:_SyncHashtable__ctor_m2029869827
Grj:__ZN6il2cpp2vm6Thread5SetupEP12Il2CppThread
wTe:_ReadOnlyCollection_1_System_Collections_IList_Remove_m2200089035_gshared
PFe:_Collection_1_CheckWritable_m2756357359_gshared
HQj:___munmap
$3d:_InputField_get_characterLimit_m2386380888
Tng:__ZL68ColorBlock_t2652774230_CustomAttributesCacheGenerator_m_PressedColorP21CustomAttributesCache
aFd:_Convert_ToInt64_m1722087499
hg:_localtime_r
o3h:__Z74RuntimeInvoker_Vector3_t2243707580_Vector3_t2243707580_Vector3_t2243707580PK10MethodInfoPvPS2_
J2h:__Z80RuntimeInvoker_Il2CppObject_Ray_t2469606224_Single_t2076509932_Int32_t2071877448PK10MethodInfoPvPS2_
jg:_strftime
vca:__ZN7Texture33SetStoredColorSpaceNoDirtyNoApplyE17TextureColorSpace
jY:__ZN12FileAccessorD2Ev
Utb:__ZN14VertexDataInfoC2Ev
qOd:_Exception_GetObjectData_m2653827630
EQi:_Vector3_Equals_m2692262876_AdjustorThunk
JGh:_InternalEnumerator_1_get_Current_m2415979394_gshared
aOb:__ZL17Transfer_GUIStyleI18StreamedBinaryReadILb1EELb1EEvRK29SerializationCommandArgumentsR31RuntimeSerializationCommandInfo
Iwh:_ScrollRect_SetDirtyCaching_m1491302821
sej:__ZN6il2cpp6icalls8mscorlib6SystemL9IsPrivateEPK12PropertyInfo
TRg:_CustomAttributeData_GetCustomAttributes_m3258419955
Q0:__ZN9shadertag10InitializeEv
lVa:__ZN13BatchRenderer20RenderSingleWithPassER17ShaderPassContextPK18SharedMaterialDataP6ShaderPN9ShaderLab4PassEiPKNS7_10GrabPassesEjib15BatchBreakCause
YD:__Z92Register_UnityEngine_Experimental_Director_AnimationOffsetPlayable_INTERNAL_CALL_SetRotationv
Irb:__ZN15QualitySettings14QualitySetting8TransferI24GenerateTypeTreeTransferEEvRT_
Mfe:_Array_InternalArray__ICollection_CopyTo_TisParameterModifier_t1820634920_m4127516211_gshared
Dmd:_DecoderReplacementFallback__ctor_m2344783488
ugh:_Enumerator_System_Collections_IDictionaryEnumerator_get_Key_m467957770_AdjustorThunk
xZc:__Z28Font_Get_Custom_PropMaterialP12Il2CppObject
hKj:__ZN6il2cpp6icalls8mscorlib6System9Threading16NativeEventCalls19ResetEvent_internalE12Il2CppIntPtr
ylg:__ZL65EventTrigger_t1967201810_CustomAttributesCacheGenerator_delegatesP21CustomAttributesCache
PHe:_Collection_1_Remove_m4136193368_gshared
gSd:_EventTrigger_OnPointerUp_m2791622548
Ryh:_Shadow_set_useGraphicAlpha_m141905402
C6b:__ZN22BlockMemoryCacheWriter14LockCacheBlockEjPPhS1_
eCj:__ZN6il2cpp2os6Thread10RunWrapperEPv
Hwg:_RealProxy_InternalGetTransparentProxy_m3415358600
Suc:__Z22TransferField_NonArrayI8JSONRead27Converter_SimpleNativeClassI8GUIStyleEEvRK23StaticTransferFieldInfoR31RuntimeSerializationCommandInfoRT0_
Pg:_llvm_eh_typeid_for
B4b:__Z13RegisterClassI10GameObjectEvv
VQf:__ZL53HashValues_t2390200547_CustomAttributesCacheGeneratorP21CustomAttributesCache
aGf:_X509BasicConstraintsExtension_get_PathLengthConstraint_m3004531343
l9e:_MissingMemberException__ctor_m4277447068
Bse:_List_1_Find_m1881447651_gshared
h0g:_StrongNameKeyPair_System_Runtime_Serialization_ISerializable_GetObjectData_m1693082120
RPb:__Z18Transfer_BlittableI18StreamedBinaryReadILb0EELb1E8Vector4fEvRK29SerializationCommandArgumentsR31RuntimeSerializationCommandInfo
TCj:__ZN6il2cpp2vm6Method8GetParamEPK10MethodInfoj
R0e:_Int64_CompareTo_m1953686218
$uj:__ZN6il2cpp6icalls8mscorlib6System2IO6MonoIO4ReadE12Il2CppIntPtrP11Il2CppArrayiiPi
e1j:_glBindVertexArray__wrapper
gDg:_DSA_Create_m3450041777
Pga:__ZN8Material8TransferI14SafeBinaryReadEEvRT_
jpi:_Debug_LogWarningFormat_m79553173
Dnb:__ZN12CubemapArray17UploadToGfxDeviceEv
ixh:_ScrollRect_AdjustBounds_m1033723448
gla:__ZN6prcoreL17RemapGenericFloatI15TexFormatRGHalf17TexFormatRGBAHalfEEvPKNS_9InnerInfoE
Upe:_Enumerator_System_Collections_IEnumerator_Reset_m2200349770_gshared
SPg:_OrdinalComparer__ctor_m2952942058
s0h:__Z107RuntimeInvoker_Boolean_t3825574718_Int32_t2071877448_Int64U5BU5DU26_t2476256456_StringU5BU5DU26_t3730240492PK10MethodInfoPvPS2_
OGf:_X509Chain_CheckRevocationOnChain_m2441901351
UJj:__ZN6il2cpp2vm13ManagedObject14QueryInterfaceERK10Il2CppGuidPPv
Xed:_SymmetricAlgorithm_CreateDecryptor_m4240570785
ZKg:_Type_GetMethod_m3650909507
tH:__ZN11AudioSource4StopEb
iPj:_frexp
KHb:__ZN14SafeBinaryRead21TransferSTLStyleArrayI13dynamic_arrayI10Matrix4x4fLj4EEEEvRT_17TransferMetaFlags
BLe:_Collection_1_CheckWritable_m732350052_gshared
xsd:_Byte_System_IConvertible_ToDecimal_m1036493607
pba:__Z25GetSplashScreenBackgroundRK5RectTIfE
y9:__ZN14dense_hash_mapIPKcPK4RTTIN11TypeManager23ConstCharPtrHashFunctorENS5_19ConstCharPtrEqualToE13stl_allocatorINSt3__24pairIKS1_S4_EEL18MemLabelIdentifier6ELi16EEEixERSB_
v8c:__ZN13RuntimeStaticI19UnityConnectServiceLb0EE16StaticInitializeEPv
KNh:_DefaultComparer_Compare_m1247109616_gshared
w0g:_ResourceManager__ctor_m498829021
dHa:__ZN18GlslGpuProgramGLESD2Ev
S6a:__ZN13RenderTexture14SetVolumeDepthEi
qzg:_SerializationCallbacks__ctor_m722356782
wvc:__ZN10Matrix4x4f8TransferI8JSONReadEEvRT_
O3:__ZN14dense_hash_mapIPKcPK4RTTIN11TypeManager23ConstCharPtrHashFunctorENS5_19ConstCharPtrEqualToE13stl_allocatorINSt3__24pairIKS1_S4_EEL18MemLabelIdentifier6ELi16EEE5beginEv
U1:__ZN17PersistentManager18ReadObjectThreadedEi
gya:__ZN25TransformFeedbackSkinning31CleanupTransformFeedbackShadersEv
xGj:__ZN6il2cpp6icalls8mscorlib6System7Runtime16CompilerServices14RuntimeHelpers15InitializeArrayEP11Il2CppArray12Il2CppIntPtr
gIh:_InternalEnumerator_1_System_Collections_IEnumerator_get_Current_m2851415307_gshared
nMc:__ZNK20TextRenderingPrivate8FontImpl19GetCharacterAdvanceEjijfPj
uMj:__ZN6il2cpp6icalls8mscorlib4Mono8Security12Cryptography18KeyPairPersistence16_IsUserProtectedEP12Il2CppString
oCf:_DefaultUriParser__ctor_m4218024811
rTg:_DerivedType_GetField_m3960169619
OJd:_Decimal_System_IConvertible_ToInt16_m3159038792_AdjustorThunk
Dsb:__ZN10VertexData8TransferI18StreamedBinaryReadILb0EEEEvRT_
Mkf:_PKCS12_GetExistingParameters_m2413397265
YSi:_Nullable_1_get_Value_m1743067844_gshared
c7a:__ZN14PreloadManager16UpdatePreloadingEv
aVh:__Z148RuntimeInvoker_Int32_t2071877448_Il2CppObject_Int32_t2071877448_Int32_t2071877448_Il2CppObject_Int32_t2071877448_Int32_t2071877448_Int32_t2071877448PK10MethodInfoPvPS2_
rEj:__ZN14dense_hash_mapI10KeyWrapperIPK19Il2CppGenericMethodEP10MethodInfoN6il2cpp8metadata23Il2CppGenericMethodHashENS4_14EqualsComparerINS8_26Il2CppGenericMethodCompareEEENSt3__29allocatorINSD_4pairIKS4_S6_EEEEEC2EjRKS9_RKSC_
kcb:__ZNK21UnityDefaultAllocatorI17LowLevelAllocatorE8ContainsEPKv
Zh:_emscripten_get_main_loop_timing
k3e:_DirectoryInfo__ctor_m3750996792
KWd:_BaseMeshEffect_ModifyMesh_m2134816219
Hrb:__ZN24GenerateTypeTreeTransfer21TransferSTLStyleArrayINSt3__26vectorIN15QualitySettings14QualitySettingENS1_9allocatorIS4_EEEEEEvRT_17TransferMetaFlags
g5a:__ZN23ManagedAttributeManager52CallManagedGetParentTypeDisallowingMultipleInclusionE17ScriptingClassPtr
Bme:_Array_InternalArray__get_Item_TisAnimatorClipInfo_t3905751349_m2163447872_gshared
Exb:__ZNSt3__26vectorI9InputAxisNS_9allocatorIS1_EEE6resizeEj
sVa:__ZN13BatchRendererC2ER15RenderLoopStatsRK15RenderNodeQueuebbb
sgd:_SecurityElement_IsValidAttributeValue_m483287146
Bmd:_Decoder_set_Fallback_m1780632169
np:getTempRet0
t5h:__Z81RuntimeInvoker_Void_t1841601450_PlayableHandleU26_t3483893774_Vector3_t2243707580PK10MethodInfoPvPS2_
Eri:_AnimationClipPlayable_set_applyFootIK_m1054409049
LXh:__Z114RuntimeInvoker_Void_t1841601450_Il2CppObject_Il2CppObject_Int32_t2071877448_Il2CppObject_Il2CppObject_Il2CppObjectPK10MethodInfoPvPS2_
j3d:_Image_AddQuad_m1603575622
Kqf:_PrivateKeyInfo_RemoveLeadingZero_m3396807048
Bsj:__ZN6il2cpp6icalls8mscorlib6System9ThreadingL21lookup_cached_cultureEP12Il2CppThreadi
b0a:__ZN18DeferredRenderLoopD2Ev
H4:__ZNK16TypeTreeIterator4NameEv
IX:__ZN15FileSystemEntry3SetEPKc
Jgj:_il2cpp_method_has_attribute
Iad:_MACTripleDES__ctor_m884945242
$I:__ZN20SoundChannelInstance15ParameterBuffer5ApplyEPN4FMOD7ChannelE
bF:__Z117Register_UnityEngine_Experimental_Director_AnimatorControllerPlayable_INTERNAL_CALL_GetAnimatorTransitionInfoInternalv
kMc:__ZN20TextRenderingPrivate19NativeTextGenerator9InsertTabEv
N2g:_Rect_set_y_m4294916608
F5c:__ZN11UnityEngine15PlatformWrapper24GetRuntimePlatformStringEv
Hi:_glIsEnabled
$Db:__Z25scripting_class_get_image17ScriptingClassPtr
Li:_emscripten_glDrawElementsInstanced
Dz:__ZN26AnimatorControllerPlayable27SetupStateMachineBehavioursEv
kpf:_ARC4Managed_Dispose_m4102232694
Epf:_HMAC_Initialize_m3052649104
Rqa:__ZN18JobBatchDispatcherD2Ev
hXb:__ZN9Transform17MainThreadCleanupEv
HIj:_GC_clear_hdr_marks
cYj:_glScissor__wrapper
$1j:_emscripten_glCreateShader__wrapper
PUc:_cff_fd_select_get
vUf:__ZL73CompilationRelaxationsAttribute_t238494011_CustomAttributesCacheGeneratorP21CustomAttributesCache
ved:_SHA512Managed_processBlock_m3220567420
DBf:_NameObjectCollectionBase_get_Keys_m446053925
Vi:_emscripten_glGetShaderiv
MNa:__ZZ23InitPlayerLoopCallbacksvEN41EarlyUpdateUpdateAllUnityWebStreamsstruct7ForwardEv
bK:__ZN4FMOD6System10getVersionEPj
L3e:_FileLoadException_GetObjectData_m2047020314
Cde:_Array_InternalArray__IndexOf_TisSByte_t454417549_m1427585061_gshared
e_c:__ZN2UI6Canvas23VirtualRedirectTransferER24GenerateTypeTreeTransfer
hCd:_Decimal_u64_m3991988111
DTi:_Predicate_1_BeginInvoke_m2959352225_gshared
Qmh:_Dictionary_2_CopyToCheck_m2147716750_gshared
qJi:_X509Certificate_Parse_m1764345628
zAi:_SynchronizationAttribute_GetClientContextSink_m1264319894
SKc:__ZN13TextRendering4Font13AwakeFromLoadE17AwakeFromLoadMode
fva:__ZN9GfxDevice21ReleaseSharedMeshDataEP14SharedMeshData
uyb:__ZNSt3__27__sort5IRNS_6__lessINS_4pairIPKN5Unity4TypeE7Hash128EES8_EEPS8_EEjT0_SC_SC_SC_SC_T_
IIe:_Collection_1_ConvertItem_m3168406667_gshared
t6i:__ZNK15dense_hashtableINSt3__24pairIK10KeyWrapperIPKcEP11Il2CppClassEES5_N6il2cpp5utils11StringUtils12StringHasherIS4_EEN14dense_hash_mapIS5_S8_SE_NS5_14EqualsComparerINSC_21CaseSensitiveComparerEEENS0_9allocatorIS9_EEE9SelectKeyESI_SK_E10test_emptyEj
OHj:_GC_unreachable_finalize_mark_proc
kJj:_maybe_finalize
wBi:_ConstructionCall_GetObjectData_m3974358557
Uhc:__Z43RectTransform_CUSTOM_INTERNAL_get_anchorMaxP12Il2CppObjectP13Vector2fIcall
UId:_DateTimeOffset_get_DateTime_m229084964_AdjustorThunk
Cga:__ZN8Material28UpdateHashesOnPropertyChangeEN9ShaderLab16FastPropertyNameE
Gic:__Z53Register_UnityEngine_SortingLayer_GetLayerValueFromIDv
Gxd:_CaseInsensitiveComparer_Compare_m1192858479
NFb:__Z18Transfer_BlittableI14SafeBinaryReadLb1E8Vector4fEvRK29SerializationCommandArgumentsR31RuntimeSerializationCommandInfo
D7d:_LayoutRebuilder_Clear_m2390054824
DRg:_Default_SelectMethod_m622251293
hM:__ZN11AudioSource12AddToManagerEv
Qr:__ZN8Animator23VirtualRedirectTransferER19StreamedBinaryWriteILb0EE
Tv:__ZN11UnityEngine9Animation32CreateAnimatorGenericBindingsOptERKNS0_20AnimationSetBindingsER9TransformPKN7mecanim9animation14AvatarConstantEPKNS0_21AvatarBindingConstantEbRNS6_6memory9AllocatorER8Animator
Uyj:__ZN6il2cpp2vm5Image13ClassFromNameEPK11Il2CppImagePKcS6_
eUj:dynCall_vdddddd
sUb:__ZN24GenerateTypeTreeTransfer21TransferSTLStyleArrayINSt3__26vectorIN9ShaderLab14SerializedPassENS1_9allocatorIS4_EEEEEEvRT_17TransferMetaFlags
z1:__ZL32MarkLevelGameManagerDependenciesR27GarbageCollectorThreadState
pxa:__ZNK13GfxDeviceGLES26HasActiveRandomWriteTargetEv
VYj:_glGetActiveUniformsiv__wrapper
Dic:__Z43Register_UnityEngine_Material_EnableKeywordv
Z2:__ZN13MonoBehaviour19SetupScriptingCacheE17ScriptingClassPtrP10MonoScript
b0h:__Z59RuntimeInvoker_Il2CppObject_Double_t4078015681_Il2CppObjectPK10MethodInfoPvPS2_
gr:__Z20AnimationEventToMonoRK14AnimationEventR18MonoAnimationEvent
mkg:__ZL74UnityEventBase_t828812576_CustomAttributesCacheGenerator_m_PersistentCallsP21CustomAttributesCache
Duj:__ZN6il2cpp2vm13LivenessState18ShouldProcessValueEP12Il2CppObjectP11Il2CppClass
vXh:__Z45RuntimeInvoker_Il2CppObject_IntPtr_t_IntPtr_tPK10MethodInfoPvPS2_
QTb:__ZNSt3__26vectorIN9ShaderLab14SerializedPassENS_9allocatorIS2_EEE8__appendEj
hTb:__ZNSt3__26vectorIN9ShaderLab20SerializedSubProgram13BufferBindingENS_9allocatorIS3_EEEC2INS_11__wrap_iterIPS3_EEEET_SB_RKS5_PNS_9enable_ifIXaasr21__is_forward_iteratorISB_EE5valuesr16is_constructibleIS3_NS_15iterator_traitsISB_E9referenceEEE5valueEvE4typeE
SAc:__ZN12b2WheelJoint24SolveVelocityConstraintsERK12b2SolverData
jVh:__Z170RuntimeInvoker_Int32_t2071877448_Il2CppObject_Int32_t2071877448_Int32_t2071877448_Il2CppObject_Int16_t4041245914_Int32_t2071877448_SByte_t454417549_ContextU26_t3131521781PK10MethodInfoPvPS2_
Pob:__ZN9Texture2D23VirtualRedirectTransferER18StreamedBinaryReadILb0EE
rCc:__ZN10Collider2D8TransferI24GenerateTypeTreeTransferEEvRT_
vMd:_Double_System_IConvertible_ToUInt16_m286326038_AdjustorThunk
Axg:_TypeInfo__ctor_m1475908211
vib:__ZNSt3__26__treeINS_12__value_typeIN4core12basic_stringIcNS2_20StringStorageDefaultIcEEEEjEENS_19__map_value_compareIS6_S7_NS_4lessIS6_EELb1EEE13stl_allocatorIS7_L18MemLabelIdentifier6ELi16EEE7destroyEPNS_11__tree_nodeIS7_PvEE
F3:__ZN16ScriptingManager27NativeTypeForScriptingClassE17ScriptingClassPtr
PGf:_X509Chain_WrapUp_m1072032285
MKi:_X509CertificateEnumerator_System_Collections_IEnumerator_MoveNext_m1448966539
RRc:_get_sfnt_table
_me:_Object_FindObjectOfType_TisIl2CppObject_m2967490724_gshared
BGe:_Collection_1_IsSynchronized_m3261594010_gshared
OPa:_unity_z_tr_stored_block
Ybe:_Array_compare_TisIl2CppObject_m1481822507_gshared
uTd:_PointerEventData_set_pressPosition_m2094137883
p1a:__ZL22ScheduleSceneNodesJobsP25ScheduleSceneNodesJobDataj
Jk:_emscripten_set_canvas_size
Ynf:_BigInteger_op_Subtraction_m972393015
aPh:_Comparer_1__cctor_m2253684996_gshared
zTb:__ZNSt3__26vectorIN9ShaderLab20SerializedSubProgramENS_9allocatorIS2_EEE8__appendEj
XU:__ZN20DynamicHeapAllocatorI17LowLevelAllocatorE8AllocateEji
I3c:__ZN11UnityEngine9Analytics15UserCustomEvent12ToJsonStringER9JSONWrite
UVa:__ZN20DynamicPropertySheet15SetVectorQueuedERKN9ShaderLab16FastPropertyNameERK8Vector4fN19ShaderPropertySheet8SetFlagsE
eRe:_ReadOnlyCollection_1_System_Collections_IEnumerable_GetEnumerator_m4248982967_gshared
xs:__ZN7mecanim9animation22EvaluateAvatarRetargetEPKNS0_14AvatarConstantEPKNS0_11AvatarInputEPNS0_12AvatarOutputEPNS0_12AvatarMemoryEPNS0_15AvatarWorkspaceEb
_lb:__ZN14RenderSettings23VirtualRedirectTransferER19StreamedBinaryWriteILb0EE
Yrc:__ZL26Transfer_SimpleNativeClassI9JSONWrite10RectOffsetLb0EEvRK29SerializationCommandArgumentsR31RuntimeSerializationCommandInfo
gIj:_GC_push_conditional
V3c:__ZN21UnityAnalyticsManager23VirtualRedirectTransferER24GenerateTypeTreeTransfer
RAa:__ZN17GenericDynamicVBO10AllocateVBEjR21DynamicVBOChunkHandle
Ste:_List_1_get_Item_m1547593893_gshared
X2e:_Path_GetPathRoot_m1269357080
Qwj:__ZN30dense_hashtable_const_iteratorI10KeyWrapperIP18Il2CppGenericClassES3_N6il2cpp8metadata22Il2CppGenericClassHashEN14dense_hash_setIS3_S6_NS3_14EqualsComparerINS5_25Il2CppGenericClassCompareEEENSt3__29allocatorIS3_EEE8IdentityESA_SD_EppEv
LRd:_EventSystem_SetSelectedGameObject_m2211816110
fl:_glMapBufferRange
Iob:__ZN9Texture2D8TransferI18StreamedBinaryReadILb0EEEEvRT_
Pfc:__Z31Input_CUSTOM_GetMouseButtonDowni
QEj:__ZN15dense_hashtableINSt3__24pairIK10KeyWrapperIPK19Il2CppGenericMethodEP10MethodInfoEES6_N6il2cpp8metadata23Il2CppGenericMethodHashEN14dense_hash_mapIS6_S9_SD_NS6_14EqualsComparerINSC_26Il2CppGenericMethodCompareEEENS0_9allocatorISA_EEE9SelectKeyESH_SJ_E3endEv
m5b:__ZN13PlayableGraph4PlayEv
ETa:__ZNK9Transform16GetLocalPositionEv
$ra:__ZN13LoadOperation19IntegrateTimeSlicedEi
qrb:__ZNK15QualitySettings26GetTypeInfoVirtualInternalEv
rlf:_X501__cctor_m3795360380
Cxa:__ZN13GfxDeviceGLES22DispatchComputeProgramE12ObjectHandleI18ComputeProgram_TagPvE15ComputeBufferIDj
_6g:_GUIStyle_set_contentOffset_m2138084868
FGe:_Collection_1_System_Collections_ICollection_CopyTo_m4193844941_gshared
VEd:_Convert_ToInt32_m2297793940
vqa:__Z17TransformAABBSlowRK4AABBRK10Matrix4x4fRS_
Bpb:__ZN15SerializeTraitsI13dynamic_arrayI7Hash128Lj8EEE19ResizeSTLStyleArrayERS2_i18MemLabelIdentifier
qpj:__ZN13Il2CppHashMapINSt3__24pairIPK9FieldInfoP11Il2CppClassEEj17ReflectionMapHashIS7_ENS0_8equal_toIS7_EENS0_9allocatorINS1_IK10KeyWrapperIS7_EjEEEEEC2EjRKS9_RKSB_
oSb:__ZN9ShaderLab21SerializedShaderState8TransferI14SafeBinaryReadEEvRT_
nRj:_ftruncate
tdd:_RSAPKCS1SignatureFormatter_SetKey_m2365816458
MVc:_cf2_stack_pushInt
HGg:_CompressedStack__ctor_m276924800
_Sd:_ExecuteEvents_get_cancelHandler_m1964324668
Nha:__ZN15SerializeTraitsINSt3__24pairIN4core12basic_stringIcNS2_20StringStorageDefaultIcEEEES6_EEE8TransferI24GenerateTypeTreeTransferEEvRS7_RT_
n$j:b89
m$j:b88
G_j:b81
F_j:b80
O_j:b83
i4:__ZN18ResourceImageGroup7CleanupEv
W_j:b85
Psi:_AnimatorControllerPlayable_SetTrigger_m3144166126
l$j:b87
b$j:b86
cBh:_ToggleGroup_RegisterToggle_m3118973598
l3b:__ZN13ProduceHelperI4MeshLb0EE7ProduceE18MemLabelIdentifier18ObjectCreationMode
Iqf:_PrivateKeyInfo_Decode_m1053025782
ukf:_PKCS12_Decrypt_m2457743414
Nmb:__ZN8Playable19SetOutputConnectionEPS_i
M5i:__ZN15dense_hashtableINSt3__24pairIK10KeyWrapperIPK11Il2CppClassEPKcEES6_N6il2cpp5utils11PointerHashIS3_EEN14dense_hash_mapIS6_S9_SE_NS6_14EqualsComparerINS0_8equal_toIS5_EEEENS0_9allocatorISA_EEE9SelectKeyESJ_SL_EC2ERKSO_j
Vl:_glDeleteShader
lOd:_Exception_GetType_m3898489832
bla:__ZN6prcoreL17RemapGenericFloatI15TexFormatRGHalf16TexFormatRGFloatEEvPKNS_9InnerInfoE
GDe:_Stack_1_Peek_m1548778538_gshared
HNa:__ZZ23InitPlayerLoopCallbacksvEN38EarlyUpdateExecuteMainThreadJobsstruct7ForwardEv
Oyh:_Shadow_set_effectColor_m3110056844
jch:_Physics2D_GetColliderFromInstanceID_m95920619
xbc:__Z27scripting_add_internal_callPKcPKv
Zge:_Array_InternalArray__Insert_TisUriScheme_t1876590943_m2728325409_gshared
apj:__ZN13Il2CppHashMapINSt3__24pairIPK9EventInfoP11Il2CppClassEEj17ReflectionMapHashIS7_ENS0_8equal_toIS7_EENS0_9allocatorINS1_IK10KeyWrapperIS7_EjEEEEEC2EjRKS9_RKSB_
uxj:__GLOBAL__sub_I_GarbageCollector_cpp
ZKi:_X509Store_CheckStore_m1027496478
Nbi:__Z87RuntimeInvoker_Int32_t2071877448_UIVertex_t1204258818_UIVertex_t1204258818_Il2CppObjectPK10MethodInfoPvPS2_
E5h:__Z93RuntimeInvoker_TextGenerationError_t780770201_Il2CppObject_TextGenerationSettings_t2543476768PK10MethodInfoPvPS2_
Vu:__ZN26AnimatorControllerPlayable18SetLayerAutoWeightEv
Kb:invoke_vffff
PRj:__ZNSt3__212basic_stringIcNS_11char_traitsIcEENS_9allocatorIcEEEC2ERKS5_jjRKS4_
Okd:_String_Contains_m4017059963
oNh:_DefaultComparer_Compare_m1606207039_gshared
o0c:__ZN2UI14CanvasRenderer12SyncMaterialENS0_8SyncFlagE
iMj:__ZN6il2cpp2vm9Parameter30GetDefaultParameterValueObjectEPK10MethodInfoPK13ParameterInfoPb
Lhe:_Array_InternalArray__set_Item_TisLabelData_t3712112744_m2253365137_gshared
xah:_MonoBehaviour_Invoke_m666563676
l7e:_StringReader__ctor_m643998729
jDf:_IPv6Address_TryParse_m2220524278
o$h:__Z75RuntimeInvoker_DateTime_t693205669_DateTime_t693205669_TimeSpan_t3430258949PK10MethodInfoPvPS2_
IRc:_UNITY_tt_face_done_kern
nzi:_Context_get_DefaultContext_m2211922324
Hoc:__Z59GUIStyle_CUSTOM_Internal_GetNumCharactersThatFitWithinWidth13Il2Cpp_IntPtrP12Il2CppStringf
Zqf:_RSAManaged_GetPaddedValue_m2972141669
xxh:_ScrollRect_OnDrag_m1424848249
Faa:__Z19scripting_gc_enablev
pFi:_AnchorInfo__ctor_m617409099
i2c:__Z55Register_UnityEngine_CanvasRenderer_DisableRectClippingv
iLf:_Interval_CompareTo_m2909556284_AdjustorThunk
Qtb:__ZN14SafeBinaryRead21TransferSTLStyleArrayI13dynamic_arrayI11ColorRGBA32Lj4EEEEvRT_17TransferMetaFlags
$Jf:_Interpreter_GetLastDefined_m2450713313
GEi:_Parser_ParseAssertionType_m3316669790
pyh:_Selectable_get_isPointerDown_m774209881
bXb:__ZNSt3__27__sort4IRNS_6__lessIN4core12basic_stringIcNS2_20StringStorageDefaultIcEEEES6_EEPS6_EEjT0_SA_SA_SA_T_
KUj:dynCall_viiiifii
Enj:__ZN6il2cpp2gc19AppendOnlyGCHashMapINSt3__24pairIPK11Il2CppImageP11Il2CppClassEEP22Il2CppReflectionModule17ReflectionMapHashIS9_ENS2_8equal_toIS9_EEEC2Ev
R1:__Z20GetPersistentManagerv
ZYc:_UNITY_TT_Set_Var_Design
gaa:__ZN21SystemInfoStringCache16StaticInitializeEPv
usf:_TlsStream__ctor_m4117943603
rkj:__ZN15dense_hashtableINSt3__24pairIK10KeyWrapperIPK10Il2CppTypeEjEES6_N6il2cpp8metadata14Il2CppTypeHashEN14dense_hash_mapIS6_jSB_NS6_14EqualsComparerINSA_26Il2CppTypeEqualityComparerEEENS0_9allocatorIS8_EEE9SelectKeyESF_SH_E12maybe_shrinkEv
eAh:_Text_FontTextureChanged_m4236993972
HDj:__ZN6il2cpp2gc16GarbageCollector23MakeDescriptorForObjectEPji
Y$g:_ParameterModifier_t1820634920_marshal_pinvoke
cDb:__ZNK13MonoBehaviour7GetNameEv
Lma:__ZN19ScriptingInvocation28AdjustArgumentsToMatchMethodEv
axj:__ZN15dense_hashtableI10KeyWrapperIP18Il2CppGenericClassES3_N6il2cpp8metadata22Il2CppGenericClassHashEN14dense_hash_setIS3_S6_NS3_14EqualsComparerINS5_25Il2CppGenericClassCompareEEENSt3__29allocatorIS3_EEE8IdentityESA_SD_E6insertERKS3_
plb:__Z20RenderMultipleMeshesRK15RenderNodeQueueRK18RenderMultipleData17ShaderChannelMask
zij:__ZN6il2cpp2vm4Type19GetGenericParameterEPK10Il2CppType
K1c:__Z51Register_UnityEngine_CanvasGroup_get_blocksRaycastsv
TLh:_InternalEnumerator_1_get_Current_m2826780083_gshared
u2j:b119
tvc:__ZN8JSONRead21TransferSTLStyleArrayI13dynamic_arrayI11ColorRGBA32Lj4EEEEvRT_18MemLabelIdentifier17TransferMetaFlags
Nlj:__ZNK15dense_hashtableINSt3__24pairIK10KeyWrapperINS1_IPK11Il2CppImageP11Il2CppClassEEEjEES9_17ReflectionMapHashIS8_EN14dense_hash_mapIS9_jSD_NS9_14EqualsComparerINS0_8equal_toIS8_EEEENS0_9allocatorISB_EEE9SelectKeyESI_SK_E3endEv
Ad:_glBeginQuery
rQg:_Assembly_GetCustomAttributes_m95309865
Y1g:_GUILayoutUtility_INTERNAL_CALL_Internal_GetWindowRect_m3236664463
hJc:__ZN10Effector2D25CheckEffectorColliderMaskEP10Collider2DS1_
gRa:__ZN6Camera12RenderStereoENS_10RenderFlagE8CullFlagPNS_24PerformEyeRenderFunctionE
RW:__ZN20LocalFileSystemPosix10ToAbsoluteEPKc
B1d:_GridLayoutGroup__ctor_m1099847132
gVh:__Z136RuntimeInvoker_Boolean_t3825574718_Il2CppObject_Il2CppObject_Int32_t2071877448_Int32_t2071877448_SByte_t454417549_ContextU26_t3131521781PK10MethodInfoPvPS2_
LQa:_UNITY_png_default_flush
Mvd:_ArrayListWrapper_set_Capacity_m2792463350
dQj:_getcwd
DEg:_StringBuilder_Append_m1128243247
xBc:__ZN16b2CapsuleContact6CreateEP9b2FixtureiS1_iP16b2BlockAllocator
Vbb:__ZN25ThreadsafeLinearAllocatorD2Ev
JGd:_DateTime_get_Year_m1985210972
cba:__Z21SendMessageToEveryoneRK17MessageIdentifier11MessageData
v7:__ZN21BillboardBatchManager16StaticInitializeEPv
$4g:_Object_get_name_m2079638459
s2j:b117
wZ:__ZN12_GLOBAL__N_138ArchiveRedirectFileSystemStaticDestroyEPv
cOd:_EventHandler_Invoke_m1137722757
G8i:__ZNK15dense_hashtableINSt3__24pairIK10KeyWrapperI13dynamic_arrayIPK10Il2CppTypeLj4EEEPFvvEEES8_N6il2cpp8metadata19Il2CppSignatureHashEN14dense_hash_mapIS8_SB_SF_NS8_14EqualsComparerINSE_22Il2CppSignatureCompareEEENS0_9allocatorISC_EEE9SelectKeyESJ_SL_E5beginEv
Iaf:_MonoType_IsSubclassOf_m2211166238
bIe:_Collection_1_System_Collections_ICollection_CopyTo_m2859266050_gshared
Qu:__ZN7mecanim14ValueArrayCopyEPKNS_10ValueArrayEPS0_PKNS_14ValueArrayMaskE
RIj:_GC_continue_reclaim
T1e:_InvalidCastException__ctor_m2730571470
uIf:_X509ChainElementCollection_System_Collections_IEnumerable_GetEnumerator_m2559704689
KFf:_PublicKey_get_Key_m126090744
eNc:__ZNSt3__23mapIN20TextRenderingPrivate7FontRefEP11FT_FaceRec_NS_4lessIS2_EENS_9allocatorINS_4pairIKS2_S4_EEEEEixERS9_
BJa:__ZN17ArchiveFileSystem10AddStorageEP20ArchiveStorageReader
Gni:_Color_Equals_m661618137
yzc:__ZNK12b2MotorJoint16GetReactionForceEf
bFa:__ZN12_GLOBAL__N_112UploadFormatE13TextureFormat
vph:_EqualityComparer_1_System_Collections_IEqualityComparer_GetHashCode_m1203798961_gshared
C$i:__ZN6il2cpp2vm5Class15GetEnumBaseTypeEP11Il2CppClass
aob:__ZNK9Texture2D16GetNpotTexelSizeEv
Msh:_Mask_get_rectTransform_m3304369086
wOi:_TooltipAttribute__ctor_m2640804852
yui:_AnimatorControllerPlayable_INTERNAL_CALL_PlayInFixedTimeInternal_m847261734
WAa:__ZN9GfxDevice22GetDefaultVertexBufferE26GfxDefaultVertexBufferTypej
DGe:_Collection_1__ctor_m3903788797_gshared
BQe:_ReadOnlyCollection_1_System_Collections_ICollection_CopyTo_m1129689124_gshared
vQj:___fseeko_unlocked
y9h:__Z162RuntimeInvoker_Void_t1841601450_Il2CppObject_Int32_t2071877448_SByte_t454417549_SByte_t454417549_SingleU26_t4173844468_SingleU26_t4173844468_SingleU26_t4173844468PK10MethodInfoPvPS2_
Q_j:_glGetActiveUniform__wrapper
nQj:_sscanf
hub:__ZN14SafeBinaryRead21TransferSTLStyleArrayINSt3__26vectorI17BlendShapeChannelNS1_9allocatorIS3_EEEEEEvRT_17TransferMetaFlags
bja:__Z17BeginSplashScreenv
tQi:_Vector3__ctor_m2638739322_AdjustorThunk
cVb:__ZN9ShaderLab16SerializedShader8TransferI19StreamedBinaryWriteILb0EEEEvRT_
uMg:_UInt32_Parse_m2400360707
AA:__ZN7mecanim9animation18CreateAvatarMemoryEPKNS0_14AvatarConstantERNS_6memory9AllocatorE
uBd:_Stack_Pop_m3788808882
KPh:_Enumerator_VerifyCurrent_m4246196125_AdjustorThunk
tId:_DateTime_op_Equality_m1867073872
Pt:__ZN7mecanim8skeleton16SkeletonPoseCopyIN4math4trsXENS2_7affineXEEEvPKNS0_13SkeletonPoseTIT_EEPNS5_IT0_EE
CAa:__ZN18GfxFramebufferGLES18GetFramebufferNameERK20GfxRenderTargetSetup
jTj:_saveSetjmp
Xuj:__ZN6il2cpp6icalls8mscorlib6System2IO6MonoIO11GetFileTypeE12Il2CppIntPtrPi
hnc:__Z30Event_Get_Custom_PropCharacterP12Il2CppObject
WZ:__ZN13PlayableGraph27SchedulePlayableDestructionERK9HPlayable
YXj:_glGetFramebufferAttachmentParameteriv__wrapper
FGb:__Z22scripting_array_length17ScriptingArrayPtr
ogd:_SecurityElement_GetAttribute_m4288291176
RXi:_IndexedSet_1_get_Count_m2839545138_gshared
Tpa:__ZN14SafeBinaryRead20TransferTypelessDataEjPvi
y0g:_RenderPipelineManager_get_currentPipeline_m679160301
yUf:__ZL66StringFreezingAttribute_t2691375565_CustomAttributesCacheGeneratorP21CustomAttributesCache
Wqc:__ZN9rapidjson13GenericReaderINS_4UTF8IcEES2_13JSONAllocatorE10ParseFalseILj1ENS_25GenericInsituStringStreamIS2_EENS_15GenericDocumentIS2_S3_S3_EEEEvRT0_RT1_
w3h:__Z69RuntimeInvoker_Single_t2076509932_Int32_t2071877448_Int32_t2071877448PK10MethodInfoPvPS2_
l0:__Z19GetActiveColorSpacev
Jph:_EqualityComparer_1__cctor_m1672307556_gshared
Fvg:_SoapTypeAttribute_get_IsInteropXmlElement_m2941294827
gxb:__ZN14SpriteRenderer18UpdateCachedSpriteEv
Cqe:_Enumerator_System_Collections_IEnumerator_get_Current_m3542273247_gshared
aud:_Char_System_IConvertible_ToUInt32_m1557991717_AdjustorThunk
yld:_Encoding_get_UTF8Unmarked_m628720656
FWe:_NumberFormatter_RoundBits_m1545255255
T0:__Z6StrCmpPKcS0_
xWb:__Z21CheckGpuProgramUsable20ShaderGpuProgramType
mRg:_Binder__cctor_m3736115807
jDj:__ZN6il2cpp2os9Directory20GetFileSystemEntriesERKNSt3__212basic_stringIcNS2_11char_traitsIcEENS2_9allocatorIcEEEESA_iiPi
_mh:_Dictionary_2_OnDeserialization_m2160537783_gshared
bMc:__ZN20TextRenderingPrivate19NativeTextGenerator5SetupEv
jzb:__ZN12AspectRatios8TransferI18StreamedBinaryReadILb0EEEEvRT_
M4b:__ZN10GameObject14CopyPropertiesERS_
kpc:__Z44Register_UnityEngine_GUIStyle_get_fixedWidthv
Ocd:_RSACryptoServiceProvider_Common_m2581564813
yJi:_X509CertificateEnumerator_MoveNext_m4060814498
m5e:_MemoryStream_CheckIfClosedThrowDisposed_m2253054610
JCh:_ArrayReadOnlyList_1_GetEnumerator_m634288642_gshared
z7a:__ZNK13ScreenManager12IsFullScreenEv
QQj:_rand
zYj:_emscripten_glFramebufferRenderbuffer__wrapper
VDj:__ZN6il2cpp5utils9PathUtils7CombineIcEENSt3__212basic_stringIT_NS3_11char_traitsIS5_EENS3_9allocatorIS5_EEEERKNS0_10StringViewIS5_EERKSA_
yti:_AnimatorControllerPlayable_INTERNAL_CALL_GetNextAnimatorStateInfoInternal_m1550960895
uHb:__ZN14SafeBinaryRead21TransferSTLStyleArrayINSt3__26vectorI17AnimationCurveTplIfE13stl_allocatorIS4_L18MemLabelIdentifier1ELi16EEEEEEvRT_17TransferMetaFlags
Scc:__Z60Register_UnityEngine_AsyncOperation_set_allowSceneActivationv
Myg:_ObjectManager_RegisterObject_m872610295
Z0a:__Z22PrepareOptimizedPlanesPK5PlaneiPKN4math7_float4E
feh:_RectOffset_t3387826427_marshal_pinvoke
m0d:_Graphic_SetVerticesDirty_m1607014370
t7:__ZN17UniqueIDGenerator15CreatePureIndexEv
D7b:__ZN14dense_hash_mapI12TriangleEdgei16TriangleEdgeHashNSt3__28equal_toIS0_EENS2_9allocatorINS2_4pairIKS0_iEEEEEixERS7_
AB:__ZN11UnityEngine9Animation28GenericAnimationBindingCache15DidReloadDomainEv
Fmf:_AppDomain_InternalGetProcessGuid_m1278588156
E5d:_InputField_MoveRight_m386206014
E9d:_Array_InternalArray__ICollection_Remove_TisIl2CppObject_m2425110446_gshared
n2e:_BinaryReader_ReadBoolean_m2892291883
S_i:__ZN15dense_hashtableINSt3__24pairIK10KeyWrapperIPK22Il2CppGenericParameterEP11Il2CppClassEES6_N6il2cpp5utils11PointerHashIS4_EEN14dense_hash_mapIS6_S9_SE_NS6_14EqualsComparerINS0_8equal_toIS5_EEEENS0_9allocatorISA_EEE9SelectKeyESJ_SL_E14squash_deletedEv
Wzb:__ZNSt3__26__treeINS_12__value_typeIN4core12basic_stringIcNS2_20StringStorageDefaultIcEEEE4PPtrI6ObjectEEENS_19__map_value_compareIS6_SA_NS_4lessIS6_EELb1EEE13stl_allocatorISA_L18MemLabelIdentifier51ELi16EEE7destroyEPNS_11__tree_nodeISA_PvEE
Izc:__ZNK12b2MouseJoint17GetReactionTorqueEf
nlc:__Z14GUIClipTextureP9Texture2DPhiiii
swf:_TlsServerCertificate_validateCertificates_m1988583701
A0:__ZNK9Transform18TransformDirectionERK8Vector3f
J2g:_GUILayoutEntry_SetHorizontal_m1828181654
C1j:_emscripten_glClearStencil__wrapper
A9i:__ZN15dense_hashtableINSt3__24pairIK10KeyWrapperIPK11Il2CppClassEPKcEES6_N6il2cpp5utils11PointerHashIS3_EEN14dense_hash_mapIS6_S9_SE_NS6_14EqualsComparerINS0_8equal_toIS5_EEEENS0_9allocatorISA_EEE9SelectKeyESJ_SL_E12resize_deltaEjj
ASj:__ZNK10__cxxabiv120__si_class_type_info27has_unambiguous_public_baseEPNS_19__dynamic_cast_infoEPvi
zbj:__ZN6il2cpp2vm21ThreadPoolCompartment13QueueWorkItemEP17Il2CppAsyncResult
kWj:_glTexSubImage3D__wrapper
wJf:_FactoryCache_Add_m2602974721
aPa:__Z21WriteImageAsyncThreadPv
x6:__ZL16GetInterfaceImpl18UnityInterfaceGUID
AYe:_RegionInfo_construct_internal_region_from_name_m3316088619
V$i:__ZN6il2cpp2vmL17SetupFieldOffsetsENS0_15FieldLayoutKindEP11Il2CppClassjRKNSt3__26vectorIjNS4_9allocatorIjEEEE
pse:_List_1_System_Collections_IList_get_Item_m936612973_gshared
sFj:__ZN6il2cpp6icalls8mscorlib6System15MonoCustomAttrs27GetCustomAttributesInternalEP12Il2CppObjectP20Il2CppReflectionTypeb
fZc:_UNITY_TT_Set_MM_Blend
Wyg:_ObjectReader_ReadAssembly_m869834280
Fkb:__ZN22RenderingCommandBufferD0Ev
nMe:_Collection_1_IsSynchronized_m971497175_gshared
KSd:_ExecuteEvents_Execute_m1617536317
bAh:_Text_get_cachedTextGeneratorForLayout_m1357670532
wI:__ZL31InitializeAudioScriptingClassesv
zTa:__Z14SortGUIByDepthP10GUIElementS0_
m$e:_NumberFormatter_NumberToString_m126384393
c_j:_emscripten_glVertexAttrib4fv__wrapper
D6:__ZN13RuntimeStaticI13dynamic_arrayIPK31TransferFunctionScriptingTraitsLj4EELb0EE16StaticInitializeEPv
NBi:_LogicalCallContext__ctor_m3173272863
bti:_AnimatorControllerPlayable_IsParameterControlledByCurveString_m4036987523
u9e:_MonoCustomAttrs__cctor_m2608447972
$_e:_Int32_FindSign_m3803672540
VPh:_Enumerator_System_Collections_IEnumerator_Reset_m70453843_AdjustorThunk
AX:__ZNK20LocalFileSystemPosix21GetAvailableDiskSpaceEPKcRy
jaa:__ZNSt3__26__treeIiNS_4lessIiEENS_9allocatorIiEEE7destroyEPNS_11__tree_nodeIiPvEE
dGf:_X509Certificate2__ctor_m1095336775
uua:__ZNK9GfxDevice14GetWorldMatrixEv
n$g:_MonoProperty_GetGetMethod_m1100580870
jWa:__Z19scripting_array_new17ScriptingClassPtrjj
lN:__ZN11SoundHandle13CreateChannelEb
npb:__ZN14SafeBinaryRead21TransferSTLStyleArrayI13dynamic_arrayI12LightmapDataLj4EEEEvRT_17TransferMetaFlags
Zmf:_ArgumentException__ctor_m3312963299
GTb:__ZNSt3__26vectorIN9ShaderLab20SerializedSubProgram16TextureParameterENS_9allocatorIS3_EEE6assignIPS3_EENS_9enable_ifIXaasr21__is_forward_iteratorIT_EE5valuesr16is_constructibleIS3_NS_15iterator_traitsISA_E9referenceEEE5valueEvE4typeESA_SA_
RSi:_U3CCreateWhereIteratorU3Ec__Iterator1D_1_MoveNext_m3533253043_gshared
koj:__ZN15dense_hashtableINSt3__24pairIK10KeyWrapperIPK22Il2CppGenericParameterEPK24MonoGenericParameterInfoEES6_N6il2cpp5utils11PointerHashIS4_EEN14dense_hash_mapIS6_SA_SF_NS6_14EqualsComparerINS0_8equal_toIS5_EEEENS0_9allocatorISB_EEE9SelectKeyESK_SM_E15set_deleted_keyERKSB_
$If:_X509SubjectKeyIdentifierExtension__ctor_m3887138480
Koe:_Enumerator_System_Collections_IEnumerator_get_Current_m2853089017_AdjustorThunk
TAc:__ZN12b2WheelJoint24SolvePositionConstraintsERK12b2SolverData
Ng:_emscripten_exit_fullscreen
C3d:_InputField_get_mesh_m3276583786
Pwi:_GCHandle_Free_m1639542352_AdjustorThunk
PBj:__ZN6il2cpp6icalls8mscorlib6System6String19InternalAllocateStrEi
Rvc:__Z29Transfer_Blittable_ArrayFieldI8JSONRead11QuaternionfEvRT_R9ArrayInfoRK23StaticTransferFieldInfo
AWf:__ZL65SoapParameterAttribute_t2780084514_CustomAttributesCacheGeneratorP21CustomAttributesCache
Hdc:__Z45Register_UnityEngine_Camera_get_targetDisplayv
T2b:__ZNK24RendererAnimationBinding15GenerateBindingERKN4core12basic_stringIcNS0_20StringStorageDefaultIcEEEEbRN11UnityEngine9Animation14GenericBindingE
rkb:__Z15GetFlareManagerv
MCi:_Enumerator_System_Collections_IEnumerator_get_Current_m1429268283
iOe:_ReadOnlyCollection_1_System_Collections_Generic_ICollectionU3CTU3E_Clear_m388357963_gshared
POj:___toread
vT:__ZN19CloudServiceHandler10QueueEventEPN11UnityEngine15CloudWebService14CloudEventInfoE
bTj:___cxa_is_pointer_type
eld:_String_Concat_m56707527
vu:__ZN7mecanim9animation16EvaluateAvatarDXEPKNS0_14AvatarConstantEPKNS0_11AvatarInputEPNS0_12AvatarMemoryEPNS0_15AvatarWorkspaceEPNS0_12AvatarOutputE
gEa:__ZN4gles20DestroyRenderSurfaceEP7ApiGLESP17RenderSurfaceGLES
Joe:_Enumerator_System_Collections_IEnumerator_get_Current_m2853089017_gshared
Qjc:__Z34Transform_CUSTOM_SetAsFirstSiblingP12Il2CppObject
Aia:__ZN17PersistentManager40GlobalToLocalSerializedFileIndexInternalERK26SerializedObjectIdentifier
hR:__ZN11UnityEngine15CloudWebService17SessionEventQueue14ParseEventDataERKN4core12basic_stringIcNS2_20StringStorageDefaultIcEEEE
uQd:_BaseEventData_get_selectedObject_m3551206992
Ldf:_SimpleCollator_CompareOrdinal_m2176988387
ROd:_CCGregorianCalendar_GetYear_m1289900195
H5h:__Z441RuntimeInvoker_Boolean_t3825574718_Il2CppObject_Il2CppObject_Il2CppObject_ColorU26_t3402129837_Int32_t2071877448_Single_t2076509932_Single_t2076509932_Int32_t2071877448_SByte_t454417549_SByte_t454417549_Int32_t2071877448_Int32_t2071877448_Int32_t2071877448_Int32_t2071877448_SByte_t454417549_Int32_t2071877448_Single_t2076509932_Single_t2076509932_Single_t2076509932_Single_t2076509932_SByte_t454417549_SByte_t454417549_UInt32U26_t2197289955PK10MethodInfoPvPS2_
k$e:_Int16_ToString_m2592645088
_ya:__ZN13TranslateGLES4InitERK12GraphicsCaps16GfxDeviceLevelGL
vAg:_SerializationInfoEnumerator_Reset_m2206466680
gOa:__ZZ23InitPlayerLoopCallbacksvEN33PostLateUpdateInputEndFramestruct7ForwardEv
D4c:__Z32CustomEventData_CUSTOM_AddUInt32P12Il2CppObjectP12Il2CppStringj
XZi:_GenericEqualityComparer_1_Equals_m1934771410_gshared
gCb:__ZN24RingBufferMemoryFileDataD0Ev
AAb:__ZNSt3__26vectorIN30RuntimeInitializeOnLoadManager15ClassMethodInfoE13stl_allocatorIS2_L18MemLabelIdentifier12ELi16EEE8__appendEj
F0b:__ZN13ProduceHelperI10TagManagerLb0EE7ProduceE18MemLabelIdentifier18ObjectCreationMode
N0h:__Z84RuntimeInvoker_Il2CppObject_Il2CppObject_Il2CppObject_Il2CppObject_Int32_t2071877448PK10MethodInfoPvPS2_
SMj:__ZN6il2cpp2os6Memory12AlignedAllocEjj
zGj:__ZN6il2cpp8metadataL7CompareEPK10Il2CppTypeS3_
f1g:_GameObject_set_layer_m2712461877
Rqf:_RSAManaged__ctor_m1370411656
Gac:__ZL27GetComponentsImplementationILb0ELi0EEbR10GameObjectbRK17CompareParametersRK39GetComponentsImplementation_ReturnValue
qEf:_WebHeaderCollection_GetObjectData_m3940120977
LDb:__ZN9Scripting36IsSystemCollectionsGenericDictionaryE17ScriptingClassPtr
Yuh:_Raycast3DCallback_EndInvoke_m3234280377
MFi:_BalancingGroup__ctor_m2474435406
eZd:_ColorTweenCallback__ctor_m3619686788
M4:__ZL16ReadTypeTreeImplILb0EEbR8TypeTreeRK16TypeTreeIteratorRPKhS6_i
Isd:_Byte_System_IConvertible_ToInt32_m1032609763_AdjustorThunk
AWb:__ZN9ShaderLab7ProgramD0Ev
smb:__ZNK22BuiltinResourceManager21GetResourceInstanceIDEPKN5Unity4TypeERKN4core12basic_stringIcNS4_20StringStorageDefaultIcEEEE
Kwa:__ZN9GfxDevice15BeginFrameStatsEv
Sec:__Z42Register_UnityEngine_RectOffset_set_bottomv
Wvd:_ArrayListWrapper_IndexOf_m3574835167
uWa:__ZN28LightProbeProxyVolumeContext8CopyFromERKS_
H2a:__ZN23TransformChangeDispatch32QueueTransformChangeIfHasChangedER18TransformHierarchy
m$a:__ZN18DeferredRenderLoop15RenderFinalPassEP13RenderTextureS1_
hEa:__ZN7ApiGLES18DeleteRenderbufferERj
bDa:__ZL23ProgramUniformMatrix4fvPK7ApiGLESjiihPKv
oTb:__ZN9ShaderLab20SerializedSubProgram15MatrixParameter8TransferI14SafeBinaryReadEEvRT_
Y_e:_Int32_Parse_m124693431
Iac:__ZL27GetComponentsImplementationILb0ELi1EEbR10GameObjectbRK17CompareParametersRK39GetComponentsImplementation_ReturnValue
hYc:_Round_Down_To_Grid
zGg:_UTF8Decoder__ctor_m1460357288
tea:__ZN13RenderTexture7ReleaseEv
rvb:__ZN10MeshFilter23VirtualRedirectTransferER14SafeBinaryRead
i$a:__ZN19ShaderPropertySheet26SetTextureWithExplicitSizeEN9ShaderLab16FastPropertyNameE9TextureIDiiff
nCd:_Convert_ToByte_m1201588964
Bvb:__ZN12MeshRenderer17MainThreadCleanupEv
Gcc:__Z36AsyncOperation_Get_Custom_PropIsDoneP12Il2CppObject
SGa:__ZN22CreateGpuProgramOutput12CreateParamsEv
Qya:__ZNK14GfxContextGLES13GetDefaultFBOEv
O9d:_Array_InternalArray__ICollection_Remove_TisSByte_t454417549_m2474211570_gshared
lba:__ZN14GraphicsHelper5ClearE13GfxClearFlagsRK10ColorRGBAffjR17ShaderPassContext
cgj:_il2cpp_class_is_enum
Mrj:__ZN6il2cpp2vm6Thread49CheckCurrentThreadForInterruptAndThrowIfNecessaryEv
Wme:_GameObject_AddComponent_TisIl2CppObject_m3813873105_gshared
yga:__ZNSt3__23mapIN9ShaderLab16FastPropertyNameEN18UnityPropertySheet11UnityTexEnvENS_4lessIS2_EENS_9allocatorINS_4pairIKS2_S4_EEEEEixERS9_
Fta:__ZNK13TranslateGLES25GetTextureTargetDimensionEj
D4d:_InputField_SetToCustom_m250029371
qhe:_Array_InternalArray__set_Item_TisByte_t3683104436_m1694926640_gshared
zDi:_PatternCompiler_EmitInfo_m597931026
gof:_ModulusRing_Multiply_m3113924743
hjc:__Z47Texture2D_CUSTOM_INTERNAL_CALL_GetPixelBilinearP12Il2CppObjectffR10ColorRGBAf
Mi:_emscripten_glVertexAttrib4f
ONe:_ReadOnlyCollection_1_System_Collections_IEnumerable_GetEnumerator_m531171980_gshared
_Vb:__ZNSt3__26vectorIN20GpuProgramParameters14ConstantBufferENS_9allocatorIS2_EEE8__appendEj
Wje:_Array_Sort_TisUILineInfo_t3621277874_m3105833015_gshared
TYb:__Z15tessGetElementsP14TESStesselator
vse:_List_1_AddEnumerable_m2489692396_gshared
BRi:_WaitForSecondsRealtime__ctor_m1734539010
Hza:__ZN4gles10SetTextureER15DeviceStateGLESjjj19BuiltinSamplerState
Pwa:__ZN9GfxDevice18SetGlobalDepthBiasEff
rdj:__ZN6il2cpp6icalls8mscorlib6System8MonoType12get_AssemblyEP20Il2CppReflectionType
Zi:_emscripten_glGetPointerv
hu:__ZN8Animator22ApplyBuiltinRootMotionEv
irb:__ZN8Renderer23VirtualRedirectTransferER14SafeBinaryRead
STg:_DerivedType_get_UnderlyingSystemType_m3904230233
SWh:__Z135RuntimeInvoker_IntPtr_t_Il2CppObject_Int32_t2071877448_Int32_t2071877448_Int32_t2071877448_Int32_t2071877448_MonoIOErrorU26_t1029615899PK10MethodInfoPvPS2_
dTa:__Z27ConvertSubMeshesToTrianglesR13dynamic_arrayI7SubMeshLj4EERS_ItLj2EE
Q$i:__ZN6il2cpp2vmL15GetBitmapNoInitEP11Il2CppClassPjRjj
DHf:_X509Certificate2Collection__ctor_m819526826
ZH:__ZN12AudioManager5ResetEv
tpf:_KeyBuilder_Key_m3814433741
_mf:_ArgumentException__ctor_m158205422
wce:_Array_compare_TisVector3_t2243707580_m3709184876_gshared
f2d:_HorizontalLayoutGroup_SetLayoutHorizontal_m3237355818
_t:__ZN7mecanim5human14RetargetToTDoFEPKNS0_5HumanEPNS0_9HumanPoseEPNS_8skeleton13SkeletonPoseTIN4math4trsXEEESB_
SDj:__ZN6il2cpp6icalls8mscorlib6System11Environment20GetWindowsFolderPathEi
Brg:__ZL60AspectRatioFitter_t3114550109_CustomAttributesCacheGeneratorP21CustomAttributesCache
zy:__ZN7mecanim5human18HumanPoseBlendNodeERNS0_9HumanPoseEPS1_f
ZTc:_UNITY_FT_RoundFix
hWb:__ZN9ShaderLab20SerializedSubProgram15AddTextureParamEPKcii16TextureDimension
Pr:__ZNK8Animator26GetTypeInfoVirtualInternalEv
AHi:_Uri_get_Parser_m2250631932
cqi:_Event_GetHashCode_m2214628668
f0d:_Graphic_set_color_m646149893
Sga:__ZN14SafeBinaryRead19TransferSTLStyleMapINSt3__23mapIN4core12basic_stringIcNS3_20StringStorageDefaultIcEEEES7_NS1_4lessIS7_EE13stl_allocatorINS1_4pairIKS7_S7_EEL18MemLabelIdentifier1ELi16EEEEEEvRT_17TransferMetaFlags
X$c:__ZN2UI6Canvas27UpdateEventIndexesRecursiveERi
wx:__ZN7mecanim9animation18EvaluateRootMotionERKNS0_18ClipMuscleConstantERKNS0_15ClipMuscleInputEPKfS8_RNS0_12MotionOutputEb
nR:__ZN11UnityEngine15CloudWebService16SessionContainer21PrepareDataErrorEventERN4core12basic_stringIcNS2_20StringStorageDefaultIcEEEE
_Pc:_UNITY_FT_Outline_New
DMb:__Z19TransferField_ArrayI19StreamedBinaryWriteILb0EE27Converter_SimpleNativeClassI8GUIStyleEEvRK23StaticTransferFieldInfoR31RuntimeSerializationCommandInfoRT0_
mrg:__ZL70SpriteState_t1353336012_CustomAttributesCacheGenerator_m_PressedSpriteP21CustomAttributesCache
kxg:_RemotingServices_RegisterInternalChannels_m1827304423
x5g:_GUIStyle_get_onNormal_m1675201777
kr:__ZL32CleanupAnimationScriptingClassesv
obj:__ZNSt3__213__vector_baseIN6il2cpp2os19SocketHandleWrapperENS_9allocatorIS3_EEED2Ev
u7g:_GUIStyleState_Cleanup_m705006206
ic:invoke_viiffi
I7a:__ZN13sorted_vectorINSt3__24pairIN4core12basic_stringIcNS2_20StringStorageDefaultIcEEEEPK17MessageIdentifierEEN10vector_mapIS6_S9_NS0_4lessIS6_EENS0_9allocatorISA_EEE13value_compareESF_E10insert_oneERKSA_
IHg:_Thread_GetCachedCurrentUICulture_m5590127
pnb:__ZNK12CubemapArray20GetRuntimeMemorySizeEv
KQi:_Vector3_Dot_m3161182818
dUb:__Z14resize_trimmedINSt3__26vectorIN9ShaderLab18SerializedPropertyENS0_9allocatorIS3_EEEEEvRT_j
_Be:_List_1_CheckMatch_m4018158235_gshared
mef:_Context_t2636657155_marshal_pinvoke_back
i9i:__ZN6il2cpp2vm13MetadataCache38GetMethodInfoFromMethodDefinitionIndexEi
vsd:_Byte_System_IConvertible_ToDateTime_m1583041031
m2i:__ZL24UnresolvedVirtualCall_68P12Il2CppObjectS0_iS0_S0_S0_S0_S0_S0_PK10MethodInfo
wsb:__ZN10VertexData8TransferI24GenerateTypeTreeTransferEEvRT_
pEj:__ZN13Il2CppHashMapIPK19Il2CppGenericMethodP10MethodInfoN6il2cpp8metadata23Il2CppGenericMethodHashENS6_26Il2CppGenericMethodCompareENSt3__29allocatorINS9_4pairIK10KeyWrapperIS2_ES4_EEEEEC2EjRKS7_RKS8_
sqh:_EqualityComparer_1_System_Collections_IEqualityComparer_Equals_m1089835085_gshared
z0a:__ZL10CullLightsRK22SceneCullingParametersR11CullResults
l$d:_Dropdown__cctor_m264401557
wpd:_Array_IndexOf_m2819632474
UOh:_Comparer_1__cctor_m3996541505_gshared
cz:__ZN7mecanim12statemachine20GetBlendTreeConstantERKNS0_13StateConstantEi
M5b:__Z40GetTemporaryCachePathApplicationSpecificv
ava:__ZN9GfxDevice16EndAsyncJobFrameEv
UQc:_UNITY_tt_face_load_hhea
cCb:__ZN24RingBufferMemoryFileData11SetGrowableEb
Lqi:_PersistentCall__ctor_m2079279187
NBd:_Convert_ToBase64String_m1936815455
Sk:___syscall3
Vk:___syscall6
Xk:___syscall4
EKd:_Decimal_ToString_m759431975
WWd:_ColorBlock_get_fadeDuration_m987725262
fyj:__ZN6il2cpp2vm3RCW14QueryInterfaceILb1EEEP14Il2CppIUnknownP15Il2CppComObjectRK10Il2CppGuid
jCg:_CryptographicException__ctor_m2415891459
VFc:__ZNSt3__26__sortIR24RayHitsByDepthComparitorP12RaycastHit2DEEvT0_S5_T_
Uwc:__ZN27PerformanceReportingManager23VirtualRedirectTransferER14SafeBinaryRead
Tac:__ZN9Scripting25BroadcastScriptingMessageER10GameObjectPKc18ScriptingObjectPtr
kl:_emscripten_glShaderBinary
yod:_Array_InternalArray__RemoveAt_m1126483634
Pli:_Camera_INTERNAL_CALL_RaycastTry_m1030092423
pX:__ZNK20LocalFileSystemPosix6ExistsERK13FileEntryData
Lch:_RangeInt_get_end_m913869897
uBf:_DictionaryNodeEnumerator_get_DictionaryNode_m3521889822
Nu:__ZN7mecanim5human19MaskHasLeftFootGoalERKNS_6bitsetILj70EEE
mah:_Mesh_get_colors32_m4153271224
nHc:__ZNK17Physics2DSettings26GetTypeInfoVirtualInternalEv
p3c:__Z58Register_UnityEngine_Canvas_GetETC1SupportedCanvasMaterialv
fch:_Physics2D_INTERNAL_CALL_GetRayIntersectionAll_m161475998
GOb:__ZN17AnimationCurveTplIfE8TransferI18StreamedBinaryReadILb1EEEEvRT_
OId:_DateTimeOffset_GetHashCode_m3312197462_AdjustorThunk
T6c:__ZN18UnityConnectClientD2Ev
vfj:_il2cpp_set_data_dir
vHi:_Uri_get_IsUnc_m2111738174
RMi:_DataUtility_INTERNAL_CALL_GetPadding_m1621366113
c6c:__ZN11UnityEngine15PlatformWrapper30GetGraphicsDriverLibraryStringEv
_Pi:_Vector2_ToString_m775491729
Bqf:_EncryptedPrivateKeyInfo_Decode_m1706190306
IPb:__Z18Transfer_BlittableI18StreamedBinaryReadILb0EELb0E4AABBEvRK29SerializationCommandArgumentsR31RuntimeSerializationCommandInfo
VFd:_Convert_ToUInt16_m1665900934
xYe:_RegionInfo__ctor_m2058831971
b3a:__Z14DrawGUITextureRK5RectTIfEP7Texture11ColorRGBA32P8Materiali
iAh:_Text_get_supportRichText_m3291105891
Reh:_RectTransform_GetParentSize_m1571597933
Ys:__ZN9BlobWrite8TransferI22OffsetPtrArrayTransferIKN4math7_float4EEEEvRT_PKc17TransferMetaFlags
xxc:__ZNK11b2EdgeShape7RayCastEP15b2RayCastOutputRK14b2RayCastInputRK11b2Transformi
JCi:_MatchCollection_GetEnumerator_m3516985966
ntc:__ZN9JSONWrite8TransferI4AABBEEvRT_PKc17TransferMetaFlags
IFg:_UTF7Encoding__ctor_m2365939916
JKa:__ZN25MultiBlocksMemoryFileData9SetLengthEy
_M:__Z30GetAudioSpatializerDefinitionsR13dynamic_arrayIP29AudioEffectInternalDefinitionLj4EE
ANi:_TextGenerationSettings_Equals_m3944651893_AdjustorThunk
bth:_MatEntry__ctor_m3650167335
r8h:__Z143RuntimeInvoker_Void_t1841601450_Il2CppObject_Vector2_t2243707579_Vector2_t2243707579_Color32_t874517518_Vector2_t2243707579_Vector2_t2243707579PK10MethodInfoPvPS2_
XBc:__ZN10Collider2D13AwakeFromLoadE17AwakeFromLoadMode
GAb:__ZNSt3__26vectorIN30RuntimeInitializeOnLoadManager9ClassInfoE13stl_allocatorIS2_L18MemLabelIdentifier12ELi16EEE8__appendEj
Snb:__ZNK9Texture2D20GetRuntimeMemorySizeEv
ELg:_TypeInitializationException__ctor_m2993591639
tm:_emscripten_glUniform2iv
x_e:_Int16_System_IConvertible_ToInt64_m733340257
RMc:_UNITY_FT_Outline_Transform
bjc:__Z60Register_UnityEngine_Sprites_DataUtility_Internal_GetMinSizev
h0i:__ZN6il2cpp2vm5Class10GetMethodsEP11Il2CppClassPPv
mYa:__Z30AddDefaultStreamsToMeshBuffersR9GfxDeviceR11MeshBuffersRK16DrawBuffersRange17ShaderChannelMaskS6_
Ygd:_Hash_GetObjectData_m315532943
jza:__ZN7ApiGLES17DeleteFramebufferERN2gl6HandleILNS0_10ObjectTypeE9EEES3_
XFa:__ZN15UniformTFMethod13MapBoneBufferEj
Otf:_RecordProtocol_SendAlert_m2816808523
Z_c:__ZN2UI14CanvasRendererD2Ev
$Bi:_MethodCall_get_LogicalCallContext_m3769562079
ksj:__ZN6il2cpp6icalls8mscorlib6System5Array8SetValueEP11Il2CppArrayP12Il2CppObjectS5_
y7e:_SynchronizedReader_Read_m1399666181
PZg:_MonoEvent_get_Name_m2796714646
paa:__Z9SetupArgviPPKc
STd:_PointerEventData_set_worldNormal_m2025727441
Vuf:_Context_get_SentConnectionEnd_m3114190867
tnb:__ZN12CubemapArray23VirtualRedirectTransferER24GenerateTypeTreeTransfer
o5:__ZN12FileAccessor4OpenER15FileSystemEntry14FilePermission16FileAutoBehavior
mPe:_ReadOnlyCollection_1__ctor_m2364452928_gshared
iDj:__ZN6il2cpp2os9Directory6CreateERKNSt3__212basic_stringIcNS2_11char_traitsIcEENS2_9allocatorIcEEEEPi
G2a:__ZN23TransformChangeDispatch32QueueTransformChangeIfHasChangedERK15TransformAccess
vTd:_PointerEventData_set_clickTime_m3931922487
xWe:_NumberFormatter_AppendNonNegativeNumber_m629862866
Eia:__ZNSt3__26vectorINS_4pairIN9ShaderLab16FastPropertyNameEN18UnityPropertySheet11UnityTexEnvEEENS_9allocatorIS6_EEE21__push_back_slow_pathIKS6_EEvRT_
Mvi:_ResourceInfo__ctor_m2401359321_AdjustorThunk
aEj:__ZN6il2cpp2os26LibraryNamePrefixAndSuffixC2EPKcS3_
Tyd:_Hashtable__ctor_m392789568
rHg:_Mutex_CreateMutex_internal_m2352956576
JFg:_UTF7Encoding__cctor_m4192443836
ooc:__Z31GUIStyle_CUSTOM_SetFontInternalP12Il2CppObjectS0_
B:tempValue
B_e:_Int16_System_IConvertible_ToSingle_m3277935657
L_:__Z29scripting_class_from_fullnamePKcS0_S0_
Wuh:_Raycast3DCallback_Invoke_m2271859924
Bz:__ZN26AnimatorControllerPlayable18DeallocateBindingsEv
vN:__ZN11AudioSource19CreateOpenALRolloffEfff
HRc:_UNITY_FT_Stream_ReadAt
gpa:__ZN9Texture3D34UpdateFileTextureUploadInstructionEP28FileTextureUploadInstructionj
Z5g:_GUIStyle_get_lineHeight_m2132859383
_bi:__Z102RuntimeInvoker_Int32_t2071877448_Il2CppObject_UIVertex_t1204258818_Int32_t2071877448_Int32_t2071877448PK10MethodInfoPvPS2_
fri:_UnityEvent_FindMethod_Impl_m3303953986
JLg:_UInt16_System_IConvertible_ToBoolean_m887616848
ZO:__ZN11AudioModule22CreateAudioClipFromWWWEP10IWWWStreamPKcbbi
tEg:_StringBuilder_set_Length_m3039225444
lKe:_Collection_1_System_Collections_IList_Contains_m3870109702_gshared
Z8d:_Array_InternalArray__ICollection_Contains_TisRaycastResult_t21186376_m3188614988_gshared
EGd:_CultureAwareComparer_GetHashCode_m3681260951
W0c:__Z13RegisterClassIN2UI11CanvasGroupEEvv
vf:_emscripten_glClear
dvh:_Selectable__ctor_m1440593935
w3i:__ZL25UnresolvedVirtualCall_132P12Il2CppObject17Color_t2020392075faaaPK10MethodInfo
k5b:__ZNK8Playable6HandleEv
B3:__ZN14MessageHandler28MessageIDToMessageIdentifierEi
NCf:_HttpRequestCreator_Create_m3607509610
cLj:__ZN6il2cpp2vm10WaitHandle19NewManualResetEventEb
FQe:_ReadOnlyCollection_1_System_Collections_IList_Contains_m3707723158_gshared
GPg:_Version_GetHashCode_m880841176
$hi:_CustomEventData_Add_m4160204358
cE:__Z51Register_UnityEngine_Animator_get_hasBoundPlayablesv
gTi:_Nullable_1_ToString_m1238126148_AdjustorThunk
Md:emscriptenWebGLGetUniform
Ao:FUNCTION_TABLE_iiiiiiiiiii
a2a:__ZL10CleanUpJobP20CullingGroupsJobData
fud:_Char_CompareTo_m3044885427_AdjustorThunk
A3e:_FileStream_GetSecureFileName_m508045384
yJh:_InternalEnumerator_1_System_Collections_IEnumerator_get_Current_m2035754659_AdjustorThunk
qvb:__ZN10MeshFilter23VirtualRedirectTransferER24GenerateTypeTreeTransfer
W2a:__ZN13RenderManager15BatchModeUpdateEv
stb:__ZN14SafeBinaryRead21TransferSTLStyleArrayI13dynamic_arrayI8Vector2fLj4EEEEvRT_17TransferMetaFlags
zia:__ZN17PersistentManager51InstanceIDToLocalSerializedObjectIdentifierInternalEiR31LocalSerializedObjectIdentifier
$Dc:__ZN10ClipperLib7Clipper15SetWindingCountERNS_5TEdgeE
LWc:_UNITY_FT_Create_Class_cff_services
pd:_glVertexAttribIPointer
O9c:_HMAC_set_HashName_m457235014
z8b:__ZNK6Sprite10GetPaddingE20SpriteRenderDataMode
i8d:_Array_InternalArray__ICollection_Contains_TisTableRange_t2011406615_m605506746_gshared
zkh:_Dictionary_2_Add_m1296007576_gshared
DFd:_Decimal_op_Explicit_m729046406
tCg:_CryptoConfig_CreateFromName_m2169102076
F0d:_Graphic_OnEnable_m2900261811
wCg:_CryptographicUnexpectedOperationException__ctor_m3552441227
Kti:_AnimatorControllerPlayable_GetAnimatorClipInfoCountInternal_m826336390
Svd:_ArrayListWrapper_Clear_m321161741
I5d:_InputField_LineDownCharacterPosition_m2690468785
GRc:_UNITY_ft_glyphslot_alloc_bitmap
_je:_Array_Sort_TisVector2_t2243707579_TisVector2_t2243707579_m2582252549_gshared
JNg:_UInt64_System_IConvertible_ToDouble_m2828923873
tWh:__Z45RuntimeInvoker_Il2CppObject_Int16_t4041245914PK10MethodInfoPvPS2_
L$b:__ZZN2UI13RectTransform15InitializeClassEvEN31FunctorImpl_62kTransformChanged4CallEPviR11MessageData
Zxe:_List_1_System_Collections_IList_set_Item_m1129584681_gshared
aTc:_ft_raster1_render
eic:__Z57Register_UnityEngine_RectTransform_INTERNAL_set_anchorMaxv
Tse:_List_1_set_Capacity_m491101164_gshared
KRj:__ZNKSt3__221__basic_string_commonILb1EE20__throw_length_errorEv
REg:_StringBuilder_Insert_m1733097906
P0h:__Z88RuntimeInvoker_Void_t1841601450_Il2CppObject_Int32_t2071877448_Il2CppObject_Il2CppObjectPK10MethodInfoPvPS2_
Czf:_SslStreamBase_get_HashStrength_m480059173
Xih:_ValueCollection_System_Collections_Generic_ICollectionU3CTValueU3E_Clear_m3271993638_gshared
yBd:_Enumerator_MoveNext_m1419609883
mJ:__ZN4FMOD7Channel19setReverbPropertiesEPK29FMOD_REVERB_CHANNELPROPERTIES
a3:__ZN13MonoBehaviour22GetScriptFullClassNameEv
XCf:_ServicePointManager_FindServicePoint_m3137356168
Foa:__ZN20SphericalHarmonicsL211AddWeightedERKS_f
iUd:_PointerInputModule_GetPointerData_m1695674453
yJb:__Z19TransferField_ArrayI17RemapPPtrTransfer27Converter_SimpleNativeClassI8GUIStyleEEvRK23StaticTransferFieldInfoR31RuntimeSerializationCommandInfoRT0_
zGd:_Convert_ToUInt64_m345450801
jTi:_Predicate_1_BeginInvoke_m2559992383_gshared
iwj:__ZN6il2cpp2vm3RCW7CleanupEP15Il2CppComObject
yqc:__ZN9JSONWrite8TransferI10ColorRGBAfEEvRT_PKc17TransferMetaFlags
v3:__Z25scripting_method_get_name18ScriptingMethodPtr
nic:__Z35Register_UnityEngine_Resources_Loadv
hIb:__Z19TransferField_ArrayI14SafeBinaryRead16Converter_StringEvRK23StaticTransferFieldInfoR31RuntimeSerializationCommandInfoRT0_
dRj:_rename
bJj:_GC_exit_check
ubf:_NotSupportedException__ctor_m3232764727
lCf:_TypeConverterAttribute_Equals_m2330345916
a3e:_MonoIO_CreateDirectory_m379525469
Ps:__ZN9BlobWrite8TransferI22OffsetPtrArrayTransferI9OffsetPtrIN7mecanim12statemachine18StateMachineMemoryEEEEEvRT_PKc17TransferMetaFlags
bPc:_UNITY_ft_smooth_renderer_class_pic_free
JAe:_List_1_System_Collections_IList_Remove_m3763718607_gshared
mf:_emscripten_glStencilOpSeparate
$jd:_String_Concat_m2000667605
lbj:__ZN6il2cpp2os19SocketHandleWrapperC2ERKS1_
yCj:__ZN6il2cpp2os10ThreadImpl12QueueUserAPCEPFvPvES2_
K6c:__ZN22BaseUnityConnectClient10QueueEventERN11UnityEngine15CloudWebService17CloudServiceEventEPKcjb
dah:_Mesh_DefaultDimensionForChannel_m153181993
BYc:_UNITY_FT_Hypot
Lqd:_BitConverter_ToInt64_m1329623425
r0b:__ZN8RendererC2E12RendererType18MemLabelIdentifier18ObjectCreationMode
Yfj:_il2cpp_class_is_abstract
Ff:_emscripten_glGetError
$J:__Z14FMOD_FILE_SeekPvjS_
zBi:_MethodCall_get_Properties_m1893707917
Jgh:_ShimEnumerator_get_Entry_m2387156530_gshared
J4c:__Z56Register_UnityEngine_Analytics_CustomEventData_AddStringv
E3a:__ZNK13RenderTexture32CalculateNeedsInvertedProjectionEv
pbb:__ZN10systeminfo18GetOperatingSystemEv
Nf:emscriptenWebGLGet
aeh:_Rect_GetHashCode_m559954498_AdjustorThunk
u5:__Z19CanReplaceComponentRN5Unity9ComponentEPKNS_4TypeEPN4core12basic_stringIcNS5_20StringStorageDefaultIcEEEE
Y1b:__ZN12CubemapArray11InitTextureEiii13TextureFormatb
qac:__Z17GetSceneBuildInfoRKN4core12basic_stringIcNS_20StringStorageDefaultIcEEEEiR14SceneBuildInfo
rah:_Mesh_SetUVs_m841280343
nGf:_X509Certificate2_get_SignatureAlgorithm_m3069898012
WE:__Z105Register_UnityEngine_Experimental_Director_AnimatorControllerPlayable_INTERNAL_CALL_GetLayerCountInternalv
H0e:_Int64_System_IConvertible_ToSingle_m1678482180
fZh:__Z54RuntimeInvoker_Il2CppObject_IntPtr_t_Int32_t2071877448PK10MethodInfoPvPS2_
I6g:_GUIStyle_INTERNAL_CALL_Internal_CalcSizeWithConstraints_m1203344891
xt:__ZN7mecanim5human13HumanFixTwistEPKNS0_5HumanEPNS_8skeleton13SkeletonPoseTIN4math4trsXEEES9_iiRKf
WYa:__ZL24AssignProjectorQueuesJobP30AssignProjectorQueuesJobHeader
_Ig:_TimeSpan_get_Hours_m3804628138
O$d:_FontData_set_alignByGeometry_m2819509290
xxj:__ZN14dense_hash_mapI10KeyWrapperIP12Il2CppObjectEN6il2cpp2gc9CachedCCWENS4_5utils11PointerHashIS1_EENS3_14EqualsComparerINSt3__28equal_toIS2_EEEENSB_9allocatorINSB_4pairIKS3_S6_EEEEEC2EjRKS9_RKSE_
eWb:__ZN9ShaderLab20SerializedSubProgram14SetConstBufferEPKci
cnf:_ArgumentNullException__ctor_m911049464
nSi:_Check_Source_m3385315029
LUe:_Comparison_1_Invoke_m345024424_gshared
aVc:_cf2_getStdVW
NRe:_ReadOnlyCollection_1_System_Collections_IList_Insert_m3936197025_gshared
IV:__Z40DebugStringToFilePostprocessedStacktraceRK21DebugStringToFileData
Zuc:__Z29Transfer_Blittable_ArrayFieldI8JSONReadjEvRT_R9ArrayInfoRK23StaticTransferFieldInfo
Hbh:_Object_GetInstanceID_m1920497914
_Ih:_InternalEnumerator_1_get_Current_m314017974_AdjustorThunk
Jui:_AnimatorControllerPlayable_Play_m1337154648
sg:__setLetterbox
I4e:_MemoryStream__ctor_m1043059966
XNi:_TextGenerator_Populate_Internal_m1817393161
Jug:__ZN21InterfaceFuncInvoker3IP12Il2CppObjectP6Type_t28StreamingContext_t1417235061PS1_E6InvokeEjP11Il2CppClassS1_S3_S4_S5_
lub:__ZNSt3__26vectorI17BlendShapeChannelNS_9allocatorIS1_EEE6assignINS_11__wrap_iterIPS1_EEEENS_9enable_ifIXaasr21__is_forward_iteratorIT_EE5valuesr16is_constructibleIS1_NS_15iterator_traitsISA_E9referenceEEE5valueEvE4typeESA_SA_
R6d:_LayoutElement_set_preferredWidth_m3072758716
YEf:_AsnEncodedData_ToString_m724151831
l3a:__ZN11TimeManager11GetRealtimeEv
AIj:_GC_print_block_list
mK:__ZN29AudioEffectInternalDefinitionC2EP26UnityAudioEffectDefinitionb
BZg:_MonoMethodInfo_GetDeclaringType_m4186531677
Hvg:_SoapTypeAttribute_SetReflectionObject_m1566293812
b_i:_Enumerator_System_Collections_IEnumerator_Reset_m2573763156_AdjustorThunk
txg:_RemotingServices_CreateClientProxy_m1631035355
nOg:_UInt64_ToString_m2892887310
Ljd:_String_System_IConvertible_ToType_m512800076
wEj:__ZN15dense_hashtableINSt3__24pairIK10KeyWrapperIPK19Il2CppGenericMethodEP10MethodInfoEES6_N6il2cpp8metadata23Il2CppGenericMethodHashEN14dense_hash_mapIS6_S9_SD_NS6_14EqualsComparerINSC_26Il2CppGenericMethodCompareEEENS0_9allocatorISA_EEE9SelectKeyESH_SJ_EC2ERKSM_j
FBc:__ZN24b2ChainAndCapsuleContact6CreateEP9b2FixtureiS1_iP16b2BlockAllocator
hKa:__Z37ReadDirectoryInfo_UnityWebAndUnityRawR12FileAccessorRKN20ArchiveStorageHeader6HeaderERNS1_13DirectoryInfoE
O0:__ZNSt3__26__treeINS_12__value_typeIPKciEENS_19__map_value_compareIS3_S4_15compare_tstringIS3_ELb1EEENS_9allocatorIS4_EEE7destroyEPNS_11__tree_nodeIS4_PvEE
dnh:_Dictionary_2_ToTValue_m1381983709_gshared
mbf:_MulticastDelegate_KPM_m1592985119
YMe:_Collection_1_ConvertItem_m3941916604_gshared
VVa:__ZN20DynamicPropertySheet14SetValueQueuedEN9ShaderLab16FastPropertyNameEN19ShaderPropertySheet12PropertyTypeEjNS2_8SetFlagsE
I$c:__ZN2UI6Canvas26MarkAllNestedCanvasesDirtyEv
Wvj:__ZN6il2cpp2vm12ReboxIfBoxedEP14Il2CppIUnknownP11Il2CppClass
Gye:_List_1__ctor_m2766376432_gshared
a8a:__ZN25PathNamePersistentManagerD2Ev
T1:__ZN17PersistentManager48IntegrateObjectAndUnlockIntegrationMutexInternalEi
rp:__ZN6Object12SetHideFlagsENS_9HideFlagsE
OGc:__ZN9b2Fixture11SynchronizeEP12b2BroadPhaseRK11b2TransformS4_
AYj:_emscripten_glGetFramebufferAttachmentParameteriv__wrapper
eRa:__ZN13RendererScene15InitializeUmbraEv
sji:_AnimatorTransitionInfo_IsName_m2561957738_AdjustorThunk
poa:__Z28CalculateGlobalMatrixInverse23TransformAccessReadOnly
ssc:__ZN4PPtrI6ObjectE8TransferI9JSONWriteEEvRT_
dUd:_PointerEventData_ToString_m1218584363
RFg:_UTF7Encoding_GetCharCount_m2589913583
m$h:__Z91RuntimeInvoker_DateTime_t693205669_Il2CppObject_Il2CppObject_Il2CppObject_Int32_t2071877448PK10MethodInfoPvPS2_
xQa:_UNITY_png_write_sCAL_s
z5e:_MemoryStream_CalculateNewCapacity_m3533542025
sNj:__ZN6il2cpp6icalls8mscorlib6System6Object7GetTypeEP12Il2CppObject
q6i:__ZNK15dense_hashtableINSt3__24pairIK10KeyWrapperIPKcEP11Il2CppClassEES5_N6il2cpp5utils11StringUtils12StringHasherIS4_EEN14dense_hash_mapIS5_S8_SE_NS5_14EqualsComparerINSC_21CaseSensitiveComparerEEENS0_9allocatorIS9_EEE9SelectKeyESI_SK_E5beginEv
zJg:_TimeSpan_Equals_m4102942751_AdjustorThunk
Wih:_ValueCollection_System_Collections_Generic_ICollectionU3CTValueU3E_Add_m1903672223_gshared
zG:__ZN4FMOD6SoundI7releaseEv
cwb:__ZN14SpriteRenderer13AwakeFromLoadE17AwakeFromLoadMode
XKa:__ZN10MemoryFile9SetLengthEy
zMg:_UInt16_ToString_m2038947049_AdjustorThunk
Toh:_DefaultComparer_Equals_m3143385420_gshared
tpb:__ZN14SafeBinaryRead21TransferSTLStyleArrayI13dynamic_arrayI7Hash128Lj8EEEEvRT_17TransferMetaFlags
_Db:__Z28scripting_class_is_interface17ScriptingClassPtr
Ih:_glTexStorage2D
TVb:__ZNK9ShaderLab10SubProgram14EnsureCompiledEv
Pzg:_ObjectManager_RecordFixup_m3572285566
fBa:__ZN18AsyncUploadManager22WaitForActiveAsyncReadEv
vAd:_SortedList_InitTable_m460350503
n3:__Z18BuildScriptClassId17ScriptingClassPtr
SFh:_InternalEnumerator_1_get_Current_m4279678504_AdjustorThunk
Gq:__ZNK16LevelGameManager7GetNameEv
A2b:__ZN8Renderer28HandleParentHierarchyChangesEPK23TransformAccessReadOnlyj
SX:__ZL31DeleteLastPathNameComponentImplRKN4core12basic_stringIcNS_20StringStorageDefaultIcEEEEPKc
i_b:__Z13RegisterClassI18DelayedCallManagerEvv
W6c:__ZN18UnityConnectClient15GetCloudServiceEv
MJb:__Z18Transfer_BlittableI24GenerateTypeTreeTransferLb0EiEvRK29SerializationCommandArgumentsR31RuntimeSerializationCommandInfo
ibj:__ZN6il2cpp2os19SocketHandleWrapperD2Ev
jBc:__ZN15b2CircleContact6CreateEP9b2FixtureiS1_iP16b2BlockAllocator
WDb:__ZL28SerializationCommandGroupForRK31TransferFunctionScriptingTraits17ScriptingClassPtr17ScriptingFieldPtrRK20CoreScriptingClasses
iib:__ZN10TagManager32RegisterDefaultTagsAndLayerMasksEv
ifb:__ZN14CachingManager12ReadInfoFileERKN4core12basic_stringIcNS0_20StringStorageDefaultIcEEEEPlPNSt3__26vectorIS4_NS8_9allocatorIS4_EEEE
R4c:__Z56Register_UnityEngine_Analytics_CustomEventData_AddUInt32v
ovd:_ArrayList_InsertRange_m1478230997
Zya:__ZN4gles8InitCapsEP7ApiGLESP12GraphicsCapsR16GfxDeviceLevelGL
nja:__ZN6prcore14BlitImageFloatERK14ImageReferenceRS0_NS0_8BlitModeE
D9g:_Matrix4x4_Equals_m1321236479_AdjustorThunk
pi:_glEnable
ahb:__ZNK13Lz4Compressor29CalculateCompressedBufferSizeEj
bcj:__ZN6il2cpp2vm19SocketPollingThreadC2Ev
KTa:__ZNK25CameraStackRenderingState21GetImageEffectTextureEb
QAg:_RuntimeMethodHandle__ctor_m2437574937_AdjustorThunk
_Lg:_UInt16_System_IConvertible_ToInt64_m2835280558_AdjustorThunk
W4f:__ZL53g_UnityEngine_Assembly_CustomAttributesCacheGeneratorP21CustomAttributesCache
TTi:_Predicate_1_BeginInvoke_m3926587117_gshared
Pzb:__ZNSt3__26vectorI4PPtrI6ObjectE13stl_allocatorIS3_L18MemLabelIdentifier51ELi16EEE6assignINS_11__wrap_iterIPS3_EEEENS_9enable_ifIXaasr21__is_forward_iteratorIT_EE5valuesr16is_constructibleIS3_NS_15iterator_traitsISD_E9referenceEEE5valueEvE4typeESD_SD_
Mve:_List_1_get_Item_m1231764300_gshared
UZd:_DefaultControls_CreateToggle_m1568873127
Pmh:_Dictionary_2_InitArrays_m2270022740_gshared
E5c:__ZN11UnityEngine7Connect15DeviceInfoEvent16CollectExtraInfoEv
k$h:__Z115RuntimeInvoker_Boolean_t3825574718_Il2CppObject_Int32_t2071877448_Il2CppObject_SByte_t454417549_Int32U26_t455636984PK10MethodInfoPvPS2_
cFg:_UnicodeEncoding_GetChars_m3765282346
v1e:_IntPtr__ctor_m4104029105
kKh:_InternalEnumerator_1_System_Collections_IEnumerator_get_Current_m771161214_AdjustorThunk
kaf:_MonoType_get_attributes_m1493788675
fLj:__ZN6il2cpp6icalls8mscorlib6System10Reflection9FieldInfo25internal_from_handle_typeE12Il2CppIntPtrS5_
bKj:__ZThn8_N6il2cpp2vm13CachedCCWBaseINS0_13ManagedObjectEE6AddRefEv
wEd:_Convert_ToDouble_m4236754739
e$d:_Dropdown_CreateItem_m2702141380
bRf:__ZL48Stack_t1043988394_CustomAttributesCacheGeneratorP21CustomAttributesCache
Eo:FUNCTION_TABLE_viifi
Fo:FUNCTION_TABLE_viiff
MZg:_MonoEvent_GetAddMethod_m4289563120
jPf:__ZL37Type_t_CustomAttributesCacheGeneratorP21CustomAttributesCache
QYc:_UNITY_tt_face_free_hdmx
xhj:__ZN6il2cpp2vm14TypeNameParser5ParseEb
Kuh:_ReflectionMethodsCache__ctor_m1835220
d9c:__ZN23UnityPurchasingSettingsC2Ev
KMd:_Double_ToString_m1864290157
ASh:__Z63RuntimeInvoker_Il2CppObject_Int16_t4041245914_Int32_t2071877448PK10MethodInfoPvPS2_
GIh:_InternalEnumerator_1_get_Current_m4154059426_AdjustorThunk
dzj:__ZNK24NamespaceAndNamePairHashclERKNSt3__24pairIPKcS3_EE
ypa:__ZL37stbir__resample_horizontal_downsampleP11stbir__infoiPf
Qma:__ZNK5Unity9Component38MarkGameObjectAndComponentDependenciesER27GarbageCollectorThreadState
aY:__ZL16OutOfMemoryErrorjj18MemLabelIdentifieriPKc
HPa:_UNITY_png_write_data
nQb:__Z18Transfer_BlittableI18StreamedBinaryReadILb0EELb1EdEvRK29SerializationCommandArgumentsR31RuntimeSerializationCommandInfo
sMc:__ZN13sorted_vectorIN20TextRenderingPrivate8FontImpl13CharacterInfoENSt3__24lessIS2_EE13stl_allocatorIS2_L18MemLabelIdentifier1ELi16EEE10insert_oneERKS2_
rZe:_Guid__ctor_m2599802704
_3e:_FileStream_get_CanRead_m4148920720
KBa:__ZN4crnd12symbol_codec32decode_receive_static_data_modelERNS_25static_huffman_data_modelE
G$b:__ZN18ScriptingArguments8AddFloatEf
MXe:_GregorianCalendar_set_CalendarType_m2438362222
g9d:_Array_InternalArray__ICollection_Contains_TisVector2_t2243707579_m3625698589_gshared
_rc:__Z18Transfer_BlittableI9JSONWriteLb0EaEvRK29SerializationCommandArgumentsR31RuntimeSerializationCommandInfo
JQ:__ZN11UnityEngine15CloudWebService14DataDispatcher34OnSessionContainerArchivedAndReadyERNS0_16SessionContainerE
RCc:__ZN7b2World11CreateJointEPK10b2JointDef
vYe:_NumberFormatInfo_GetFormat_m3247563525
Fsf:_CipherSuiteCollection__ctor_m2154226461
FLb:__Z18Transfer_BlittableI19StreamedBinaryWriteILb0EELb0E8Vector3fEvRK29SerializationCommandArgumentsR31RuntimeSerializationCommandInfo
b2g:_RectOffset__ctor_m2227510254
mSb:__ZN14SafeBinaryRead19TransferSTLStyleMapINSt3__23mapIN4core12basic_stringIcNS3_20StringStorageDefaultIcEEEEiNS1_4lessIS7_EENS1_9allocatorINS1_4pairIKS7_iEEEEEEEEvRT_17TransferMetaFlags
xQc:_gray_move_to
xDg:_DSAParameters_t1872138834_marshal_pinvoke
nBi:_ConstructionCall_InitDictionary_m4046452035
hBb:__ZN5Cache9URLToPathERKN4core12basic_stringIcNS0_20StringStorageDefaultIcEEEE7Hash128
Bmj:__ZN6il2cpp2vm10Reflection14GetEventObjectEP11Il2CppClassPK9EventInfo
Ytf:_TlsStream_Write_m2271546135
iac:__Z30RegisterValidateMethodCallbackiPF18ScriptingMethodPtrS_17ScriptingClassPtrP6ObjectEPKc
HPd:_CultureInfo_ConstructInternalLocaleFromCurrentLocale_m1342751405
fEg:_Latin1Encoding_GetString_m3553289597
VRc:_tt_cmap_init
$Ca:__ZL25ProgramUniformMatrix4x2fvPK7ApiGLESjiihPKv
fxj:__ZN15dense_hashtableI10KeyWrapperIP18Il2CppGenericClassES3_N6il2cpp8metadata22Il2CppGenericClassHashEN14dense_hash_setIS3_S6_NS3_14EqualsComparerINS5_25Il2CppGenericClassCompareEEENSt3__29allocatorIS3_EEE8IdentityESA_SD_E12maybe_shrinkEv
m$b:__ZN9TextAssetC2E18MemLabelIdentifier18ObjectCreationMode
Bpi:_Display_RecreateDisplayList_m3412638488
d2j:_emscripten_glCheckFramebufferStatus__wrapper
jrj:__ZNK15dense_hashtableINSt3__24pairIK10KeyWrapperIP11Il2CppClassES4_EES5_N6il2cpp8metadata16SZArrayClassHashEN14dense_hash_mapIS5_S4_SA_NS5_14EqualsComparerINS9_19SZArrayClassCompareEEENS0_9allocatorIS7_EEE9SelectKeyESE_SG_E12test_deletedEj
tuc:__Z18Transfer_BlittableI8JSONReadLb0EdEvRK29SerializationCommandArgumentsR31RuntimeSerializationCommandInfo
PHg:_Thread_ClrState_m822263449
Zdf:_SimpleCollator_LastIndexOfOrdinalIgnoreCase_m550798345
B6g:_GUIStyle_INTERNAL_CALL_Internal_GetCursorStringIndex_m3074318281
Vm:FUNCTION_TABLE_viiiiiifiii
vua:__ZNK9GfxDevice13GetViewMatrixEv
ana:__ZN17RemapPPtrTransferC2E24TransferInstructionFlagsb
K4:__ZN8TypeTree8BlobReadERPKhS1_ib
ola:__ZN11prophecysdk4half7convertEi
_ib:__ZN6CameraD0Ev
yff:_ModulusRing_Multiply_m386339435
h9:__ZN31CanvasBatchIntermediateRenderer16StaticInitializeEPv
z1d:_GraphicRaycaster_U3CRaycastU3Em__0_m3971200721
fQe:_ReadOnlyCollection_1_System_Collections_IList_RemoveAt_m3004588099_gshared
cEd:_Decimal_op_Implicit_m4246329390
enf:_ArgumentNullException__ctor_m2252076819
h5a:__ZN10GameObjectC2E18MemLabelIdentifier18ObjectCreationMode
APc:_raccess_guess_apple_double
mBf:_ListDictionary_GetEnumerator_m1511032609
lzg:_SerializationInfo__ctor_m4016423422
JCa:__ZL18ProgramUniform1uivPK7ApiGLESjiihPKv
g2b:__ZN14Texture2DArray13RebuildMipMapEv
A5i:__ZN13Il2CppHashSetIPK17Il2CppGenericInstN6il2cpp8metadata21Il2CppGenericInstHashENS4_24Il2CppGenericInstCompareENSt3__29allocatorI10KeyWrapperIS2_EEEEC2EjRKS5_RKS6_
EDj:__ZN6il2cpp2gc16GarbageCollector14RemoveWeakLinkEPPv
fWb:__ZN9ShaderLab20SerializedSubProgram14AddVectorParamEPKcii15ShaderParamTypei
OSe:_ReadOnlyCollection_1_System_Collections_IEnumerable_GetEnumerator_m1734360860_gshared
Yvi:_ResourceSet_ReadResources_m1669023823
nlf:_PKCS12_RemoveCertificate_m1590055870
Xrj:__ZN6il2cpp2vm6Thread7SetNameEP12Il2CppThreadP12Il2CppString
$aa:__ZN13ScreenManager18SetAllowCursorLockEb
xAb:__ZN30RuntimeInitializeOnLoadManager15ClassMethodInfo8TransferI14SafeBinaryReadEEvRT_
WCb:__ZN9TextAsset8TransferI14SafeBinaryReadEEvRT_
Jrg:__ZL73CanvasScaler_t2574720772_CustomAttributesCacheGenerator_m_ScreenMatchModeP21CustomAttributesCache
wP:__ZL22InitializeModule_Audiov
oFc:__ZN16Physics2DManager13DynamicUpdateEv
Bab:__ZN16MemoryFileSystem8IsLockedERK13FileEntryData
WPi:_Vector2_get_Item_m2792130561_AdjustorThunk
tZg:_MonoCMethod_Invoke_m931478014
dwi:_SatelliteContractVersionAttribute__ctor_m2605651717
Yk:_emscripten_glBindRenderbuffer
OUg:_EnumBuilder_HasElementTypeImpl_m1414733955
aoc:__Z32GUIStyle_Set_Custom_PropClippingP12Il2CppObjecti
YIj:_GC_dirty_init
spd:_Array_Copy_m1969461849
Fyg:_MessageFormatter_ReadMethodResponse_m4134629501
Eyj:__ZN6il2cpp2vm5Field14GetValueObjectEP9FieldInfoP12Il2CppObject
L0c:__ZNK2UI6Canvas16GetTargetDisplayEv
fJi:_PKCS12_GetSymmetricAlgorithm_m3196291685
SNd:_Environment_get_OSVersion_m1247315981
$7:__ZN6Object17FindObjectsOfTypeEPKN5Unity4TypeER13dynamic_arrayIPS_Lj4EEb
Yri:_AnimationOffsetPlayable_INTERNAL_CALL_GetRotation_m2705874827
sDb:__ZN13MonoBehaviour17RemoveFromManagerEv
Bjb:__ZN12ImageFilters14AddImageFilterERK11ImageFilter
Srb:__ZL11DecodeValuePPKcS0_
bhh:_ShimEnumerator_MoveNext_m2013866013_gshared
LU:__ZN13MemoryManagerC2Ev
FFa:__ZN12SkinMeshInfo10DeallocateEPS_
oBj:__ZNK6il2cpp5utils11StringUtils21CaseSensitiveComparerclEPKcS4_
vPi:_Transform_SetParent_m1963830867
iNa:__ZN20ArchiveStorageReader28AcquireAndPrefillUnusedBlockEjPNS_11CacheResultE
K$h:__Z78RuntimeInvoker_Il2CppObject_SByte_t454417549_SByte_t454417549_SByte_t454417549PK10MethodInfoPvPS2_
a2b:__Z12NHxRoughnessIA4_tEvP9Texture2DPT_iiii
z8:__ZN18AsyncUploadManagerD2Ev
VXb:__ZN9Transform5ResetEv
tLb:__Z22TransferField_NonArrayI24GenerateTypeTreeTransfer16Converter_StringEvRK23StaticTransferFieldInfoR31RuntimeSerializationCommandInfoRT0_
MRc:_UNITY_FT_CMap_New
uwb:__ZNK17InstancedPropInfo21RenderSpriteInstancesERK15RenderNodeQueuePK17BatchInstanceDataj17ShaderChannelMask
Saa:__Z17MainLoopKeepalivePv
ysi:_AnimatorControllerPlayable_INTERNAL_CALL_SetBoolString_m1232105510
BCi:_MatchCollection__ctor_m1944681790
yad:_HMACSHA512__ctor_m1667460019
U1a:__Z24ScheduleCullingAllGroupsR8JobFenceRK22SceneCullingParameters4PPtrI6CameraERK13CullingOutputRK13dynamic_arrayIP12CullingGroupLj4EERKS_
m1a:__Z14CalcHullBoundsPK8Vector3fPKhhRK5PlaneRK10Matrix4x4fR10MinMaxAABB
Awg:_RealProxy__ctor_m2147093603
QVa:__Z19SetupLODFadeKeywordR17ShaderPassContexti
JCj:__ZN6il2cpp2os10ThreadImpl22SetNativeThreadCleanupEPFvPvE
YEa:__ZL25CheckCopyTextureArgumentsRK7ApiGLESP11GLESTextureS3_
t8:__ZN13dynamic_arrayI26EnlightenSystemInformationLj8EE6insertEPS0_PKS0_S4_
qRc:_tt_name_entry_ascii_from_utf16
obf:_MulticastNotSupportedException__ctor_m2164514827
ZGd:_DateTime_System_IConvertible_ToChar_m2489529194_AdjustorThunk
_Kb:__Z29Transfer_Blittable_ArrayFieldI24GenerateTypeTreeTransferyEvRT_R9ArrayInfoRK23StaticTransferFieldInfo
EJ:__ZN4FMOD7SystemI9playSoundE17FMOD_CHANNELINDEXPNS_5SoundEbPPNS_7ChannelE
mki:_AttributeHelperEngine_GetRequiredComponents_m120894667
UY:__GLOBAL__sub_I_runtime_graphics_mesh2_lump_cpp
uhj:__ZN6il2cpp2os4File4ReadEPNS0_10FileHandleEPciPi
aI:__ZN12AudioManager23VirtualRedirectTransferER18StreamedBinaryReadILb0EE
Ttb:__ZN10VertexData13SwapEndianessEv
uRj:_realloc
Yjc:__Z57Register_UnityEngine_Transform_INTERNAL_get_localRotationv
Xxh:_ScrollRect_SetLayoutVertical_m1225848090
pKg:_Type_get_IsInterface_m3583817465
sVj:dynCall_viif
d_g:_MonoField_get_DeclaringType_m1591666235
CLf:_Enumerator_MoveNext_m4234629003
vS:__ZN11UnityEngine15CloudWebService13WWWRestClient21ParseHTTPHeaderStringEN4core12basic_stringIcNS2_20StringStorageDefaultIcEEEERNS0_16WWWRestHeaderMapERjPKc
bWc:_cf2_hint_lock
aJb:__ZL26Transfer_SimpleNativeClassI17RemapPPtrTransfer8GradientLb0EEvRK29SerializationCommandArgumentsR31RuntimeSerializationCommandInfo
v8i:__ZNK15dense_hashtableINSt3__24pairIK10KeyWrapperI13dynamic_arrayIPK10Il2CppTypeLj4EEEPFvvEEES8_N6il2cpp8metadata19Il2CppSignatureHashEN14dense_hash_mapIS8_SB_SF_NS8_14EqualsComparerINSE_22Il2CppSignatureCompareEEENS0_9allocatorISC_EEE9SelectKeyESJ_SL_E10test_emptyEj
khb:__ZNSt3__26vectorIN20ArchiveStorageHeader12StorageBlockE13stl_allocatorIS2_L18MemLabelIdentifier54ELi16EEE21__push_back_slow_pathIKS2_EEvRT_
sdj:__ZN6il2cpp6icalls8mscorlib6System8MonoType14get_attributesEP20Il2CppReflectionType
Jeb:__Z43DestroyWithoutLoadingButDontDestroyFromFilei
laf:_MonoType_GetDefaultConstructor_m925465120
eLg:_Type_IsArrayImpl_m3073208555
NTj:dynCall_viiiiiffi
Gc:_emscripten_glBlendFuncSeparate
v_:__Z20scripting_string_newPKc
vic:__Z43Material_CUSTOM_Internal_CreateWithMaterialP12Il2CppObjectS0_
V2e:_Directory_GetCurrentDirectory_m44486537
NDe:_Collection_1_System_Collections_ICollection_CopyTo_m1047946700_gshared
Ucj:_BacteriaController__reset_m2062403076
dFf:_AsnEncodedData_Default_m4197142414
gF:__Z103Register_UnityEngine_Experimental_Director_AnimatorControllerPlayable_INTERNAL_CALL_ResolveHashInternalv
bu:__ZNSt3__26__sortIRPFbPKN8Animator11AnimatorJobES4_EPS4_EEvT0_S9_T_
qH:__ZN17AudioCustomFilterD2Ev
Fmc:__ZNK8GUIStyle13GetLineHeightEv
dEa:__ZN18GfxFramebufferGLES18ReleaseFramebufferEP17RenderSurfaceBaseP14GfxContextGLES
uzi:_Context_GetDynamicPropertyCollection_m1987747444
qGf:_X509Certificate2_get_Version_m1927399907
Y3b:__ZN13ProduceHelperI6CameraLb0EE7ProduceE18MemLabelIdentifier18ObjectCreationMode
f3d:_Image_RadialCut_m3229543088
MT:__ZN19CloudServiceHandler34HandleSaveFileWebRequestPlayerLoopEv
Vz:__ZN7mecanim21ValueArrayReverseCopyEPKNS_18ValueArrayConstantEPKNS_10ValueArrayES2_PS3_PKi
bH:__Z31GetParentSampleClipFromInstancePN11SoundHandle8InstanceE
M$b:__ZNK28RectTransformPropertyBinding13GetFloatValueERKN11UnityEngine9Animation10BoundCurveE
a4a:__ZN6Camera22StandaloneCustomRenderENS_10RenderFlagEP6ShaderRKN4core12basic_stringIcNS3_20StringStorageDefaultIcEEEEPNS_21PerformRenderFunctionE
NNj:__ZN6il2cpp2os16ThreadLocalValue8GetValueEPPv
N9i:__ZN6il2cpp2vm13MetadataCache14GetGenericInstEPKPK10Il2CppTypej
ded:_SHA384Managed_Initialize_m712692291
Pb:invoke_iiidii
okc:__Z52Object_CUSTOM_GetOffsetOfInstanceIDInCPlusPlusObjectv
lp:setThrew
U1b:__ZL21BuildEmptyCubeTexturePKci11ColorRGBA3217TextureColorSpace
pSb:__ZN14SafeBinaryRead21TransferSTLStyleArrayINSt3__26vectorIN9ShaderLab20SerializedSubProgramENS1_9allocatorIS4_EEEEEEvRT_17TransferMetaFlags
Gtc:__Z15Transfer_StringI8JSONReadLb1EEvRK29SerializationCommandArgumentsR31RuntimeSerializationCommandInfo
Fka:__ZN6prcoreL17RemapGenericFloatI17TexFormatRGBFloat15TexFormatRGHalfEEvPKNS_9InnerInfoE
tXa:__Z25DoForwardShaderRenderLoopR17RenderLoopContextR13dynamic_arrayI16RenderObjectDataLj4EERK11CullResultsbbbN6Camera10RenderFlagE
QQc:_sfnt_load_face
wkf:_PKCS12_GetSymmetricAlgorithm_m1812022677
hGg:_UTF8Encoding_GetByteCount_m2372933408
rzi:_Context_get_NeedsContextSink_m1907794755
HQc:_UNITY_ft_service_list_lookup
spf:_ARC4Managed_GenerateKey_m716135508
fmc:__ZN5IMGUI21SelectReceivingWindowER8GUIStateb
hD:__ZNK26AnimatorControllerPlayable17ValidateGoToStateERiS0_
RJh:_InternalEnumerator_1_get_Current_m3179981210_gshared
Tbb:__ZN13BaseAllocator13TryDeallocateEPv
cpd:_Array_CreateInstance_m1054139389
a4g:_GUIStyleState_GetGUIStyleState_m2816150617
t2d:_LayoutGroup_GetAlignmentOnAxis_m1783063916
Mjb:__ZNSt3__26vectorIN12FlareManager10FlareEntryENS_9allocatorIS2_EEE21__push_back_slow_pathIKS2_EEvRT_
FRg:_Default_check_arguments_with_score_m1714931543
wdd:_SHA1_Create_m4086509717
O_g:_MonoMethodInfo_GetMethodInfo_m3298558752
NH:__ZN13AudioListener17RemoveFromManagerEv
Bd:_glAttachShader
i$d:_Dropdown_SetAlpha_m2769981009
VOa:__ZNK6Camera19GetProjectionMatrixEv
vTi:_Predicate_1_BeginInvoke_m1856151290_gshared
ZR:__ZN11UnityEngine15CloudWebService10RestClientINS0_16WWWRestHeaderMapEE6SetUrlERKN4core12basic_stringIcNS4_20StringStorageDefaultIcEEEE
X2h:__Z139RuntimeInvoker_Il2CppObject_Il2CppObject_Int32_t2071877448_SByte_t454417549_SByte_t454417549_SByte_t454417549_SByte_t454417549_Il2CppObjectPK10MethodInfoPvPS2_
KLd:_StackTrace__ctor_m2404985356
V2:__Z38PreallocateObjectFromPersistentManagerib
lHd:_DateTime_System_IConvertible_ToSingle_m3927769066
WY:__GLOBAL__sub_I_runtime_interfaces_lump_cpp
Znb:__ZNK9Texture2D20GetUnscaledTextureIDEv
wFd:_Convert_ToSByte_m883113940
g$j:_glFenceSync__wrapper
mOd:_Exception_get_Message_m173095527
gpg:__ZL53InputField_t1631627530_CustomAttributesCacheGeneratorP21CustomAttributesCache
NWd:_ButtonClickedEvent__ctor_m938038541
cRb:__ZN18StreamedBinaryReadILb0EE21TransferSTLStyleArrayI13dynamic_arrayI4AABBLj4EEEEvRT_17TransferMetaFlags
ULg:_UInt16_System_IConvertible_ToDouble_m4100549304_AdjustorThunk
NWh:__Z116RuntimeInvoker_Il2CppObject_Il2CppObject_Il2CppObject_Int32_t2071877448_Int32_t2071877448_MonoIOErrorU26_t1029615899PK10MethodInfoPvPS2_
Ona:__Z29ClearRepeatingLogMessageStatev
plc:__ZN13TextRendering17TextMeshGenerator13GetTextOffsetERK5RectTIfE
I_i:_HashSet_1_OnDeserialization_m1222146673_gshared
Jid:_Single_System_IConvertible_ToInt16_m962677079
N7:__ZN21EnlightenSceneMappingaSERKS_
fOj:__ZNK6il2cpp8metadata21Il2CppGenericInstHashclEPK17Il2CppGenericInst
Xid:_Single_System_IConvertible_ToUInt32_m2447833283
JRe:_ReadOnlyCollection_1_System_Collections_IList_Add_m3806843030_gshared
YIa:__ZN7ApiGLESD2Ev
S5a:__ZN9Transform47ClearTransformHierarchyAndApplyToSerializedDataEv
mIh:_InternalEnumerator_1_get_Current_m4083613828_AdjustorThunk
jli:_Bounds_op_Equality_m2161830280
g8a:__ZN17PersistentManager9AddStreamEv
KVj:dynCall_fidi
Gjj:__ZN15dense_hashtableINSt3__24pairIK10KeyWrapperINS1_IPK9FieldInfoP11Il2CppClassEEEjEES9_17ReflectionMapHashIS8_EN14dense_hash_mapIS9_jSD_NS9_14EqualsComparerINS0_8equal_toIS8_EEEENS0_9allocatorISB_EEE9SelectKeyESI_SK_E12resize_deltaEjj
$oc:__Z47Register_UnityEngine_GUIStyle_set_imagePositionv
Coc:__Z49GUIStyle_CUSTOM_INTERNAL_CALL_Internal_DrawCursor13Il2Cpp_IntPtrRK5RectTIfEP12Il2CppObjectiRK10ColorRGBAf
peh:_RectTransform_set_anchorMin_m4247668187
Ckb:__ZN22RenderingCommandBufferC2ERKS_
gbc:__ZNK13MonoBehaviour13GetScriptTypeEv
Qca:__ZN13RenderTexture12SetDimensionE16TextureDimension
ULi:_ScriptableObject_CreateInstance_m3921674852
qe:_SDL_FreeRW
Nif:_PKCS1_OS2IP_m1273945439
Fdd:_SHA1Internal_FillBuff_m891541953
b2c:__Z34CanvasRenderer_Get_Custom_PropCullP12Il2CppObject
rN:__ZN20SoundChannelInstance8getDelayE14FMOD_DELAYTYPEPjS1_
Ifb:__ZN21AssetBundleFileSystemC2EPKc
q4h:__Z113RuntimeInvoker_Int32_t2071877448_Vector2_t2243707579_Vector2_t2243707579_ContactFilter2D_t1672660996_Il2CppObjectPK10MethodInfoPvPS2_
aUh:__Z61RuntimeInvoker_Void_t1841601450_Il2CppObject_Int64_t909078037PK10MethodInfoPvPS2_
k4d:_InputField_set_customCaretColor_m3534590098
Hwh:_ScrollRect_set_viewport_m323693490
F1:__ZN10UnitySceneD0Ev
TWe:_NumberFormatter_FormatExponential_m3975285307
zLc:__ZNSt3__26vectorIN20TextRenderingPrivate8FontImpl13CharacterInfoE13stl_allocatorIS3_L18MemLabelIdentifier1ELi16EEE8__appendEj
v:tempBigInt
ye:_emscripten_glVertexAttrib1fv
QSb:__ZNSt3__26vectorIN9ShaderLab20SerializedSubProgram12UAVParameterENS_9allocatorIS3_EEE7reserveEj
oii:_AnimationCurve_Init_m1486386337
foi:_Component_GetComponents_m3712441745
M_f:__ZL99Thread_t241561612_CustomAttributesCacheGenerator_Thread_t241561612____ExecutionContext_PropertyInfoP21CustomAttributesCache
dWi:_UnityAction_4_Invoke_m3312096275_gshared
Weh:_RectTransformUtility_ScreenPointToRay_m1842507230
n3a:__ZN16ReflectionProbes16UpdateSampleDataEv
ZEb:__ZN14SafeBinaryRead21TransferSTLStyleArrayI10vector_setI4PPtrI10MonoScriptENSt3__24lessIS4_EE13stl_allocatorIS4_L18MemLabelIdentifier76ELi16EEEEEvRT_17TransferMetaFlags
dYh:__Z103RuntimeInvoker_Il2CppObject_Il2CppObject_StreamingContext_t1417235061_ISurrogateSelectorU26_t2635255864PK10MethodInfoPvPS2_
oxi:_SafeHandle_Finalize_m1839546519
evc:__ZN8JSONRead21TransferSTLStyleArrayINSt3__26vectorI10RectOffset13stl_allocatorIS3_L18MemLabelIdentifier1ELi16EEEEEEvRT_S5_17TransferMetaFlags
aAi:_Context_AllocateNamedDataSlot_m3200404053
Iqa:__ZN14BatchAllocator6CommitE18MemLabelIdentifier
oFf:_X509EnhancedKeyUsageExtension_Decode_m3866320499
PWe:_NumberFormatter_AppendIntegerStringWithGroupSeparator_m1401773574
Ve:_JS_Sound_Play
u3d:_Image_IsRaycastLocationValid_m864962354
SRb:__ZN9ShaderLab16SerializedShader8TransferI14SafeBinaryReadEEvRT_
zt:__ZN7mecanim8skeleton13SkeletonAlignEPKNS0_8SkeletonERKN4math7_float4ES7_i
L2b:__ZN19ShaderPropertySheet16SetVectorIndexedEN9ShaderLab16FastPropertyNameEifRK8Vector4fNS_8SetFlagsE
zq:__ZN14SafeBinaryRead21TransferSTLStyleArrayIN4core12basic_stringIcNS1_20StringStorageDefaultIcEEEEEEvRT_17TransferMetaFlags
Wwg:_RemotingConfiguration_RegisterWellKnownServiceType_m2491506630
zVf:__ZL55_TypeBuilder_t2783404358_CustomAttributesCacheGeneratorP21CustomAttributesCache
Twe:_List_1_System_Collections_IList_IndexOf_m4061554721_gshared
sT:__ZN11UnityEngine15CloudWebService14DataDispatcher4StopEv
SSb:__ZNSt3__26vectorIN9ShaderLab20SerializedSubProgram12UAVParameterENS_9allocatorIS3_EEE8__appendEj
Nfd:_X509Certificate_ToString_m1582581274
xih:_Enumerator_get_Current_m2986380627_gshared
ofa:__ZN17ScriptingGCHandle7AcquireE18ScriptingObjectPtr25ScriptingGCHandleWeakness
bzi:_LifetimeServices_set_LeaseTime_m1487876644
RSg:_ConstructorBuilder_not_supported_m3687319507
Oid:_Single_System_IConvertible_ToInt64_m3555853323_AdjustorThunk
BUj:dynCall_iifiii
npa:__Z21HasAlphaTextureFormat13TextureFormat
IO:__ZN12AudioManager6UpdateEv
lpa:__ZN14ImageReference9BlitImageERKS_NS_8BlitModeE
Xr:__ZN8Animator12AddToManagerEv
qEb:__ZN23CachedSerializationDataD2Ev
O2a:__ZNK25CameraStackRenderingState31CalculateStereoCameraTargetTypeEv
cmb:__ZN14RenderSettings23VirtualRedirectTransferER14SafeBinaryRead
Vxc:__ZNK13b2CircleShape5CloneEP16b2BlockAllocator
GCj:__ZN6il2cpp2os10ThreadImpl15CurrentThreadIdEv
X8d:_Array_InternalArray__ICollection_Contains_TisColor32_t874517518_m2818328910_gshared
gdh:_RaycastHit2D_get_point_m442317739
$$h:__Z72RuntimeInvoker_Il2CppObject_Il2CppObject_Decimal_t724701077_Il2CppObjectPK10MethodInfoPvPS2_
VYc:_UNITY_tt_face_load_fpgm
lxb:__ZN12InputManagerD0Ev
fMj:__ZN6il2cpp6icalls8mscorlib6System11Diagnostics10StackTrace9get_traceEP15Il2CppExceptionib
cYe:_NumberFormatInfo_set_NumberNegativePattern_m1050626150
N5g:_GUIStyle_get_overflow_m1125058093
Nui:_AnimatorControllerPlayable_Play_m4092315465
Koa:__ZNK16LightmapSettings14GetLightProbesEv
YEg:_UnicodeEncoding_GetBytes_m1337660232
PPb:__Z18Transfer_BlittableI18StreamedBinaryReadILb0EELb1EtEvRK29SerializationCommandArgumentsR31RuntimeSerializationCommandInfo
zRj:_posix_memalign
$2b:__ZN13ProduceHelperI12MeshRendererLb0EE7ProduceE18MemLabelIdentifier18ObjectCreationMode
cNh:_InternalEnumerator_1_get_Current_m747506907_AdjustorThunk
vli:_Camera_get_eventMask_m4241372419
E3g:_GUILayoutUtility_LayoutFromEditorWindow_m1847418289
Y2:__ZNK15MonoScriptCache7ReleaseEv
T$i:__ZN6il2cpp2vm5Class13HasReferencesEP11Il2CppClass
ig:_glBindTexture
OPj:_snprintf
T4d:_InputField_set_caretPosition_m888572237
gWg:_ILGenerator__cctor_m3943061018
ewd:_ArrayListWrapper_Clone_m1506311066
hqi:_Event_get_character_m3740896233
Cma:__Z36scripting_liveness_calculation_begin17ScriptingClassPtriPFvPP12Il2CppObjectiPvES3_PFvvES7_
TGa:__ZN16UniformCacheGLES6CreateERK20GpuProgramParameters
qGg:_UTF8Encoding_Fallback_m811555654
aOg:_UInt64_CompareTo_m3513742483
Vnd:_Encoding_GetString_m1894033578
EQe:_ReadOnlyCollection_1_System_Collections_IList_Clear_m1918003010_gshared
_Si:_Nullable_1_Equals_m3860982732_gshared
yYj:_emscripten_glGetProgramInfoLog__wrapper
uGg:_UTF8Encoding_InternalGetChars_m373801468
I5:__ZN17PersistentManager23DestroyFromFileInternalEi
KNd:_Enum_ToString_m2112979707
KNi:_TextGenerator_ValidatedSettings_m1640214759
tug:_MonoMethodMessage_get_MethodName_m3580519713
tv:__ZN26AnimatorControllerPlayable18PrepareForPlaybackERN7mecanim6memory9AllocatorE
lGg:_UTF8Encoding_GetBytes_m4170182058
gga:__ZN22CreateGpuProgramOutputC2Ev
_Hf:_X509Chain__ctor_m2242540866
l5e:_MemoryStream_InternalConstructor_m2423667240
xQh:__Z70RuntimeInvoker_Il2CppObject_Il2CppObject_Il2CppObject_SByte_t454417549PK10MethodInfoPvPS2_
pvg:_SoapMethodAttribute_SetReflectionObject_m3431595769
hzh:_Slider_set_maxValue_m2951480075
E3b:__ZN8GUILayer12CleanupClassEv
f6d:_InputField_OnSubmit_m2856515494
S$i:__ZN6il2cpp2vm5Class4InitEP11Il2CppClass
ha:invoke_vidi
iQi:_Vector2_op_Subtraction_m1984215297
i0c:__ZN2UI14CanvasRenderer17SyncDirtyElementsER8JobFence
xYd:_ColorBlock_op_Inequality_m1517672458
lBj:__ZN6il2cpp5utils11StringUtils15StringDuplicateEPKc
Z4a:__Z15CanAddComponentR10GameObjectPKN5Unity4TypeE
Bfa:__ZNK9ShaderLab21ShaderRasterStateDesc16ToGfxRasterStateEPK19ShaderPropertySheetS3_R14GfxRasterState
yV:_tlsf_memalign
ECg:_CspParameters__ctor_m2480441577
WNj:__ZN6il2cpp2os9EventImplC2Ebb
Dzi:_DynamicPropertyCollection_NotifyMessage_m840388347
iHi:_Uri_ParseUri_m5711497
Zcb:__ZNK5Unity9Component26GetTypeInfoVirtualInternalEv
M$:__Z20IsMatrixBuiltinParamPKcPi
lHe:_Collection_1_CheckWritable_m2467777750_gshared
t2b:__ZN8Renderer19PostInitializeClassEv
nOc:__ZN20TextRenderingPrivate15DynamicFontDataD2Ev
GDh:_InternalEnumerator_1_get_Current_m1943362081_AdjustorThunk
OQi:_Vector3_get_sqrMagnitude_m1814096310_AdjustorThunk
uKj:__ZN6il2cpp6icalls8mscorlib6System8Delegate23CreateDelegate_internalEP20Il2CppReflectionTypeP12Il2CppObjectP22Il2CppReflectionMethodb
zRg:_Default_check_type_m2363631305
DDb:__ZN18DelayedCallManager18CancelCallDelayed2E4PPtrI6ObjectEPF15CallObjectStatePS1_PvES7_
mti:_AnimatorControllerPlayable_INTERNAL_CALL_GetLayerIndexInternal_m1847150746
Ybb:__ZN25ThreadsafeLinearAllocator10ReallocateEPvji
BFb:__Z18Transfer_BlittableI14SafeBinaryReadLb1E11QuaternionfEvRK29SerializationCommandArgumentsR31RuntimeSerializationCommandInfo
Rde:_Array_InternalArray__IndexOf_TisRaycastHit2D_t4063908774_m3739817942_gshared
m$g:_MonoProperty_GetAccessors_m3704698731
pXh:__Z146RuntimeInvoker_Il2CppObject_Int32_t2071877448_Il2CppObject_ObjectU5BU5DU26_t3223402458_Il2CppObject_Il2CppObject_Il2CppObject_ObjectU26_t597476745PK10MethodInfoPvPS2_
JJj:_GC_disable
eub:__ZN10Matrix4x4f8TransferI14SafeBinaryReadEEvRT_
B8e:_UnmanagedMemoryStream_ReadByte_m2501145010
Pyg:_ObjectRecord_UnchainFixup_m3025030310
qv:__ZN14AvatarPlayback8StopTimeEv
b6:__Z6AppendRKN4core12basic_stringIcNS_20StringStorageDefaultIcEEEEPKc
lNb:__Z18Transfer_BlittableI18StreamedBinaryReadILb1EELb0E8Vector3fEvRK29SerializationCommandArgumentsR31RuntimeSerializationCommandInfo
Zeb:__ZN14CachingManager15ClearTempFolderEv
Uza:__ZN7ApiGLES18ClearBufferSubDataEjN2gl12BufferTargetEll
vdc:__Z37Camera_Get_Custom_PropAllCamerasCountv
otb:__ZN14Texture2DArray8TransferI18StreamedBinaryReadILb0EEEEvRT_
fsj:__ZN6il2cpp6icalls8mscorlib6System5Array9GetLengthEP11Il2CppArrayi
V$a:__Z18ApplyOcclusionMaskR19ProbeOcclusionCacheRK17LightProbeContextRK10RenderNodeb
F4e:_FileStreamAsyncResult__ctor_m1096228032
wTc:_Split_Cubic
eb:invoke_fiiii
hJd:_DBNull_System_IConvertible_ToSByte_m1228193074
SFe:_Collection_1__ctor_m2818834331_gshared
Kme:_Array_InternalArray__get_Item_TisUICharInfo_t3056636800_m3872982785_gshared
Dze:_List_1__ctor_m2168280176_gshared
ICj:__ZN6il2cpp2os10ThreadImpl22CreateForCurrentThreadEv
f4e:_FileStream_FlushBuffer_m2594140542
upc:__Z64Register_UnityEngine_GUIStyle_GetFontInternalDuringLoadingThreadv
VFj:__ZN6il2cpp2vm8Profiler12GCHeapResizeEx
SVj:dynCall_viiifi
KDa:__ZN18GfxFramebufferGLES20ActiveContextChangedEPP17RenderSurfaceBaseS2_
nZa:__ZN19ShaderPropertySheet17UpdateTextureInfoEiN9ShaderLab16FastPropertyNameEPK10TextureRef
GDa:__Z19PluginsRenderMarkeri
kC:__ZN10HumanTrait18InitializeBoneNameEv
wJi:_X509CertificateEnumerator_get_Current_m3129374511
Yzj:__ZNSt3__214__split_bufferIN6il2cpp2vm5Image20EmbeddedResourceDataERNS_9allocatorIS4_EEEC2EjjS7_
YQa:__ZN5Image13ReformatImageERK14ImageReferenceii13TextureFormatNS0_8BlitModeE
LUf:__ZL57DispIdAttribute_t607560947_CustomAttributesCacheGeneratorP21CustomAttributesCache
zH:__ZN12AudioManager17RemoveAudioSourceEP11AudioSource
Poi:_CullingGroup_Finalize_m3172731580
DSi:_AesManaged_get_KeySize_m2773901127
zme:_Array_InternalArray__get_Item_TisUInt64_t2909196914_m2580870875_gshared
I0b:__ZN13ProduceHelperI14SpriteRendererLb0EE7ProduceE18MemLabelIdentifier18ObjectCreationMode
KP:__ZN5physx14PxLightCpuTask12addReferenceEv
FFc:__Z10b2DistanceP16b2DistanceOutputP14b2SimplexCachePK15b2DistanceInput
_pb:__ZN21EnlightenSceneMapping8TransferI19StreamedBinaryWriteILb0EEEEvRT_
Vxj:__ZN6il2cpp2gc16GarbageCollector19InitializeFinalizerEv
Klc:__ZN10GUIManager10DoGUIEventER10InputEventb
LGj:_GC_bl_init_no_interiors
B0:__Z20CalculateSqrDistanceRK8Vector3fRK4AABB
vAj:__ZN6il2cpp2vm12GenericClass8GetClassEP18Il2CppGenericClass
vL:__Z32AudioMixerDuckingProcessCallbackP21UnityAudioEffectStatePfS1_jii
mSg:_CustomAttributeTypedArgument_GetHashCode_m999147081_AdjustorThunk
z1b:__ZN26CustomRenderTextureManagerD2Ev
o4e:_FileStream_Read_m3880951166
fI:__ZN12AudioManager8TransferI24GenerateTypeTreeTransferEEvRT_
ija:__Z25GetBytesFromTextureFormat13TextureFormat
Z4h:__Z105RuntimeInvoker_Void_t1841601450_Int32_t2071877448_Single_t2076509932_Int32_t2071877448_Single_t2076509932PK10MethodInfoPvPS2_
PTj:dynCall_iiffi
eme:_Array_InternalArray__get_Item_TisInt16_t4041245914_m2533263979_gshared
Ri:_emscripten_webgl_init_context_attributes
JB:__ZN16MecanimAnimation25RegisterIAnimationBindingEPKN5Unity4TypeEiP17IAnimationBinding
U3:__Z32scripting_class_get_assemblyname17ScriptingClassPtr
KFc:__ZN9b2Simplex9ReadCacheEPK14b2SimplexCachePK15b2DistanceProxyRK11b2TransformS5_S8_
ykh:_Dictionary_2_Resize_m2532139610_gshared
_Mi:_StackTraceUtility__cctor_m1132099289
vJg:_TimeSpan_Equals_m2029123271_AdjustorThunk
raj:__ZN6il2cpp2vm13MetadataCache23GetInvokerMethodPointerEPK10MethodInfoPK20Il2CppGenericContext
_Ha:__ZN9GfxDevice21RegisterNativeTextureE9TextureIDi16TextureDimension
DPd:_CultureInfo__ctor_m456863818
xLj:__ZN6il2cpp6icalls8mscorlib6System10Reflection4Emit11TypeBuilder20create_generic_classEP27Il2CppReflectionTypeBuilder
kqe:_Enumerator_MoveNext_m2504790928_gshared
VV:__ZN3WWW20GetCachedErrorStringEv
HWb:__ZN12ScriptMapperD2Ev
aad:_KeyedHashAlgorithm_Dispose_m1864300576
pJi:_X509Certificate_PEM_m49854707
rFf:_X509BasicConstraintsExtension__ctor_m3320418592
zIi:_ExtendedKeyUsageExtension_Decode_m901297139
qjc:__Z52Register_UnityEngine_RenderTexture_Internal_GetWidthv
tIj:_GC_check_leaked
pVb:__ZN9ShaderLab20SerializedSubProgram16TextureParameter8TransferI19StreamedBinaryWriteILb0EEEEvRT_
mhe:_Array_InternalArray__Insert_TisVector4_t2243707581_m1643342708_gshared
AT:__ZN11UnityEngine15CloudWebService16SessionContainer8AddEventEPNS0_14CloudEventInfoE
VGa:__Z4TrimRKN4core12basic_stringIcNS_20StringStorageDefaultIcEEEES5_
pAh:_Text_set_resizeTextMaxSize_m4034967714
JPf:__ZL55GuidAttribute_t222072359_CustomAttributesCacheGeneratorP21CustomAttributesCache
B1g:_GUIStyle_SetDefaultFont_m2095841351
ZRg:_CustomAttributeNamedArgument_Equals_m2691468532
jsb:__ZN10VertexData8TransferI14SafeBinaryReadEEvRT_
yJ:__ZN4FMOD8ChannelI8setDelayE14FMOD_DELAYTYPEjj
iBd:_Stack__ctor_m2410583781
nJj:_GC_malloc_atomic
xRg:_Default_GetBetterMethod_m4255740863
OD:__Z93Register_UnityEngine_Experimental_Director_AnimationClipPlayable_INTERNAL_CALL_SetApplyFootIKv
Cgi:__Z48RuntimeInvoker_UIVertex_t1204258818_Il2CppObjectPK10MethodInfoPvPS2_
_zj:__ZNSt3__214__split_bufferIN6il2cpp2vm5Image20EmbeddedResourceDataERNS_9allocatorIS4_EEED2Ev
$1:__ZL20SortItemByInstanceIDRKN18AwakeFromLoadQueue4ItemES2_
GXg:_TypeBuilder_create_runtime_class_m2719530260
Bcd:_RNGCryptoServiceProvider_RngClose_m2921734810
cv:__ZNK34AnimationStateMachineMixerPlayable26GetInterruptedPosePlayableEv
Z7c:__ZN20UnityConnectSettings8TransferI24GenerateTypeTreeTransferEEvRT_
$s:__ZN34BlobWriteTransferSTLStyleArrayImplI22OffsetPtrArrayTransferIbEEclERS1_17TransferMetaFlagsR9BlobWrite
ldf:_SimpleCollator_IsHalfKana_m4255579023
QDe:_Collection_1_System_Collections_IList_Contains_m3365884450_gshared
PMa:__Z16FlaggedAsSkippedIN4core12basic_stringIcNS0_20StringStorageDefaultIcEEEEEbRK13FileEntryInfoRKT_19FileEnumerationFlag
E7:__ZL31InitializeRendererUpdateManagerPv
quf:_ClientSessionInfo_Dispose_m2571428025
o7d:_LayoutGroup_DelayedSetDirty_m4276695617
Cxf:_RecordProtocol_decryptRecordFragment_m2510859489
Ieb:__Z28GetAbsoluteAssetBundlePrefixRKN4core12basic_stringIcNS_20StringStorageDefaultIcEEEE
ayb:__ZN11TimeManager8TransferI19StreamedBinaryWriteILb0EEEEvRT_
W4e:_DelegatePInvokeWrapper_ReadDelegate_t3184826381
vUc:_compare_uni_maps
h6c:__ZN11UnityEngine15PlatformWrapper27GetGraphicsCapsSupportFlagsEv
yKd:_Decimal_Equals_m1115043331
ZMb:__ZN12NativeBufferI16Converter_StringE15SetupForWritingER9ArrayInfo
AXj:___cxa_end_catch__wrapper
xjh:_ValueCollection_System_Collections_Generic_ICollectionU3CTValueU3E_Clear_m231380274_gshared
sSd:_Entry__ctor_m1176697586
D4a:__ZN13MonoBehaviour22DoScriptRebuildWarningEv
xdc:__Z38Camera_CUSTOM_INTERNAL_CALL_RaycastTryP12Il2CppObjectRK3Rayfi
yAh:_Text_get_verticalOverflow_m3134063496
asj:__ZN6il2cpp6icalls8mscorlib6System5Array13ClearInternalEP11Il2CppArrayii
Jwi:_GCHandle_get_Target_m2327042781
oTj:_llvm_cttz_i32
MFf:_PublicKey_DecodeDSA_m1169363495
Wmc:__ZN11IMGUIModule25GetGUIStyleScriptingClassEv
tXc:_tt_get_interface
dtj:__ZN6il2cpp5utils9PathUtils7CombineIcEENSt3__212basic_stringIT_NS3_11char_traitsIS5_EENS3_9allocatorIS5_EEEERKSA_SC_
NBf:_NameObjectCollectionBase_BaseGet_m667273025
ytc:__ZN9JSONWrite8TransferI13dynamic_arrayIiLj4EEEEvRT_PKc17TransferMetaFlags
y_:__Z18ConvertUTF16toUTF8PPKtS0_PPhS2_15ConversionFlags
_Dj:__ZN6il2cpp2os20PathErrnoToErrorCodeERKNSt3__212basic_stringIcNS1_11char_traitsIcEENS1_9allocatorIcEEEEi
MKg:_TypeLoadException__ctor_m1903359728
dXi:__ZL16my_g_bit_nth_msfj
Cad:_KeySizes__ctor_m3526899007
uWb:__ZNK12ShaderErrors11ShaderErrorltERKS0_
Zjg:__ZL69ArgumentCache_t4810721_CustomAttributesCacheGenerator_m_FloatArgumentP21CustomAttributesCache
qnd:_EncoderReplacementFallback__ctor_m2208438262
BUa:__Z23SetupStereoFlareElementP11FlareVertexRK8Vector2fS3_S3_RK11ColorRGBA32RK10Matrix4x4fRK8Vector3fb
ua:invoke_iiiifiiii
ywc:__ZN9rapidjson8internal6u64toaEyPc
e3e:_Directory_GetFiles_m4036267478
gNd:_Enum_System_IConvertible_ToType_m2669300536
lEa:__ZL19BlitFramebufferImplRN4gles23BlitFramebufferDrawQuadER9GfxDevice9TextureIDRK8Vector4f
gkj:__ZN15dense_hashtableINSt3__24pairIK10KeyWrapperIPK10Il2CppTypeEjEES6_N6il2cpp8metadata14Il2CppTypeHashEN14dense_hash_mapIS6_jSB_NS6_14EqualsComparerINSA_26Il2CppTypeEqualityComparerEEENS0_9allocatorIS8_EEE9SelectKeyESF_SH_E4findERS7_
rOe:_ReadOnlyCollection_1_System_Collections_IList_Add_m2333231354_gshared
rNc:_UNITY_FT_List_Add
wXg:_OpCodes__cctor_m939885911
W1b:__ZN14Texture2DArray11InitTextureEiii13TextureFormatb
sIi:_UriParser_InitializeAndValidate_m251943319
Wed:_SymmetricAlgorithm_set_Padding_m3081984460
Lxb:__ZN9InputAxis8TransferI18StreamedBinaryReadILb0EEEEvRT_
rvd:_ArrayList_RemoveAt_m2578928333
cGb:__Z18Transfer_BlittableI14SafeBinaryReadLb0EaEvRK29SerializationCommandArgumentsR31RuntimeSerializationCommandInfo
ssi:_AnimatorControllerPlayable_INTERNAL_CALL_GetBoolString_m538178071
xNe:_ReadOnlyCollection_1_System_Collections_IList_set_Item_m1233322304_gshared
GIi:_GeneralNames_get_DNSNames_m2721668874
YMd:_Enum_System_IConvertible_ToByte_m38374586
fNe:_ReadOnlyCollection_1_System_Collections_Generic_IListU3CTU3E_RemoveAt_m1592158292_gshared
NWj:_emscripten_glFrustum__wrapper
Uxf:_ReceiveRecordAsyncResult_get_CompletedWithError_m2670396551
jKd:_Decimal_Equals_m1798565377
mUg:_TypeBuilder_check_created_m2929267877
mRa:__Z20SyncFenceCullResultsR11CullResults
MFa:__ZN15TextureTFMethod20IsBoneCountSupportedEi
jD:__ZN26AnimatorControllerPlayable9GotoStateEiifff
G4g:_GUISkin_set_horizontalScrollbarThumb_m2119687595
bmb:__ZN14RenderSettings23VirtualRedirectTransferER24GenerateTypeTreeTransfer
kHd:_DateTime_System_IConvertible_ToSByte_m2575078084_AdjustorThunk
BJb:__Z22TransferField_NonArrayI17RemapPPtrTransfer27Converter_SimpleNativeClassI8GUIStyleEEvRK23StaticTransferFieldInfoR31RuntimeSerializationCommandInfoRT0_
mji:_AnimatorStateInfo_IsTag_m1529621725_AdjustorThunk
c0b:__ZNK17AnimationCurveTplIfE20EvaluateWithoutCacheEfRf
hCj:__ZN6il2cpp2os6Thread12QueueUserAPCEPFvPvES2_
q7g:_GUIStyleState__ctor_m3611888666
yGe:_Collection_1_IsValidItem_m1304951912_gshared
_7b:__ZN4Mesh10SetNormalsEPK8Vector3fj
ZJc:__Z66Register_UnityEngine_Physics2D_INTERNAL_CALL_GetRayIntersectionAllv
xDd:_Convert_ToDateTime_m4161927553
sUg:_TypeBuilder_GetConstructors_m774120094
cBj:__ZNSt3__212basic_stringIDsNS_11char_traitsIDsEENS_9allocatorIDsEEE9__grow_byEjjjjjj
or:__ZN17AnimationCurveTplIfE8TransferI14SafeBinaryReadEEvRT_
COd:_Calendar_get_EraNames_m452820602
Arb:__ZNSt3__26vectorIN15QualitySettings14QualitySettingENS_9allocatorIS2_EEE6assignIPS2_EENS_9enable_ifIXaasr21__is_forward_iteratorIT_EE5valuesr16is_constructibleIS2_NS_15iterator_traitsIS9_E9referenceEEE5valueEvE4typeES9_S9_
CSa:__ZNK19ShaderPropertySheet11HasPropertyERKN9ShaderLab16FastPropertyNameE
XGd:_DateTime_System_IConvertible_ToByte_m2670443498_AdjustorThunk
e5:__Z16AsyncReadRequestP16AsyncReadCommand
kof:_BigInteger_op_Addition_m1734797151
V7h:__Z110RuntimeInvoker_Boolean_t3825574718_Vector2_t2243707579_Vector2_t2243707579_Single_t2076509932_SByte_t454417549PK10MethodInfoPvPS2_
tve:_List_1_CheckMatch_m1814522134_gshared
NUg:_EnumBuilder_CreateNotSupportedException_m62763134
Y8e:_Math_Log_m3371716878
P1g:_GUILayoutUtility_Layout_m3812180708
Cxb:__ZN9InputAxis8TransferI14SafeBinaryReadEEvRT_
o2:__ZNK21ExecutionOrderManager30GetCustomAwakeFromLoadQueueForEPKN5Unity4TypeE
g9c:__Z27RegisterModule_UnityConnectv
M$g:_ParameterInfo_get_IsRetval_m1881464570
ali:_Bounds_get_size_m1728027642_AdjustorThunk
vwg:_RealProxy__ctor_m3041043303
hWe:_NumberFormatter_Init_m2654758994
nad:_HMACSHA1__ctor_m1168389339
UK:__ZN10ObjectPoolIN4FMOD12ChannelGroupENS0_13ChannelGroupIEE7SetSizeEi
egf:_PrimalityTest_BeginInvoke_m966469054
YQe:_ReadOnlyCollection_1_System_Collections_Generic_ICollectionU3CTU3E_Clear_m1785953911_gshared
MNg:_UInt64_System_IConvertible_ToInt16_m2797150165_AdjustorThunk
lme:_Array_InternalArray__get_Item_TisLabelData_t3712112744_m863115768_gshared
a0e:_Int32_Parse_m753946802
oEc:__ZN19CollisionListener2D15ProcessContactsEP10Collider2Db
EZb:__ZN9Polygon2D7SetPathEiRK13dynamic_arrayI8Vector2fLj4EE
lBe:_List_1_RemoveAt_m2331128844_gshared
dpj:__ZN14dense_hash_mapI10KeyWrapperINSt3__24pairIPK9EventInfoP11Il2CppClassEEEj17ReflectionMapHashIS8_ENS9_14EqualsComparerINS1_8equal_toIS8_EEEENS1_9allocatorINS2_IKS9_jEEEEE15set_deleted_keyERSH_
cYg:_UnmanagedMarshal_ToMarshalAsAttribute_m3695569337
wHb:__Z14resize_trimmedINSt3__26vectorI17AnimationCurveTplIfE13stl_allocatorIS3_L18MemLabelIdentifier1ELi16EEEEEvRT_j
M2a:__ZN25CameraStackRenderingState19SetupLastEyeCamerasERK11CameraStack
qhb:__Z12GUIDToStringRK9UnityGUID
_G:__ZN11SoundHandleC2ERKS_
Ssh:_Mask_OnEnable_m501850981
gmi:_Canvas_get_targetDisplay_m316548313
YVg:_GenericTypeParameterBuilder_GetGenericTypeDefinition_m2936287336
Lff:_BigInteger_op_Addition_m1196561843
hzi:_FormatterData__ctor_m3974986124
Nbd:_RijndaelManagedTransform_get_CanReuseTransform_m3735256596
tyd:_Comparer__cctor_m1327316974
$2e:_MonoIO_ExistsFile_m1421941572
uId:_DateTime_op_GreaterThanOrEqual_m3818963848
sy:__ZN17AnimationPlayable18DeallocateBindingsEv
JZd:_DefaultControls_SetDefaultTextValues_m1707718380
IVd:_TouchInputModule_UseFakeInput_m2112019004
KRd:_EventSystem_get_baseEventDataCache_m4294741599
hmb:__ZN14RenderSettings18TransferDeprecatedI14SafeBinaryReadEEvRT_
$X:__ZN12TLSAllocatorI14StackAllocatorE8AllocateEji
m3:__ZN16ScriptingManager18GetMonoScriptCacheEi
T2g:_GUIStyle_get_stretchHeight_m3396762700
f8i:__ZN13dynamic_arrayIPK10Il2CppTypeLj4EEC2ERKS3_
J5i:__ZN15dense_hashtableINSt3__24pairIK10KeyWrapperIPK11Il2CppClassEPKcEES6_N6il2cpp5utils11PointerHashIS3_EEN14dense_hash_mapIS6_S9_SE_NS6_14EqualsComparerINS0_8equal_toIS5_EEEENS0_9allocatorISA_EEE9SelectKeyESJ_SL_E15set_deleted_keyERKSA_
P1d:_GridLayoutGroup_CalculateLayoutInputHorizontal_m2355123124
hGb:__Z18Transfer_BlittableI14SafeBinaryReadLb1EyEvRK29SerializationCommandArgumentsR31RuntimeSerializationCommandInfo
mqc:__ZN8JSONRead8TransferIfEEvRT_PKc17TransferMetaFlagsb
YBh:_U3CGetEnumeratorU3Ec__Iterator0_Reset_m2980566576_gshared
ZRj:__ZNSt3__212basic_stringIcNS_11char_traitsIcEENS_9allocatorIcEEE6appendEPKcj
VSf:__ZL54TypeBuilder_t3308873219_CustomAttributesCacheGeneratorP21CustomAttributesCache
Uka:__ZN6prcoreL17RemapGenericFloatI18TexFormatARGBFloat17TexFormatRGBAHalfEEvPKNS_9InnerInfoE
YHe:_Collection_1_CheckWritable_m691269733_gshared
pVg:_GenericTypeParameterBuilder_GetAttributeFlagsImpl_m3338182267
gQ:__ZN13Simd4iFactoryIN6detail9FourTupleEEC2Eiiii
t7e:_SynchronizedReader__ctor_m1408327515
QSe:_ReadOnlyCollection_1_System_Collections_IList_Clear_m1858417639_gshared
iOa:__ZZ23InitPlayerLoopCallbacksvEN38PostLateUpdateShaderHandleErrorsstruct7ForwardEv
ypb:__ZN15SerializeTraitsI33EnlightenTerrainChunksInformationE8TransferI14SafeBinaryReadEEvRS0_RT_
NGc:__ZN6b2Body12SetTransformERK6b2Vec2f
I2b:__ZNK32RendererMaterialAnimationBinding9BindValueER6ObjectRKN11UnityEngine9Animation14GenericBindingERNS3_10BoundCurveE
MVh:__Z112RuntimeInvoker_Int32_t2071877448_Il2CppObject_Int32_t2071877448_Int32_t2071877448_Il2CppObject_Int32_t2071877448PK10MethodInfoPvPS2_
Tvb:__Z13GetIAnimationv
Epa:__ZL18stbir__support_onef
cue:_List_1_System_Collections_IList_Remove_m2040310137_gshared
ksc:__Z26Transfer_UnityEngineObjectI9JSONWriteLb0EEvRK29SerializationCommandArgumentsR31RuntimeSerializationCommandInfo
Pba:__ZN9ShaderLab4Pass9ApplyPassEjPK19ShaderPropertySheetR17ShaderPassContextP6ShaderiPKNS_10GrabPassesEPNS_11SubProgramsE
wnd:_EncoderReplacementFallback_CreateFallbackBuffer_m3579126537
TMg:_UInt32_System_IConvertible_ToInt16_m2251335934_AdjustorThunk
w$c:__ZNSt3__27__sort5IRNS_6__lessIN2UI14DepthSortEntryES3_EEPS3_EEjT0_S7_S7_S7_S7_T_
e6i:__ZN14dense_hash_mapI10KeyWrapperIPKcEP11Il2CppClassN6il2cpp5utils11StringUtils12StringHasherIS2_EENS3_14EqualsComparerINS8_21CaseSensitiveComparerEEENSt3__29allocatorINSE_4pairIKS3_S5_EEEEE13set_empty_keyERSH_
nQh:__Z31RuntimeInvoker_Void_t1841601450PK10MethodInfoPvPS2_
Rqd:_Boolean_System_IConvertible_ToType_m3990189691
LHc:__ZN17PolygonCollider2D12SetPolygon2DEP9Polygon2D
Da:invoke_vdd
An:FUNCTION_TABLE_fiii
CHc:__ZNK17PolygonCollider2D26GetTypeInfoVirtualInternalEv
wMd:_Double_System_IConvertible_ToUInt32_m624993430
Dn:FUNCTION_TABLE_fiif
Z0b:__ZNK30SpriteRendererAnimationBinding12GetPPtrValueERKN11UnityEngine9Animation10BoundCurveE
qIg:_Scheduler_Add_m376749205
kvd:_ArrayList_IndexOf_m2092981366
gzj:__ZN15dense_hashtableINSt3__24pairIK10KeyWrapperINS1_IPKcS4_EEEiEES6_24NamespaceAndNamePairHashN14dense_hash_mapIS6_iS9_NS6_14EqualsComparerI26NamespaceAndNamePairEqualsEENS0_9allocatorIS8_EEE9SelectKeyESD_SF_E12resize_deltaEjj
K1b:__Z14RandomRotationP9Texture2DPhiiii
udf:_SimpleCollator_IsIgnorable_m2485013022
Oye:_List_1_System_Collections_IList_Insert_m2036969360_gshared
p5d:_InputField_GetUnclampedCharacterLineFromPosition_m1912794077
TId:_DateTimeOffset_ToString_m2121173678_AdjustorThunk
kj:_JS_WebRequest_SetResponseHandler
R0j:_glDeleteProgram__wrapper
Edc:__Z50Register_UnityEngine_Camera_INTERNAL_get_pixelRectv
Tri:_AnimationOffsetPlayable_set_position_m3583285645
kka:__ZN6prcoreL18BlitFloatToIntegerERK14ImageReferenceRS0_
Flf:_X509CertificateCollection_get_Item_m410866272
_2g:_Rect_get_yMax_m2915146103
SS:__ZN11UnityEngine15CloudWebService14RestDownloader17OnCompleteContentEv
h2d:_LayoutGroup_SetChildAlongAxis_m1615929339
Ra:invoke_viffi
Gs:__ZN11UnityEngine9Animation40SetFlattenedSkeletonTransformsMainThreadER9TransformRKNS0_21AvatarBindingConstantEb
t$:__ZNSt3__26vectorI20ProcessCallbackGroupNS_9allocatorIS1_EEEC2ERKS4_
kA:__ZN17AnimationPlayable28UpdateInternalStateRecursiveILi1ELb0EEEvPK35AnimationPlayableEvaluationConstant
Ua:invoke_vifff
fgc:__Z53Register_UnityEngine_Input_INTERNAL_get_mousePositionv
Ue:_emscripten_request_fullscreen
fX:__ZN20LocalFileSystemWebGL6DeleteER13FileEntryDatab
XJd:_Decimal_System_IConvertible_ToUInt16_m1621568250
We:_emscripten_glDisableVertexAttribArray
Ym:FUNCTION_TABLE_iiiifiiii
lJg:_TimeSpan_get_TotalMinutes_m1645177229_AdjustorThunk
qc:invoke_fifffi
wAa:__ZN4gles23ClearCurrentFramebufferEP7ApiGLESbbbRK10ColorRGBAffi
dz:__ZN7mecanim12statemachine20CreateStateWorkspaceEjjjRNS_6memory9AllocatorE
u2c:__Z64Register_UnityEngine_CanvasRenderer_SplitIndiciesStreamsInternalv
ff:_emscripten_glDeleteObjectARB
ag:_IMG_Load
j8e:_UnexceptionalStreamReader_Read_m3839775235
rjc:__Z53Register_UnityEngine_RenderTexture_Internal_GetHeightv
lla:__ZN6prcoreL17RemapGenericFloatI17TexFormatRGBAHalf18TexFormatARGBFloatEEvPKNS_9InnerInfoE
cNd:_Enum_System_IConvertible_ToInt32_m2459904362
ymc:__ZNK8GUIStyle21DrawWithTextSelectionER8GUIStateRK5RectTIfER10GUIContentbbbbbiiRK10ColorRGBAfSA_
Mmc:__Z14GetBuiltinSkini
jrf:_ContentInfo__ctor_m3871771681
GQd:_BaseInput_set_compositionCursorPos_m2632248731
a_i:_Enumerator_System_Collections_IEnumerator_Reset_m2573763156_gshared
P2e:_DirectoryInfo_Initialize_m2216118894
Ahd:_WindowsIdentity_Dispose_m2649088337
rXb:__ZN2UI13RectTransform23VirtualRedirectTransferER14SafeBinaryRead
HUi:_InvokableCall_1__ctor_m54675381_gshared
Aaf:_MonoType_GetMethodImpl_m593754598
NO:__ZZL31InitializeAudioManagerCallbacksvEN33FixedUpdateAudioFixedUpdatestruct7ForwardEv
YTb:__ZNSt3__26vectorIN9ShaderLab20SerializedSubProgramENS_9allocatorIS2_EEE6assignIPS2_EENS_9enable_ifIXaasr21__is_forward_iteratorIT_EE5valuesr16is_constructibleIS2_NS_15iterator_traitsIS9_E9referenceEEE5valueEvE4typeES9_S9_
duc:__Z18Transfer_BlittableI8JSONReadLb0E8BitFieldEvRK29SerializationCommandArgumentsR31RuntimeSerializationCommandInfo
Ixg:_SoapServices_RegisterInteropXmlType_m2949236705
$7a:__ZN17PersistentManagerC2Eii
$Nb:__ZL17Transfer_GUIStyleI18StreamedBinaryReadILb1EELb0EEvRK29SerializationCommandArgumentsR31RuntimeSerializationCommandInfo
Wld:_String_CharCopy_m2550399897
d_b:__ZN11TypeManager20RegisterNonClassTypeEiP4RTTIPKcS3_
lSb:__ZN9ShaderLab14SerializedPass8TransferI14SafeBinaryReadEEvRT_
Enc:__Z71Register_UnityEngine_GUILayoutUtility_INTERNAL_CALL_Internal_MoveWindowv
GO:__ZN12AudioManager16SetListenerPauseEb
OHc:__ZThn160_N17PolygonCollider2DD0Ev
jDc:__ZNSt3__26__sortIRN10ClipperLib12LocMinSorterEPNS1_12LocalMinimumEEEvT0_S6_T_
mtj:__ZN6il2cpp2vm9Exception25RaiseOutOfMemoryExceptionERKNS_5utils10StringViewIDsEE
NFe:_Collection_1_IsValidItem_m2254106115_gshared
BUg:_TypeBuilder_GetEvent_m3876348075
Fzh:_Slider_OnMove_m641164662
ea:invoke_viiiiiiiiiii
zOj:___syscall_ret
tIg:_Scheduler__ctor_m3716265742
Jif:_MACAlgorithm_Final_m4076939925
IZb:__ZN14qsort_internal30FindAndMovePivotToLastPositionIP8Vector2fi26PointDistanceSortPredicateEEvT_S4_T0_T1_
U4c:__Z56Register_UnityEngine_Analytics_CustomEventData_AddDoublev
Lsb:__ZN11ChannelInfo8TransferI19StreamedBinaryWriteILb0EEEEvRT_
UDh:_InternalEnumerator_1_System_Collections_IEnumerator_get_Current_m3583252352_gshared
XBb:__ZN23ArchiveStorageConverter24ReadHeaderFromMemoryFileEv
cUg:_EnumBuilder_get_FullName_m2818393911
uVa:__ZN14qsort_internal13Partition3WayIP17RODataReplacementi19ROSorterReplacementEENSt3__24pairIT_S6_EES6_S6_T0_T1_
Afc:__Z34Register_UnityEngine_Gradient_Initv
hRd:_BaseInputModule_GetAxisEventData_m3903709281
Ame:_Array_InternalArray__get_Item_TisUriScheme_t1876590943_m1821482697_gshared
zje:_Array_Sort_TisIl2CppObject_m1954851512_gshared
nnf:_BigInteger__ctor_m3239748086
zW:__ZN13ScreenManager23SetIsOrientationEnabledE18EnabledOrientationb
Mu:__ZN7mecanim5human25HumanPoseAddOverrideLayerERNS0_9HumanPoseERKS1_fRKNS_6bitsetILj70EEE
Y$b:__ZN13ProduceHelperI9TransformLb0EE7ProduceE18MemLabelIdentifier18ObjectCreationMode
vpc:__Z45Register_UnityEngine_GUIStyle_GetFontInternalv
moi:_Component_SendMessageUpwards_m19741277
dfe:_Array_InternalArray__ICollection_Add_TisHitInfo_t1761367055_m2956071622_gshared
s5a:__ZN10GameObject23VirtualRedirectTransferER18StreamedBinaryReadILb0EE
wg:_glFrontFace
Dzg:_ObjectRecord_get_IsUnsolvedObjectReference_m2202692850
xJf:_FactoryCache_Cleanup_m4130035987
UC:__ZN26AnimatorControllerPlayable14SetLayerWeightEif
__b:__ZN13ProduceHelperI19LowerResBlitTextureLb0EE7ProduceE18MemLabelIdentifier18ObjectCreationMode
J_a:__ZNSt3__26vectorI16ShadowCasterData13stl_allocatorIS1_L18MemLabelIdentifier2ELi16EEE21__push_back_slow_pathIKS1_EEvRT_
Idj:__ZN6il2cpp6icalls8mscorlib6SystemL16GetFieldFromTypeINS_5utils10functional6FilterINSt3__212basic_stringIcNS7_11char_traitsIcEENS7_9allocatorIcEEEENS4_11StringUtils23CaseInsensitiveComparerEEEEEP21Il2CppReflectionFieldP11Il2CppClassSK_iRKT_
vVi:_UnityAction_1_Invoke_m1279802577_gshared
vNg:_UInt32_ToString_m1783596809
hPi:_Vector3_get_forward_m1201659139
WZc:__Z51Register_UnityEngine_TextGenerator_GetLinesInternalv
v_i:_HashSet_1_Init_m1258286688_gshared
Hlf:_X509CertificateEnumerator_System_Collections_IEnumerator_get_Current_m1643583406
gLi:_X509ExtensionCollection_get_Item_m4212651995
xOe:_ReadOnlyCollection_1_System_Collections_IList_RemoveAt_m525136953_gshared
sni:_Collision2D_get_gameObject_m4234358314
Cka:__ZN6prcoreL17RemapGenericFloatI17TexFormatRGBFloat18TexFormatRGBAFloatEEvPKNS_9InnerInfoE
ANg:_UInt64_System_IConvertible_ToBoolean_m3012279573_AdjustorThunk
oLg:_Type_get_IsGenericTypeDefinition_m2147901038
xLa:__ZN12HandlerChain10ToAbsoluteEPKc
FVe:_GregorianCalendar__ctor_m3794576475
qNg:_UInt32_TryParse_m4283512434
RG:__ZN9AudioClip11CreateSoundEv
Igh:_ShimEnumerator_MoveNext_m3313047792_gshared
zGe:_Collection_1_ConvertItem_m2185647560_gshared
SJg:_TimeSpan_op_Inequality_m257547441
dHg:_ExecutionContext_GetObjectData_m1456913356
rpj:__ZN14dense_hash_mapI10KeyWrapperINSt3__24pairIPK9FieldInfoP11Il2CppClassEEEj17ReflectionMapHashIS8_ENS9_14EqualsComparerINS1_8equal_toIS8_EEEENS1_9allocatorINS2_IKS9_jEEEEEC2EjRKSB_RKSF_
Zah:_Object_set_hideFlags_m2204253440
Tkj:__ZNK15dense_hashtableINSt3__24pairIK10KeyWrapperINS1_IPK10MethodInfoP11Il2CppClassEEEjEES9_17ReflectionMapHashIS8_EN14dense_hash_mapIS9_jSD_NS9_14EqualsComparerINS0_8equal_toIS8_EEEENS0_9allocatorISB_EEE9SelectKeyESI_SK_E13find_positionERSA_
fYb:__Z10tesvertLeqP10TESSvertexS0_
HLb:__Z18Transfer_BlittableI19StreamedBinaryWriteILb0EELb0E8Vector2fEvRK29SerializationCommandArgumentsR31RuntimeSerializationCommandInfo
yXe:_DateTimeFormatInfo_get_RoundtripPattern_m562440017
z8c:__ZN11UnityEngine7Connect16PersistentValues13RestoreValuesER8JSONRead
dNa:__ZN20ArchiveStorageReader31TryToReadDirectoryFromBlockDataEyPKvj
bMd:_Double_System_IConvertible_ToByte_m3004284950_AdjustorThunk
$vj:__ZN6il2cpp2vmL11GetIdentityEP14Il2CppIUnknown
iif:_SmallXmlParser_ReadCDATASection_m2558307107
cIj:_GC_push_gc_structures
uCf:_ServicePointManager_get_ServerCertificateValidationCallback_m1409951209
Gej:__ZN6il2cpp6icalls8mscorlib6SystemL8IsPublicEPK9EventInfo
cBd:_Enumerator_get_Current_m1271212567
IFj:__ZThn4_N6il2cpp2vm13ComObjectBase18ReleaseMarshalDataEP13Il2CppIStream
c_a:__Z33GenerateShadowCasterPartsSortDataRK16ShadowCasterDatajRK15RenderNodeQueueRKNSt3__26vectorI20ShadowCasterPartData13stl_allocatorIS7_L18MemLabelIdentifier2ELi16EEEERK10Matrix4x4fRjP20ShadowCasterSortData
g8g:_Input_set_compositionCursorPos_m1615567306
iDf:_IPAddress_ParseIPV6_m2209709575
jwh:_U3CClickRepeatU3Ec__Iterator0_MoveNext_m1747924386
PUe:_Comparison_1_Invoke_m1670081898_gshared
_Ah:_Toggle_set_group_m3833595685
H7d:_LayoutRebuilder_ForceRebuildLayoutImmediate_m566681977
kfe:_Array_InternalArray__ICollection_Add_TisVector4_t2243707581_m698578249_gshared
S0:__ZN8keywords6CreateEPKc
zSh:__Z89RuntimeInvoker_Il2CppObject_Il2CppObject_Int32_t2071877448_Int32_t2071877448_Il2CppObjectPK10MethodInfoPvPS2_
dLb:__ZN24GenerateTypeTreeTransfer8TransferINSt3__26vectorI17AnimationCurveTplIfE13stl_allocatorIS4_L18MemLabelIdentifier1ELi16EEEEEEvRT_PKc17TransferMetaFlags
S:Math_imul
w5g:_GUIStyle_set_active_m2896743432
fxb:__ZN14SpriteRenderer15SetupPropertiesEv
Orb:__ZN11PlayerPrefs6GetIntERKN4core12basic_stringIcNS0_20StringStorageDefaultIcEEEEi
EZc:__Z45TextGenerator_CUSTOM_INTERNAL_get_rectExtentsP12Il2CppObjectP5RectTIfE
Yui:_PlayableHandle_Equals_m1435096530
rae:_SetPropertyUtility_SetStruct_TisChar_t3454481338_m2333420724_gshared
QFe:_Collection_1_IsSynchronized_m2601980439_gshared
xzd:_Hashtable_ContainsKey_m2716576664
bDi:_PatternCompiler_EmitCategory_m1696942454
gKd:_Decimal_decimalFloorAndTrunc_m3655683429
Dfe:_Array_InternalArray__ICollection_CopyTo_TisInt32_t2071877448_m984622488_gshared
n_:__ZN18ScriptingArguments9AddObjectE18ScriptingObjectPtr
E1c:__Z39CanvasGroup_Get_Custom_PropInteractableP12Il2CppObject
DQ:__ZN11UnityEngine15CloudWebService16SessionContainerD2Ev
NYj:_emscripten_glStencilOpSeparate__wrapper
qWc:_cf2_getLanguageGroup
JAa:__ZN17GenericDynamicVBOC2ER9GfxDevice13GfxBufferModejj
Hzi:_Context_get_HasDynamicSinks_m1998518649
GGc:__Z28GetPhysics2DScriptingClassesv
y9i:__ZN15dense_hashtableINSt3__24pairIK10KeyWrapperIPKcEP11Il2CppClassEES5_N6il2cpp5utils11StringUtils12StringHasherIS4_EEN14dense_hash_mapIS5_S8_SE_NS5_14EqualsComparerINSC_21CaseSensitiveComparerEEENS0_9allocatorIS9_EEE9SelectKeyESI_SK_E6insertERKS9_
WR:__ZN11UnityEngine15CloudWebService17SessionEventQueue10PurgeItemsEj
$3a:__ZN6Camera16StandaloneRenderENS_10RenderFlagEP6ShaderRKN4core12basic_stringIcNS3_20StringStorageDefaultIcEEEE
fod:_Array_System_Collections_IList_get_Item_m2088124007
zod:_Array_GetLength_m2083296647
gxd:_SynchronizedArrayListWrapper_ToArray_m1522185111
ANb:__Z18Transfer_BlittableI18StreamedBinaryReadILb1EELb1EtEvRK29SerializationCommandArgumentsR31RuntimeSerializationCommandInfo
Gva:__ZN9GfxDevice20DeallocRenderSurfaceEP17RenderSurfaceBase
oPg:_ValueType_ToString_m3796301715
rDa:__ZN20GpuProgramParameters36UpdatePrepareValuesMaximumBufferSizeEv
exj:__ZNK15dense_hashtableI10KeyWrapperIP18Il2CppGenericClassES3_N6il2cpp8metadata22Il2CppGenericClassHashEN14dense_hash_setIS3_S6_NS3_14EqualsComparerINS5_25Il2CppGenericClassCompareEEENSt3__29allocatorIS3_EEE8IdentityESA_SD_E12test_deletedEj
wgc:__Z53Register_UnityEngine_Quaternion_INTERNAL_CALL_Inversev
a2g:_GUILayoutGroup__ctor_m992523271
Oib:__ZN12BaseRenderer23RendererBecameInvisibleEv
ILc:__ZN20TextRenderingPrivate8FontImpl13CharacterInfo8TransferI18StreamedBinaryReadILb0EEEEvRT_
uLb:__Z29Transfer_Blittable_ArrayFieldI24GenerateTypeTreeTransferfEvRT_R9ArrayInfoRK23StaticTransferFieldInfo
E_h:__Z51RuntimeInvoker_Single_t2076509932_Int16_t4041245914PK10MethodInfoPvPS2_
X6a:__ZN19CustomRenderTexture9AddParentE4PPtrIS_E
Eqb:__ZN8Gradient8TransferI14SafeBinaryReadEEvRT_
VWi:_UnityEvent_1_Invoke_m1533100983_gshared
Bha:__ZNSt3__26vectorIN4core12basic_stringIcNS1_20StringStorageDefaultIcEEEE13stl_allocatorIS5_L18MemLabelIdentifier1ELi16EEE7reserveEj
yCf:_FileWebRequest__ctor_m4003648606
nrg:__ZL71SpriteState_t1353336012_CustomAttributesCacheGenerator_m_DisabledSpriteP21CustomAttributesCache
eNd:_Enum_System_IConvertible_ToSByte_m3488526280
Nah:_MonoBehaviour_StopAllCoroutines_m1675795839
_W:__ZNK20LocalFileSystemPosix9IsSymLinkERK13FileEntryData
YGj:_GC_new_free_list_inner
jnh:_DefaultComparer_Equals_m85211180_gshared
saf:_MonoType_InternalGetEvent_m532443236
wIe:_Collection_1_IndexOf_m2700825189_gshared
Puc:__ZN8JSONRead8TransferI10RectOffsetEEvRT_PKc17TransferMetaFlagsb
ER:__ZN9JSONWrite8TransferIN11UnityEngine15CloudWebService14DataErrorEvent15FileErrorDetailEEEvRT_PKc17TransferMetaFlags
Amd:_Decoder__ctor_m2623573910
rPe:_ReadOnlyCollection_1_System_Collections_Generic_IListU3CTU3E_RemoveAt_m1731148677_gshared
NJ:__ZN12SoundManager20RegisterModifiedClipEP10SampleClip
iUh:__Z108RuntimeInvoker_Void_t1841601450_Il2CppObject_Int64_t909078037_Il2CppObject_Int64_t909078037_Int64_t909078037PK10MethodInfoPvPS2_
lM:__ZN11AudioSource4PlayEd
kAj:__ZN6il2cpp2vm6Object16GetVirtualMethodEP12Il2CppObjectPK10MethodInfo
oy:__ZN22AnimationMixerPlayable11DerivesFromE17ScriptingClassPtr
b7i:__ZN15dense_hashtableI10KeyWrapperIPK17Il2CppGenericInstES4_N6il2cpp8metadata21Il2CppGenericInstHashEN14dense_hash_setIS4_S7_NS4_14EqualsComparerINS6_24Il2CppGenericInstCompareEEENSt3__29allocatorIS4_EEE8IdentityESB_SE_E13set_empty_keyERKS4_
_ph:_EqualityComparer_1_System_Collections_IEqualityComparer_Equals_m3589836321_gshared
uif:_SmallXmlParser_IsNameChar_m1561000202
_Ji:_X501__cctor_m2610532554
Ofh:_Enumerator_VerifyState_m3173176371_gshared
iBe:_List_1_CheckCollection_m2220107869_gshared
Unb:__ZN7Cubemap23VirtualRedirectTransferER18StreamedBinaryReadILb0EE
Wtf:_RecordProtocol_EncodeRecord_m3884270352
Sdd:_SHA256_Create_m896954069
ZXc:_Read_CVT
jGd:_Convert_ToUInt32_m776714429
ZJa:__ZN12FileAccessor4SeekEx10FileOrigin
uKb:__ZL26Transfer_SimpleNativeClassI24GenerateTypeTreeTransfer17AnimationCurveTplIfELb0EEvRK29SerializationCommandArgumentsR31RuntimeSerializationCommandInfo
z8i:__ZN15dense_hashtableINSt3__24pairIK10KeyWrapperI13dynamic_arrayIPK10Il2CppTypeLj4EEEPFvvEEES8_N6il2cpp8metadata19Il2CppSignatureHashEN14dense_hash_mapIS8_SB_SF_NS8_14EqualsComparerINSE_22Il2CppSignatureCompareEEENS0_9allocatorISC_EEE9SelectKeyESJ_SL_E4swapERSO_
L7:__ZN16LightmapSettings20DidChangeActiveSceneEP10UnitySceneS1_
vRg:_Default_ReorderParameters_m1877749093
Atg:__ZL59g_AssemblyU2DCSharp_Assembly_CustomAttributesCacheGeneratorP21CustomAttributesCache
rlb:__ZNK17InstancedPropInfo15RenderInstancesERK15RenderNodeQueuePK17BatchInstanceDataj17ShaderChannelMask
ncj:__ZN6il2cpp5utils9PathUtils8BasenameIcEENSt3__212basic_stringIT_NS3_11char_traitsIS5_EENS3_9allocatorIS5_EEEERKSA_
eL:__ZN10AudioMixer11SetupGroupsEv
qnc:__Z35Register_UnityEngine_Event_get_typev
hjf:_PrivateKeyInfo_DecodeRSA_m1427048948
ytj:__ZN6il2cpp2vm9Exception23GetInvalidCastExceptionERKNS_5utils10StringViewIDsEE
zQg:_Assembly_FillName_m1934025015
DPa:_UNITY_png_free
PWj:_emscripten_glDepthRange__wrapper
ykd:_String_IndexOf_m2126171214
p1e:_Int64_ToString_m1544341651_AdjustorThunk
jA:__ZN8Animator28BuildControllerPlayableCacheEv
oZe:_Guid_CheckNull_m2903986431
Rki:_Bounds__ctor_m1202659404
d2:__Z63ThreadAndSerializationSafeCheckGetMonoBehaviourBeingTransferredv
IJj:_GC_enable
Rvf:_TlsClientCertificateVerify_ProcessAsSsl3_m3377063356
AUh:__Z97RuntimeInvoker_Il2CppObject_Il2CppObject_Int32_t2071877448_Il2CppObject_Il2CppObject_Il2CppObjectPK10MethodInfoPvPS2_
aVd:_StandaloneInputModule_set_repeatDelay_m2820945738
AMg:_UInt16_ToString_m4213290405
agc:__Z37Register_UnityEngine_Input_GetAxisRawv
byi:_ChannelServices_RegisterChannel_m3832858065
lNd:_Enum_GetName_m1226611481
BVe:_Func_2_Invoke_m4121137703_gshared
_L:__ZN11AudioSource5ResetEv
Zsb:__ZN14Texture2DArray23VirtualRedirectTransferER18StreamedBinaryReadILb0EE
GFi:_Literal_CompileLiteral_m276843152
iXb:__ZN2UI13RectTransform13AwakeFromLoadE17AwakeFromLoadMode
e_a:__ZN14qsort_internal30FindAndMovePivotToLastPositionIP20ShadowCasterSortDatai26ShadowCasterSortDataSorterEEvT_S4_T0_T1_
pFb:__Z18Transfer_BlittableI14SafeBinaryReadLb1EiEvRK29SerializationCommandArgumentsR31RuntimeSerializationCommandInfo
yra:__ZN17PersistentManager13GetAllFileIDsERKN4core12basic_stringIcNS0_20StringStorageDefaultIcEEEER13dynamic_arrayIxLj8EE
PZh:__Z72RuntimeInvoker_Il2CppObject_IntPtr_t_Int32_t2071877448_Int32_t2071877448PK10MethodInfoPvPS2_
zpd:_Array_LastIndexOf_m4096535198
hvd:_ArrayList_Add_m1719188324
rMd:_Double_System_IConvertible_ToSByte_m1653690240_AdjustorThunk
Ek:_glGetStringi
Kzg:_ObjectManager_AddFixup_m4148241867
XPd:_CultureInfo_set_NumberFormat_m1618950525
ttb:__ZN18StreamedBinaryReadILb0EE21TransferSTLStyleArrayI13dynamic_arrayI8Vector4fLj4EEEEvRT_17TransferMetaFlags
fHf:_X509Store__ctor_m1573680316
uHf:_X509Chain_get_CertificateCollection_m324631835
qqh:_EqualityComparer_1__cctor_m1011898363_gshared
_Vd:_AnimationTriggers__ctor_m2623627182
_ce:_Array_InternalArray__IndexOf_TisClientCertificateType_t4001384466_m1168139450_gshared
aUa:__ZN9Coroutine16SetCurrentMethodE18ScriptingMethodPtr
ys:__ZN8Animator9WriteStepEv
Qrb:__ZNSt3__23mapIN4core12basic_stringIcNS1_20StringStorageDefaultIcEEEE9PrefValueNS_4lessIS5_EENS_9allocatorINS_4pairIKS5_S6_EEEEEixERSB_
Wkc:__ZN15DirectorManager22ConstructPlayableGraphEv
Ped:_SymmetricAlgorithm_set_IV_m4262655606
_zh:_StencilMaterial__cctor_m2963056855
gSg:_CustomAttributeNamedArgument_GetHashCode_m3715408876_AdjustorThunk
LZc:__Z38Register_UnityEngine_Font_HasCharacterv
zGf:_X509Certificate2_AppendBuffer_m3517242299
c2a:__Z35IntersectSpherePlaneBoundsOptimizedRKN4math7_float4EPS1_i
TPd:_CultureInfo_get_IsNeutralCulture_m3874876470
WKd:_Delegate_CreateDelegate_m3813023227
RHi:_Uri_get_AbsoluteUri_m2120317928
RAj:__ZN6il2cpp2os5posix15PosixWaitObject13InterruptWaitEv
aZd:_ColorTween_TweenValue_m3279916815
o7:__Z22CleanupLODGroupManagerPv
efe:_Array_InternalArray__ICollection_Add_TisContentType_t1028629049_m2984242302_gshared
mnc:__Z21Event_CUSTOM_PopEventP12Il2CppObject
lxj:__ZN6il2cpp8metadata15GenericMetadata20RegisterGenericClassEP18Il2CppGenericClass
ml:_glUniform3fv
Jzb:__ZNSt3__218__insertion_sort_3IRN15ResourceManager10Dependency6SorterEPS2_EEvT0_S6_T_
Mqe:_Enumerator_System_Collections_IEnumerator_Reset_m3796537546_AdjustorThunk
iZc:_UNITY_FT_Init_Class_tt_service_gx_multi_masters
baf:_IntComparer_Compare_m3057931085
NYa:__ZNK16LightmapSettings31GetRealtimeLightmapDecodeValuesEv
BL:__ZN5audio5mixer12SetSuspendedERNS0_16AudioMixerMemoryEb
fna:__ZN17PersistentManager21UnloadNonDirtyStreamsEv
ouj:__ZN6il2cpp2vm13LivenessStateC2EP11Il2CppClassjPFvPP12Il2CppObjectiPvES7_PFvvESB_
pSa:__ZN12ImageFilters4BlitER17ShaderPassContextP7TextureP13RenderTextureiPK18SharedMaterialDataPKcP6ShaderiNS_9BlitFlagsE11CubemapFaceRK8Vector2fSH_
PEf:_Oid__ctor_m1936781897
qbh:_Object_INTERNAL_CALL_Internal_InstantiateSingleWithParent_m1401308849
Qvi:_ResourceSet__ctor_m1222864106
ZDe:_Collection_1_System_Collections_IList_get_Item_m3376056117_gshared
Jl:_emscripten_glDepthMask
Lqe:_Enumerator_VerifyState_m3639069574_gshared
OBa:__ZN4crnd25static_huffman_data_model22prepare_decoder_tablesEv
xDe:_Enumerator_MoveNext_m689054299_gshared
sje:_Array_Sort_TisIl2CppObject_TisIl2CppObject_m1915706600_gshared
Tnf:_ModulusRing_Difference_m662924064
EXd:_CanvasUpdateRegistry_ObjectValidForUpdate_m855695984
s4d:_InputField_set_onValueChanged_m2406388125
mZ:__ZL22CleanupUnityWebStreamsPv
ocg:__ZL92AudioSource_t1135106623_CustomAttributesCacheGenerator_AudioSource_Play_m889724421____delay0P21CustomAttributesCache
GPb:__Z18Transfer_BlittableI18StreamedBinaryReadILb0EELb0E10ColorRGBAfEvRK29SerializationCommandArgumentsR31RuntimeSerializationCommandInfo
pBf:_ListDictionary_Add_m4276262662
Q7:__Znaj
ncd:_RIPEMD160Managed_GGG_m1639995340
p1j:_emscripten_glEnableClientState__wrapper
zZ:__ZN17MessageIdentifierC2EPKcNS_7OptionsEPKN5Unity4TypeES1_
yE:__Z76AnimatorControllerPlayable_CUSTOM_INTERNAL_CALL_CrossFadeInFixedTimeInternalR9HPlayableifif
dih:_Enumerator_System_Collections_IEnumerator_get_Current_m1648049763_gshared
tMj:__ZN6il2cpp6icalls8mscorlib4Mono8Security12Cryptography18KeyPairPersistence15_ProtectMachineEP12Il2CppString
lae:_Enumerable_Any_TisIl2CppObject_m2208185096_gshared
sod:_Array_System_Collections_IList_Remove_m2438892375
W6e:_TextWriter__ctor_m2225796097
Fdb:__ZN14SafeBinaryRead8TransferI14ConstantStringEEvRT_PKc17TransferMetaFlags
TLi:_ScriptableObject_Internal_CreateScriptableObject_m1778903390
Iea:__ZNK6Camera16GetStereoEnabledEv
k2b:__ZN12LightManager15InitializeClassEv
Ifa:__ZN9ShaderLab11shaderprops16GetComputeBufferEPK19ShaderPropertySheetS3_NS_16FastPropertyNameE
J3:__ZN23ManagedAttributeManager35CallManagedGetDefaultExecutionOrderE17ScriptingClassPtr
ibc:__ZN18ScriptingArgumentsC2Ev
_Jg:_TimeZone_IsDaylightSavingTime_m875882154
LYj:_emscripten_glBlendFuncSeparate__wrapper
Isf:_CipherSuiteCollection_System_Collections_IList_set_Item_m750275607
JTa:__ZNK25CameraStackRenderingState27GetStereoImageEffectTextureEb
xdd:_SHA1CryptoServiceProvider__ctor_m3127563759
Tp:__ZN8Vector3f8TransferI14SafeBinaryReadEEvRT_
s9b:__ZN13BuildSettings13GetSceneIndexERKN4core12basic_stringIcNS0_20StringStorageDefaultIcEEEE
ctg:__ZL103BaseVertexEffect_t2504093552_CustomAttributesCacheGenerator_BaseVertexEffect_ModifyVertices_m3446986347P21CustomAttributesCache
Co:FUNCTION_TABLE_ii
Sih:_Enumerator_MoveNext_m335649778_AdjustorThunk
qT:__ZNSt3__26__treeINS_12__value_typeIN4core12basic_stringIcNS2_20StringStorageDefaultIcEEEES6_EENS_19__map_value_compareIS6_S7_NS_4lessIS6_EELb1EEENS_9allocatorIS7_EEE16__construct_nodeERKNS_4pairIKS6_S6_EE
Qrc:__Z18Transfer_BlittableI9JSONWriteLb0E8BitFieldEvRK29SerializationCommandArgumentsR31RuntimeSerializationCommandInfo
uNg:_UInt32_ToString_m3894907091_AdjustorThunk
eXj:b44
NPd:_CultureInfo_get_TextInfo_m1582311326
S6b:__ZNK6Sprite15GenerateOutlineEfhbRNSt3__26vectorI13dynamic_arrayI8Vector2fLj4EENS0_9allocatorIS4_EEEEi
Y6g:_GUIStyle_get_contentOffset_m1904924583
Rgh:_ShimEnumerator_get_Key_m616785465_gshared
_hf:_SmallXmlParser_Error_m1832158746
Dk:_glDeleteVertexArrays
X9a:__Z24CreateDirectoryRecursiveRKN4core12basic_stringIcNS_20StringStorageDefaultIcEEEE
bXj:b41
TUb:__ZN9ShaderLab20SerializedSubProgram8TransferI18StreamedBinaryReadILb0EEEEvRT_
w6e:_StreamAsyncResult_get_AsyncWaitHandle_m4218169359
Blc:__Z22MonoGUIContentToNative18ScriptingObjectPtrR10GUIContent
Dme:_Array_InternalArray__get_Item_TisContactPoint2D_t3659330976_m825151777_gshared
n_c:__ZN2UI13CanvasManager9AddCanvasEPNS_6CanvasE
iqa:__ZN9Texture3D8TransferI19StreamedBinaryWriteILb0EEEEvRT_
XUa:__ZNK6Camera22CalculateRenderingPathEv
etc:__ZN9JSONWrite8TransferI5RectTIfEEEvRT_PKc17TransferMetaFlags
ju:__ZN11UnityEngine9Animation37SetGenericRootTransformPropertyValuesERKNS0_30AnimatorGenericBindingConstantERKN7mecanim10ValueArrayER9Transformbb
Eti:_AnimatorControllerPlayable_INTERNAL_CALL_GetCurrentAnimatorClipInfoInternal_m3542665271
oJb:__ZL12InvokeMethodI17RemapPPtrTransferEvRK29SerializationCommandArgumentsR31RuntimeSerializationCommandInfo
wlf:_X509Certificate_get_PublicKey_m714501701
BRc:_tt_sbit_decoder_load_image
Nkd:_String_LastIndexOf_m290475879
Tlc:__ZNSt3__24listIN10GUIManager12SortedScriptE11memory_poolIS2_EE6__sortI13OldSortScriptEENS_15__list_iteratorIS2_PvEESA_SA_jRT_
ENg:_UInt64_System_IConvertible_ToChar_m1930853313_AdjustorThunk
Mvf:_TlsClientCertificate_SendCertificates_m1096074091
jAd:_SyncHashtable_get_Item_m408601391
wPe:_ReadOnlyCollection_1_System_Collections_IEnumerable_GetEnumerator_m1401363518_gshared
jdb:__ZNK9Behaviour26GetTypeInfoVirtualInternalEv
DDe:_Stack_1_System_Collections_ICollection_CopyTo_m2104527616_gshared
OEg:_StringBuilder_AppendFormat_m1666670800
e$a:__ZN18DeferredRenderLoop13RenderGBufferEP13RenderTexturePS1_b8JobFencePK25DeferredRenderLoopScratchRi
xsj:__ZN6il2cpp6icalls8mscorlib6System9ThreadingL11ThreadStartEPv
G$:__ZN15DirectorManager12OnSampleTimeEv
ORe:_ReadOnlyCollection_1_System_Collections_IList_Remove_m3878418841_gshared
x4d:_InputField_EnforceContentType_m1902926812
iA:__ZN8Animator13ClearBindingsEv
fea:__ZN12CachedReader10Align4ReadEv
REc:__ZN15b2WorldManifold10InitializeEPK10b2ManifoldRK11b2TransformfS5_f
p4h:__Z154RuntimeInvoker_RaycastHit2D_t4063908774_Vector2_t2243707579_Vector2_t2243707579_Single_t2076509932_Int32_t2071877448_Single_t2076509932_Single_t2076509932PK10MethodInfoPvPS2_
Stj:__ZN6il2cpp2vm9Exception28GetMarshalDirectiveExceptionEPKc
gbf:_MulticastDelegate_GetObjectData_m3187757658
wSe:_ReadOnlyCollection_1_System_Collections_IList_get_Item_m887129009_gshared
kWa:__Z21GetScriptingArraySize17ScriptingArrayPtr
$Kc:__ZN20TextRenderingPrivate8FontImpl8TransferI14SafeBinaryReadEEvRT_
iia:__Z35UnityPropertySheet_MakeSortedColorsRKNSt3__23mapIN9ShaderLab16FastPropertyNameE10ColorRGBAfNS_4lessIS2_EENS_9allocatorINS_4pairIKS2_S3_EEEEEER10vector_mapIS2_S3_S5_NS6_INS7_IS2_S3_EEEEE
b6g:_GUIStyle_Draw_m4006459684
ywa:__ZN9GfxDevice17ImmediateTexCoordEifff
_Di:_Parser_ParseRegularExpression_m2390577313
ODc:__ZN10ClipperLib7Clipper13AppendPolygonEPNS_5TEdgeES2_
Ypd:_Array_double_swapper_m1175307080
WHf:_X509CertificateEnumerator_System_Collections_IEnumerator_Reset_m327358896
Xgd:_Hash__ctor_m2554411450
EWe:_NumberFormatter_AppendDigits_m1308372770
Eid:_Single_System_IConvertible_ToDateTime_m2510003459_AdjustorThunk
nLd:_Delegate_RemoveImpl_m3666700529
FWj:_emscripten_glUniform4f__wrapper
JBf:_NameObjectCollectionBase_OnDeserialization_m3478980442
j4d:_InputField_set_caretColor_m2252440840
aB:__ZN8Animator8TransferI19StreamedBinaryWriteILb0EEEEvRT_
GXa:__ZNK6Camera16GetProjectionFarEv
h4a:__Z24InverseTransformRotationRK23TransformAccessReadOnlyRKN4math7_float4E
rZf:__ZL68SecurityCriticalAttribute_t2312050089_CustomAttributesCacheGeneratorP21CustomAttributesCache
e9e:_MissingFieldException__ctor_m1161042282
kde:_Array_InternalArray__IndexOf_TisSlot_t2267560602_m1912863273_gshared
l9c:__Z31GetPerformanceReportingSettingsv
oqa:__ZN7Texture34CreateFileTextureUploadInstructionE18TextureUploadFlagsj
eSa:__ZN13ComputeShader14SetBufferParamEjRKN9ShaderLab16FastPropertyNameE15ComputeBufferID
BRe:_ReadOnlyCollection_1_System_Collections_Generic_IListU3CTU3E_Insert_m3054305464_gshared
TA:__ZN8Animator8TransferI14SafeBinaryReadEEvRT_
Bde:_Array_InternalArray__IndexOf_TisTypeTag_t141209596_m2882894956_gshared
kzh:_Slider_get_value_m4182660424
Dxc:__ZNK14b2CapsuleShape5CloneEP16b2BlockAllocator
gx:__ZN17AnimationPlayable34CollectAnimatorControllerPlayablesER13dynamic_arrayIP26AnimatorControllerPlayableLj4EE
mP:__ZN16BaseVideoTexture19UpdateVideoTexturesEv
ulb:__Z28BuildSingleStreamChannelInfo17ShaderChannelMaskRK20VertexChannelsLayoutS_S2_P11ChannelInfo
o4h:__Z79RuntimeInvoker_RaycastHit2D_t4063908774_Vector2_t2243707579_Vector2_t2243707579PK10MethodInfoPvPS2_
Moa:__ZNK16LightmapSettings23HasLightProbeTetrahedraEv
Zuf:_Context_get_WriteSequenceNumber_m243492531
Yrb:__ZN6Sprite23VirtualRedirectTransferER19StreamedBinaryWriteILb0EE
fTf:__ZL51Assembly_t4268412390_CustomAttributesCacheGeneratorP21CustomAttributesCache
Fkd:_String_LastIndexOfAny_m1473637802
Bjc:__Z38Transform_CUSTOM_INTERNAL_set_positionP12Il2CppObjectRK8Vector3f
Wjj:__ZNK15dense_hashtableINSt3__24pairIK10KeyWrapperINS1_IPK9FieldInfoP11Il2CppClassEEEjEES9_17ReflectionMapHashIS8_EN14dense_hash_mapIS9_jSD_NS9_14EqualsComparerINS0_8equal_toIS8_EEEENS0_9allocatorISB_EEE9SelectKeyESI_SK_E5beginEv
_fa:__ZNK9ShaderLab7Program19HasMatchingVariantsERK13dynamic_arrayI16ShaderKeywordSetLj4EE
qt:__ZN15SerializeTraitsIN4math4trsXEE8TransferI8BlobSizeEEvRS1_RT_
Nza:__ZN14DataBufferGLES11CopySubDataEPKS_jjj
me:_emscripten_glVertexPointer
bJa:__ZNSt3__26__treeI20DeviceDepthStateGLES11memcmp_lessIS1_S1_ENS_9allocatorIS1_EEE7destroyEPNS_11__tree_nodeIS1_PvEE
b0c:__ZN2UI13PrepareOutputERNS_7BatchesEjjNS_30AdditionalCanvasShaderChannelsE
Acj:__ZN6il2cpp2vm7Runtime47RaiseExecutionEngineExceptionIfMethodIsNotFoundEPK10MethodInfo
N_a:__Z17GetFrustumPortionPK8Vector3fffPS_
xvj:__ZN15dense_hashtableINSt3__24pairIK10KeyWrapperIP14Il2CppIUnknownEjEES5_N6il2cpp5utils11PointerHashIS3_EEN14dense_hash_mapIS5_jSB_NS5_14EqualsComparerINS0_8equal_toIS4_EEEENS0_9allocatorIS7_EEE9SelectKeyESG_SI_E14squash_deletedEv
oF:__Z96Register_UnityEngine_Experimental_Director_AnimatorControllerPlayable_INTERNAL_CALL_PlayInternalv
ZZd:_DefaultControls_CreateDropdown_m1384069408
UTd:_PointerEventData_get_clickCount_m4064532478
aOd:_EventArgs__cctor_m1350395667
GOd:_CCGregorianCalendar_is_leap_year_m567513478
xqd:_Attribute_IsDefined_m2118467641
wSa:__ZN14GraphicsHelper8DrawQuadER9GfxDevice17ShaderChannelMaskbRK5RectTIfE
gjf:_PrivateKeyInfo_Normalize_m3959595934
cEh:_InternalEnumerator_1_System_Collections_IEnumerator_get_Current_m3125080595_gshared
kKe:_Collection_1_System_Collections_IList_Add_m2091889616_gshared
O5b:__ZN16StreamedResource8TransferI24GenerateTypeTreeTransferEEvRT_
rzc:__ZN11b2GearJoint4DumpEv
t$d:_DropdownItem_OnPointerEnter_m761897861
gGa:__ZN10Matrix3x3f15InvertTransposeEv
fij:__ZNSt3__213__vector_baseIN6il2cpp2vm17TypeNameParseInfoENS_9allocatorIS3_EEED2Ev
r9d:_Array_InternalArray__ICollection_Remove_TisKeyValuePair_2_t1174980068_m2768765894_gshared
UHe:_Collection_1_set_Item_m2199807215_gshared
gIb:__Z29Transfer_Blittable_ArrayFieldI14SafeBinaryRead8Vector3fEvRT_R9ArrayInfoRK23StaticTransferFieldInfo
GMg:_UInt32_System_IConvertible_ToBoolean_m91295134
lHg:_Monitor_Monitor_test_synchronised_m1542589500
rjg:__ZL68RuntimePlatform_t1869584967_CustomAttributesCacheGenerator_WP8PlayerP21CustomAttributesCache
VLc:__ZN20TextRenderingPrivate8FontImpl18ResetCachedTextureEv
Vjf:_SymmetricTransform_TransformFinalBlock_m4192185386
bZe:_TextInfo__ctor_m1263401274
HOi:_TouchScreenKeyboard_Open_m913506328
GHj:_GC_print_finalization_stats
vjh:_ValueCollection__ctor_m927733289_gshared
MAc:__ZNK12b2WheelJoint10GetAnchorBEv
gdc:__Z53Register_UnityEngine_Behaviour_get_isActiveAndEnabledv
bDb:__ZNK13MonoBehaviour26GetTypeInfoVirtualInternalEv
xq:__ZNSt3__26vectorIN4core12basic_stringIcNS1_20StringStorageDefaultIcEEEENS_9allocatorIS5_EEE8__appendEj
qgj:_il2cpp_gc_collect
gzb:__ZN26PlayerSettingsSplashScreen8TransferI17RemapPPtrTransferEEvRT_
FLc:__ZN20TextRenderingPrivate8FontImpl8TransferI17RemapPPtrTransferEEvRT_
FHh:_InternalEnumerator_1_get_Current_m3922357178_gshared
Qdj:__ZN6il2cpp6icalls8mscorlib6SystemL17CollectTypeFieldsINS_5utils10functional10TrueFilterEEEvP11Il2CppClassPKS7_iRNSt3__26vectorIP9FieldInfoNSB_9allocatorISE_EEEERKT_
Sng:__ZL72ColorBlock_t2652774230_CustomAttributesCacheGenerator_m_HighlightedColorP21CustomAttributesCache
qKg:_Type_get_IsValueType_m1733572463
tZb:__Z13GetTagManagerv
FWh:__Z127RuntimeInvoker_Void_t1841601450_IntPtr_t_Int32_t2071877448_SByte_t454417549_Int32_t2071877448_SByte_t454417549_SByte_t454417549PK10MethodInfoPvPS2_
T9d:_Array_InternalArray__ICollection_Remove_TisUInt16_t986882611_m65494986_gshared
pQe:_ReadOnlyCollection_1_IndexOf_m3054637117_gshared
iu:__ZN11UnityEngine9Animation37HasGenericRootTransformPropertyValuesERKNS0_30AnimatorGenericBindingConstantEb
nQ:__ZN11UnityEngine15CloudWebService17CloudJobSchedulerD0Ev
Ajd:_String_System_IConvertible_ToBoolean_m2696751322
ona:__ZN18LoadSceneOperation7PerformEv
y2g:_GUILayer_INTERNAL_CALL_HitTest_m693512502
Ikd:_String_LastIndexOfAny_m4281325295
MDc:__ZN10ClipperLib7Clipper14IntersectEdgesEPNS_5TEdgeES2_RNS_8IntPointE
VE:__Z113Register_UnityEngine_Experimental_Director_AnimatorControllerPlayable_INTERNAL_CALL_GetAnimatorControllerInternalv
lmc:__Z21CleanupGlobalGUIStatev
UIg:_TimeSpan__ctor_m1888018443_AdjustorThunk
eAd:_SyncHashtable_get_Count_m3694444082
iij:__ZNSt3__26vectorINS_12basic_stringIcNS_11char_traitsIcEENS_9allocatorIcEEEENS4_IS6_EEE8allocateEj
BHa:__ZN22VertexDeclarationCache5ClearEv
i0j:_emscripten_glUniform2i__wrapper
V7a:__ZN17PersistentManager12SetPathRemapERKN4core12basic_stringIcNS0_20StringStorageDefaultIcEEEES6_
r0a:__ZN6Camera24PrepareCullingParametersERK23CameraCullingParameters13RenderingPathR11CullResults
Ana:__ZN19RuntimeSceneManager22EndIntegrateMainThreadEP10UnitySceneNS_11LoadingModeE
qJb:__Z26Transfer_UnityEngineObjectI17RemapPPtrTransferLb0EEvRK29SerializationCommandArgumentsR31RuntimeSerializationCommandInfo
Pkd:_String_IsNullOrEmpty_m2802126737
itd:_Byte_Parse_m1442736478
Z0e:_Int64_Parse_m3258022240
zkd:_String_IndexOfOrdinal_m3591623977
oOi:_Texture2D_get_whiteTexture_m1979591766
xCg:_CryptoConfig_EncodeLongNumber_m2352037787
XKg:_Type_GetMethod_m475234662
zxi:_ActivationServices_get_ConstructionActivator_m1726426854
nLb:__Z29Transfer_Blittable_ArrayFieldI24GenerateTypeTreeTransfer4AABBEvRT_R9ArrayInfoRK23StaticTransferFieldInfo
X_f:__ZL52Activator_t1850728717_CustomAttributesCacheGeneratorP21CustomAttributesCache
IIj:_GC_adj_bytes_allocd
afe:_Array_InternalArray__ICollection_Add_TisKeyframe_t1449471340_m887263954_gshared
LPi:_UIVertex__cctor_m803910084
Age:_Array_InternalArray__Insert_TisDateTime_t693205669_m1484996356_gshared
Yve:_List_1_System_Collections_IList_Remove_m3933652540_gshared
J5e:_MonoIO_get_ConsoleInput_m2976499023
sXg:_OpCode_get_Size_m481593949_AdjustorThunk
Axd:_BitArrayEnumerator_checkVersion_m3839504595
Nod:_Array_GetUpperBound_m1352329707
oOa:__ZZ23InitPlayerLoopCallbacksvEN36UpdateScriptRunBehaviourUpdatestruct7ForwardEv
kkd:_String_TrimEnd_m3153143011
KId:_DateTimeOffset_Equals_m3728302791_AdjustorThunk
y_a:__ZN20SphericalHarmonicsL219AddDirectionalLightERKN4math7_float3ERKNS0_7_float4E
RJg:_TimeSpan_op_GreaterThanOrEqual_m3997050520
v$:__Z26ScheduleJobForEachInternalR8JobFencePFvPvjES1_iPFvS1_E11JobPriority
FFf:_OidEnumerator_MoveNext_m1889267785
F9b:__ZN9Scripting18RaiseMonoExceptionEPKcz
Job:__ZN9Texture2D8TransferI19StreamedBinaryWriteILb0EEEEvRT_
i4g:_GUISkin_set_box_m877476512
sYi:_TweenRunner_1_StartTween_m3792842064_gshared
J2b:__ZN9ShaderLab16FastPropertyName15InitBy28BitHashEj
Mid:_Single_System_IConvertible_ToInt32_m3269519527_AdjustorThunk
Ddd:_SHA1Internal_ProcessBlock_m4070037334
qKj:__ZN6il2cpp6icalls8mscorlib6System10Reflection14MonoMethodInfo15get_method_infoE12Il2CppIntPtrP16Il2CppMethodInfo
Dhe:_Array_InternalArray__set_Item_TisDouble_t4078015681_m24756265_gshared
_vg:_ObjRef_GetObjectData_m3081609242
I$b:__ZN13ProduceHelperIN2UI13RectTransformELb0EE7ProduceE18MemLabelIdentifier18ObjectCreationMode
$tb:__ZN17PackedFloatVector12UnpackFloatsEPfiiii
ENe:_ReadOnlyCollection_1__ctor_m3671019970_gshared
Iv:__ZN17AnimationPlayable28UpdateInternalStateRecursiveILi3ELb0EEEvPK35AnimationPlayableEvaluationConstant
rxa:__ZN13GfxDeviceGLES21DestroyComputeProgramER12ObjectHandleI18ComputeProgram_TagPvE
QDd:_Convert_ToDecimal_m2007036836
r7:__ZN17UniqueIDGenerator16DestroyPureIndexEj
V3:__ZL21AppendNestedClassName17ScriptingClassPtrRN4core17string_with_labelILi1EEE
NSb:__ZN14SafeBinaryRead21TransferSTLStyleArrayINSt3__26vectorIN9ShaderLab20SerializedSubProgram12UAVParameterENS1_9allocatorIS5_EEEEEEvRT_17TransferMetaFlags
Gzi:_Context_NotifyDynamicSinks_m1367144344
wR:__ZN24TextDOMTransferWriteBaseI9JSONWriteE12PushMetaFlagEi
Atf:_TlsClientCertificateVerify__ctor_m110646389
Fla:__ZN6prcoreL26RemapGenericIntegerToFloatI17TexFormatARGB888815TexFormatRFloatEEvPKNS_9InnerInfoE
Pzi:_Context_GetServerContextSinkChain_m390126977
Xhj:__ZN6il2cpp2vm17TypeNameParseInfoD2Ev
yje:_Array_Sort_TisIl2CppObject_m143182644_gshared
p7e:_StringReader_Read_m513112775
rqb:__ZNK8Renderer8GetLayerEv
skb:__ZN12FlareManager11DeleteFlareEi
TWa:__ZNK6Camera20GetReplacementShaderEv
mYj:_glProgramBinary__wrapper
uJd:_Decimal__ctor_m569480123_AdjustorThunk
OLa:__ZN12HandlerChain11MoveToTrashER13FileEntryData
SCf:_HttpWebRequest__cctor_m3013631978
QLj:__ZNSt3__26__treeINS_12__value_typeINS_12basic_stringIcNS_11char_traitsIcEENS_9allocatorIcEEEEPFvvEEENS_19__map_value_compareIS7_SA_NS_4lessIS7_EELb1EEENS5_ISA_EEE4findIS7_EENS_15__tree_iteratorISA_PNS_11__tree_nodeISA_PvEEiEERKT_
VSb:__ZNSt3__26vectorIN9ShaderLab20SerializedSubProgram14ConstantBufferENS_9allocatorIS3_EEE7reserveEj
upa:__ZL23stbir__calculate_memoryP11stbir__info
S1h:__Z90RuntimeInvoker_Boolean_t3825574718_Int32_t2071877448_Int32U26_t455636984_Int32_t2071877448PK10MethodInfoPvPS2_
awh:_Scrollbar_FindSelectableOnRight_m3219495255
hAb:__ZNK30RuntimeInitializeOnLoadManager26GetTypeInfoVirtualInternalEv
iwc:__ZNK9rapidjson12GenericValueINS_4UTF8IcEE13JSONAllocatorE6AcceptINS_12PrettyWriterI16TempBufferWriterS2_S2_S3_EEEEbRT_
kge:_Array_InternalArray__ICollection_CopyTo_TisVector3_t2243707580_m509487340_gshared
$pc:__Z59Register_UnityEngine_GUIUtility_Internal_GetKeyboardControlv
TE:__Z82AnimatorControllerPlayable_CUSTOM_INTERNAL_CALL_IsParameterControlledByCurveStringR9HPlayableP12Il2CppString
muc:__ZL26Transfer_SimpleNativeClassI8JSONRead10RectOffsetLb1EEvRK29SerializationCommandArgumentsR31RuntimeSerializationCommandInfo
M1c:__Z44CanvasRenderer_CUSTOM_INTERNAL_CALL_SetColorP12Il2CppObjectRK10ColorRGBAf
hHj:_GC_should_collect
Nxi:_UrlAttribute_Equals_m1587451932
Drc:__Z18Transfer_BlittableI9JSONWriteLb1EsEvRK29SerializationCommandArgumentsR31RuntimeSerializationCommandInfo
EDc:__ZN10ClipperLib8JoinHorzEPNS_5OutPtES1_S1_S1_NS_8IntPointEb
X4c:__Z48UnityAnalyticsHandler_CUSTOM_SendCustomEventNameP12Il2CppObjectP12Il2CppString
zDg:_DSAParameters_t1872138834_marshal_pinvoke_cleanup
Zbc:__ZN9Transform16SetLocalRotationERK11Quaternionf
JCd:_DateTime_Parse_m1628430317
ZQa:__ZN13RenderManager37RenderCamerasWithScriptableRenderLoopEi
wgf:_ASN1_Element_m2600236165
QY:__GLOBAL__sub_I_runtime_graphics5_lump_cpp
F8:__ZN23InstancedPropInfoStaticL16RegisterCallbackEPv
At:__ZN7mecanim8skeleton25SkeletonPoseComputeLocalQEPKNS0_8SkeletonEPKNS0_13SkeletonPoseTIN4math4trsXEEEPS7_ii
qyj:__ZN6il2cpp2os19ReleaseSocketHandleEj
LXg:_TypeBuilder_GetPropertyImpl_m1854119335
lTg:_TypeBuilder_get_next_table_index_m1415870184
aTj:___cxa_can_catch
Eof:_SequentialSearchPrimeGeneratorBase_GenerateNewPrime_m296245934
nud:_Char_GetUnicodeCategory_m4273361321
U8e:_Math_Round_m565516458
xzi:_Identity_get_ClientDynamicProperties_m767245959
KAj:__ZN6il2cpp2os5posix15PosixWaitObjectC2ENS2_4TypeE
KBb:__Z23AppendPathNameExtensionRKN4core12basic_stringIcNS_20StringStorageDefaultIcEEEES5_
CXg:_TypeBuilder_create_generic_class_m986834171
CYj:_emscripten_glVertexPointer__wrapper
Esa:__ZN23ShaderVariantCollection13WarmupShadersEv
Muf:_Context_set_ProtocolNegotiated_m1177527245
Bti:_AnimatorControllerPlayable_INTERNAL_CALL_GetAnimatorTransitionInfoInternal_m2259454958
KMg:_UInt32_System_IConvertible_ToChar_m1056040486
C3:__Z25GetCommonScriptingClassesv
tAf:_TlsStream_get_Length_m1562309511
Qna:__Z27scripting_gc_collect_unsafei
XO:__ZN11AudioModule20SuspendVideoTexturesEv
f2b:__ZN12CubemapArrayC2E18MemLabelIdentifier18ObjectCreationMode
oCd:_Convert_ToByte_m395020137
MKb:__Z26Transfer_UnityEngineObjectI24GenerateTypeTreeTransferLb0EEvRK29SerializationCommandArgumentsR31RuntimeSerializationCommandInfo
vWc:_UNITY_FT_GlyphLoader_CheckPoints
c8e:_TextWriter_WriteLine_m1754475888
okb:__ZN15SharedLightData7PrecalcEv
zoa:__ZN10Matrix4x4fmLERKS_
zUi:_InvokableCall_1_Invoke_m769918017_gshared
dme:_Array_InternalArray__get_Item_TisDouble_t4078015681_m2215331088_gshared
deb:__ZN19StreamedBinaryWriteILb0EE19TransferSTLStyleMapINSt3__28multimapIN4core12basic_stringIcNS4_20StringStorageDefaultIcEEEEN11AssetBundle9AssetInfoENS2_4lessIS8_EENS2_9allocatorINS2_4pairIKS8_SA_EEEEEEEEvRT_17TransferMetaFlags
skh:_Dictionary_2_Init_m3666073812_gshared
RMa:__ZN15ArchiveReadFileD0Ev
Ojf:_SymmetricTransform_TransformBlock_m1524716432
A8:__ZN18ConcurrentFreeListI28FileTextureUploadInstructionE7CleanUpEv
gce:_Array_compare_TisColor32_t874517518_m3842009370_gshared
n6c:__ZN11UnityEngine15PlatformWrapper18GetOperatingSystemEv
ISe:_ReadOnlyCollection_1_System_Collections_Generic_ICollectionU3CTU3E_Remove_m974176789_gshared
TKd:_Delegate_return_type_match_m4278947849
Z5d:_InputField_GenerateHightlight_m1346735465
qHi:_Uri_ParseNoExceptions_m1151989845
HBd:_GC_SuppressFinalize_m953228702
rWc:_FT_MSB
W6g:_GUIStyle_get_clipping_m2754700641
brj:__ZN15dense_hashtableINSt3__24pairIK10KeyWrapperINS1_IP11Il2CppClassjEEES4_EES6_N6il2cpp8metadata14ArrayClassHashEN14dense_hash_mapIS6_S4_SB_NS6_14EqualsComparerINSA_17ArrayClassCompareEEENS0_9allocatorIS8_EEE9SelectKeyESF_SH_E3endEv
rMj:__ZN6il2cpp6icalls8mscorlib4Mono8Security12Cryptography18KeyPairPersistence10_CanSecureEP12Il2CppString
QBh:_Action_1_Invoke_m4180501989_gshared
Uyh:_Slider__ctor_m3124136916
eua:__ZN13GfxDeviceGLES14SetRasterStateEPK17DeviceRasterState
Wya:__ZNK13TranslateGLES11BlendFactorE9BlendMode
P4d:_InputField_set_caretPositionInternal_m231166704
APi:_Transform_InverseTransformPoint_m2648491174
guf:_TlsServerHello__ctor_m3032108168
yda:__ZN14SafeBinaryRead11EndTransferEv
KSf:__ZL98ILGenerator_t99948092_CustomAttributesCacheGenerator_ILGenerator_Mono_GetCurrentOffset_m3553856682P21CustomAttributesCache
CGb:__ZN14SafeBinaryRead8TransferI8MonoPPtrEEvRT_PKc17TransferMetaFlags
ILh:_InternalEnumerator_1_System_Collections_IEnumerator_get_Current_m1533037706_gshared
QFa:__ZN21UniformBufferTFMethod13MapBoneBufferEj
Yxf:_RecordProtocol_SendChangeCipherSpec_m3542001341
mie:_Array_InternalArray__set_Item_TisVector3_t2243707580_m1390667454_gshared
xlc:__ZN12GUIClipState10BeginOnGUIER10InputEvent
Vsj:__ZNSt3__26vectorIcNS_9allocatorIcEEEC2Ej
Lhf:_KeyPairPersistence_CanSecure_m2251009700
Uug:_ReturnMessage_get_Properties_m531965085
mVg:_GenericTypeParameterBuilder_IsSubclassOf_m563999142
rOd:_Exception_ToString_m627574695
AMc:__ZNSt3__26vectorIN20TextRenderingPrivate8FontImpl7IntRectE13stl_allocatorIS3_L18MemLabelIdentifier34ELi16EEE21__push_back_slow_pathIKS3_EEvRT_
gnc:__Z30Event_Get_Custom_PropModifiersP12Il2CppObject
ux:__ZN7mecanim9animation16CreateClipOutputEPKNS0_4ClipERNS_6memory9AllocatorE
ru:__ZN7mecanim9animation23ClearAnimationNodeStateEPNS0_18AnimationNodeStateEb
Bge:_Array_InternalArray__Insert_TisDecimal_t724701077_m1429254816_gshared
SBa:__ZN18AsyncUploadManager17DoScaledPaddedJobEP28FileTextureUploadInstruction
isa:__ZNSt3__218__stable_sort_moveIRN10vector_mapI17ScriptingClassPtrPKN5Unity4TypeENS_4lessIS2_EENS_9allocatorINS_4pairIS2_S6_EEEEE13value_compareENS_11__wrap_iterIPSB_EEEEvT0_SJ_T_NS_15iterator_traitsISJ_E15difference_typeEPNSM_10value_typeE
HRb:__ZN6Shader21AwakeFromLoadThreadedEv
Gka:__ZN6prcoreL17RemapGenericFloatI17TexFormatRGBFloat17TexFormatRGBAHalfEEvPKNS_9InnerInfoE
qpg:__ZL70InputField_t1631627530_CustomAttributesCacheGenerator_m_CharacterLimitP21CustomAttributesCache
Vvc:__ZN8JSONRead21TransferSTLStyleArrayI13dynamic_arrayI8Vector2fLj4EEEEvRT_18MemLabelIdentifier17TransferMetaFlags
vNj:__ZN6il2cpp2os9SemaphoreC2Eii
_Dh:_InternalEnumerator_1_get_Current_m2960188445_AdjustorThunk
EGb:__ZNSt3__26vectorI8MonoPPtr13stl_allocatorIS1_L18MemLabelIdentifier1ELi16EEE8__appendEj
tAh:_Text_set_alignByGeometry_m1514652028
wVa:__ZN14qsort_internal30FindAndMovePivotToLastPositionIP17RODataReplacementi19ROSorterReplacementEEvT_S4_T0_T1_
$Fa:__ZN15UniformTFMethod20IsBoneCountSupportedEi
nbh:_Object_Internal_InstantiateSingle_m2776302597
Gfd:_X509Certificate_GetExpirationDateString_m2351894475
h4e:_FileStream_get_Position_m465478322
v7i:__ZN14dense_hash_setI10KeyWrapperIPK19Il2CppGenericMethodEN6il2cpp8metadata23Il2CppGenericMethodHashENS4_14EqualsComparerINS6_26Il2CppGenericMethodCompareEEENSt3__29allocatorIS4_EEEC2EjRKS7_RKSA_
VUj:dynCall_viidi
Fge:_Array_InternalArray__Insert_TisInt64_t909078037_m3039874636_gshared
dBh:_ToggleGroup_NotifyToggleOn_m997426227
gyf:_RSASslSignatureDeformatter_SetKey_m1150106904
J_:__ZN24ScriptingMethodFiltering17FilterOnSignatureENS_18MethodSearchFilterE
Mvh:_Scrollbar_ClickRepeat_m3403943364
nO:__ZN13ProduceHelperI9AudioClipLb0EE7ProduceE18MemLabelIdentifier18ObjectCreationMode
gW:__ZN18ScreenManagerWebGL13SetLockCursorE14CursorLockMode
PVc:_cf2_arrstack_finalize
yaf:_MonoType_GetMethodsByName_m1854415088
uTg:_DerivedType_GetMethods_m165266904
tjf:_RSAManaged_EncryptValue_m4089823119
t$b:__ZN13MonoBehaviour19HandleNotificationsEPviR11MessageData
YNj:__ZN6il2cpp2os9EventImpl5ResetEv
E5g:_GUIStyle_set_focused_m1547304893
Wea:__ZNK11NamedObject26GetTypeInfoVirtualInternalEv
X4e:_ReadDelegate_Invoke_m2091885836
DUg:_TypeBuilder_GetField_m2112455315
MXj:b58
NXj:b59
uXj:b52
vXj:b53
sXj:b50
KXj:b56
LXj:b57
GXj:b54
JXj:b55
ySh:__Z67RuntimeInvoker_Void_t1841601450_Int32_t2071877448_Int16_t4041245914PK10MethodInfoPvPS2_
RGd:_DateTime__ctor_m3604679583_AdjustorThunk
Iif:_MACAlgorithm_Core_m2390605245
MKh:_InternalEnumerator_1_System_Collections_IEnumerator_get_Current_m30488070_gshared
n_b:__ZN10GameObject12CleanupClassEv
Cwi:_DllImportAttribute__ctor_m1165454237
Jua:__ZN9GfxDevice25SetShaderPropertiesSharedERK19ShaderPropertySheet
MXi:_IndexedSet_1_GetEnumerator_m3646001838_gshared
t7b:__ZN19SpriteMeshGenerator4path9clip_edgeEi
guh:_VertexHelper_AddUIVertexTriangleStream_m4009409241
r3b:__ZL25InitializeDefaultMaterialv
Vgb:__ZN21ArchiveStorageCreatorD2Ev
LIg:_WaitHandle_Dispose_m441403862
HBh:_VertexHelper_AddVert_m3290455716
vra:__ZN17PersistentManager12UnloadStreamERKN4core12basic_stringIcNS0_20StringStorageDefaultIcEEEEb
THc:__ZN19CompositeCollider2D22SimplifyCompositePathsERKNSt3__26vectorINS1_IN10ClipperLib8IntPointENS0_9allocatorIS3_EEEENS4_IS6_EEEERS8_
ZV:__ZN13ScreenManager17RequestResolutionEiibi
UCg:_DESTransform__ctor_m4096028381
Bgj:_il2cpp_unity_liveness_calculation_from_statics
lIg:_Scheduler_get_Instance_m1989471839
JEf:_WebRequest_System_Runtime_Serialization_ISerializable_GetObjectData_m3377822910
Qqb:__ZN8Renderer8TransferI17RemapPPtrTransferEEvRT_
tIe:_Collection_1_Contains_m1299140035_gshared
IXj:_glBlitFramebuffer__wrapper
Fne:_ExecuteEvents_ExecuteHierarchy_TisIl2CppObject_m2541874163_gshared
ffe:_Array_InternalArray__ICollection_Add_TisUICharInfo_t3056636800_m968274080_gshared
WYi:_ObjectPool_1__ctor_m1532275833_gshared
p2i:__ZL24UnresolvedVirtualCall_71P12Il2CppObjectS0_S0_iS0_S0_S0_PK10MethodInfo
fAe:_List_1_GetIndex_m3262928832_gshared
kxi:_SafeHandle_DangerousRelease_m2167699172
P3a:__Z24LookRotationToQuaternionRK8Vector3fS1_P11Quaternionf
N3a:__ZN16ReflectionProbes9GetCameraEv
WVb:__ZL18IsGpuProgramUsable20ShaderGpuProgramTypePK6Shader
Xmf:_ArgumentException__ctor_m2105824819
N0c:__ZN2UI6Canvas17SetSortingLayerIDEi
GWd:_BaseMeshEffect_get_graphic_m3358796463
HAj:__ZN6il2cpp2vm11MethodStack23CleanupForCurrentThreadEv
iTi:_Predicate_1_Invoke_m695569038_gshared
Noe:_Enumerator_VerifyState_m825848279_AdjustorThunk
Xkb:__ZN20TierGraphicsSettings8TransferI24GenerateTypeTreeTransferEEvRT_
_Hb:__ZN14SafeBinaryRead21TransferSTLStyleArrayI13dynamic_arrayI4AABBLj4EEEEvRT_17TransferMetaFlags
dia:__ZN18UnityPropertySheet8TransferI19StreamedBinaryWriteILb0EEEEvRT_
uwf:_TlsServerCertificate_checkServerIdentity_m3836435780
r9:__ZNSt3__26__treeINS_12__value_typeIiN11TypeManager18TypeCallbackStructEEENS_19__map_value_compareIiS4_NS_4lessIiEELb1EEENS_9allocatorIS4_EEE7destroyEPNS_11__tree_nodeIS4_PvEE
vkf:_PKCS12_Decrypt_m2353135969
Xqi:_PersistentCallGroup_Initialize_m3908067069
QZg:_MonoEvent_ToString_m386956596
njg:__ZL70RuntimePlatform_t1869584967_CustomAttributesCacheGenerator_FlashPlayerP21CustomAttributesCache
qCb:__ZN39AssetBundleLoadFromStreamAsyncOperationC2ERKN4core12basic_stringIcNS0_20StringStorageDefaultIcEEEE
Jea:__ZL19GetCameraTargetRectRK6Camerabb
nhh:_Transform_1_BeginInvoke_m1786442111_gshared
T_e:_Int32_GetFormatException_m1729046182
J4a:__ZN13dynamic_arrayIN10GameObject13ComponentPairELj4EE6insertEPS1_RKS1_
jcb:__ZN21UnityDefaultAllocatorI17LowLevelAllocatorE10DeallocateEPv
GY:__GLOBAL__sub_I_runtime_camera2_lump_cpp
ur:__ZN15PackedIntVector8TransferI14SafeBinaryReadEEvRT_
nYg:_FieldInfo_get_IsLiteral_m267898096
rCa:__ZN17SharedTextureDataD0Ev
uzf:_SslStreamBase_EndNegotiateHandshake_m1732321201
zhh:_Transform_1_BeginInvoke_m1167293475_gshared
PH:__ZN13AudioListener8DoUpdateEv
jCd:__Z13bankers_roundd
Zyb:__ZN14SafeBinaryRead8TransferI5RectTIfEEEvRT_PKc17TransferMetaFlags
vi:_emscripten_glGenFramebuffers
pzd:_Hashtable_CopyTo_m2778915805
m9:__ZN17BaseObjectManager16StaticInitializeEPv
KSg:_ConstructorBuilder_get_IsCompilerContext_m2796899803
Vce:_Array_IndexOf_TisUIVertex_t1204258818_m613887160_gshared
aAb:__ZN18StreamedBinaryReadILb0EE19TransferSTLStyleMapINSt3__28multimapIN4core12basic_stringIcNS4_20StringStorageDefaultIcEEEE4PPtrI6ObjectENS2_4lessIS8_EE13stl_allocatorINS2_4pairIKS8_SB_EEL18MemLabelIdentifier51ELi16EEEEEEvRT_17TransferMetaFlags
KCd:_DateTime_CoreParse_m2014268103
Jxe:_List_1__ctor_m3698273726_gshared
SFc:__ZN24ParticleIntersectQuery2D18ReportFixtureProxyEPK14b2FixtureProxy
csc:__Z18Transfer_BlittableI9JSONWriteLb0EyEvRK29SerializationCommandArgumentsR31RuntimeSerializationCommandInfo
Pea:__ZN13RenderTexture15ThreadedCleanupEv
W6:__ZN15dense_hashtableINSt3__24pairIKiiEEi21InstanceIDHashFunctorN14dense_hash_mapIiiS4_NS0_8equal_toIiEE13stl_allocatorIS3_L18MemLabelIdentifier130ELi16EEE9SelectKeyES7_SA_E9copy_fromERKSD_j
unb:__ZN12CubemapArray23VirtualRedirectTransferER14SafeBinaryRead
zCg:_CryptographicException__ctor_m1012314467
PSe:_ReadOnlyCollection_1_System_Collections_IList_Add_m616574295_gshared
U_e:_Int32_ProcessTrailingWhitespace_m2812079777
Zhc:__Z43RectTransform_CUSTOM_INTERNAL_set_sizeDeltaP12Il2CppObjectRK13Vector2fIcall
xEf:_WebProxy__ctor_m3679722173
Wyj:__ZN15dense_hashtableINSt3__24pairIK10KeyWrapperINS1_IPKcS4_EEEiEES6_24NamespaceAndNamePairHashN14dense_hash_mapIS6_iS9_NS6_14EqualsComparerI26NamespaceAndNamePairEqualsEENS0_9allocatorIS8_EEE9SelectKeyESD_SF_E6insertERKS8_
Uda:__ZN24GenerateTypeTreeTransfer18BeginArrayTransferEPKcS1_Ri17TransferMetaFlags
lBa:__Z16DecompressCrunchPKhRjR13TextureFormatiiii18MemLabelIdentifier
nm:___syscall51
rm:___syscall54
NQh:__Z107RuntimeInvoker_Boolean_t3825574718_SByte_t454417549_Il2CppObject_Int32_t2071877448_ExceptionU26_t1467204777PK10MethodInfoPvPS2_
PVi:_UnityAction_2_Invoke_m1994351568_gshared
jii:_UnityAnalyticsHandler_Dispose_m1048126775
gs:__ZNK8Animator20IsAnyRendererVisibleEv
wWc:_cff_builder_add_point1
$zj:__ZN6il2cpp2vm5Image21GetCachedResourceDataEPK11Il2CppImageRKNSt3__212basic_stringIcNS5_11char_traitsIcEENS5_9allocatorIcEEEE
q2d:_HorizontalOrVerticalLayoutGroup_set_childControlWidth_m4209477792
Vee:_Array_InternalArray__ICollection_Add_TisUInt32_t2149682021_m2629016323_gshared
CFb:__Z18Transfer_BlittableI14SafeBinaryReadLb0E10ColorRGBAfEvRK29SerializationCommandArgumentsR31RuntimeSerializationCommandInfo
Ba:invoke_iiiiiiiiii
pna:__ZN18LoadSceneOperation19IntegrateTimeSlicedEi
wIg:_Scheduler_SchedulerThread_m2209572785
Adf:_SortKeyBuffer_GetResultAndReset_m2516956577
U9a:__ZN10FileSystem19SetCurrentDirectoryERKN4core12basic_stringIcNS0_20StringStorageDefaultIcEEEE
X3:__ZN16ScriptingManager24NotifyScriptCacheReleaseEi
Zcc:__Z47Register_UnityEngine_Coroutine_ReleaseCoroutinev
BI:__ZN15AudioReverbZone13SetFMODValuesEv
Yni:_Component_GetComponentInChildren_m3925629424
h1:__ZL19StaticDestroyShaderPv
he:_glRenderbufferStorageMultisample
fA:__ZN23AnimationPlayableOutput17SetTargetAnimatorEP8Animator
QKi:_X509Chain__ctor_m1113875360
lIb:__Z35Transfer_Blittable_SingleValueFieldI14SafeBinaryReadfEvRT_R17GeneralMonoObjectRK23StaticTransferFieldInfo
Pwf:_TlsServerHello_processProtocol_m1241336522
lAi:_ContextAttribute_IsContextOK_m3281216012
g6e:_PathTooLongException__ctor_m3212099251
Hzg:_ObjectManager_RaiseDeserializationEvent_m1611173032
Dr:__ZN17PackedFloatVector8TransferI18StreamedBinaryReadILb0EEEEvRT_
Vnb:__ZN7Cubemap23VirtualRedirectTransferER17RemapPPtrTransfer
UPa:_longest_match_fast
F6b:__ZN22BlockMemoryCacheWriter11GetPathNameEv
I0d:_Graphic_Rebuild_m2617722358
pId:_DateTime_ToString_m3108726445_AdjustorThunk
AQ:__ZN19CloudServiceHandlerD2Ev
k6a:__ZN13dynamic_arrayIN23ReflectionProbesContext23ReflectionProbeCubeInfoELj4EE18resize_initializedEjRKS1_12ResizePolicy
Ple:_Array_InternalArray__get_Item_TisTableRange_t2011406615_m602485977_gshared
S5d:_InputField_Append_m2623574152
aF:__Z116Register_UnityEngine_Experimental_Director_AnimatorControllerPlayable_INTERNAL_CALL_GetNextAnimatorStateInfoInternalv
Qmf:_ApplicationException__ctor_m1120437222
hp:stackAlloc
sdc:__Z44Camera_CUSTOM_INTERNAL_CALL_ScreenPointToRayP12Il2CppObjectRK8Vector3fR3Ray
aLa:__ZN25SingleBlockMemoryFileData4LockEPPv
KWg:_MethodBuilder_GetHashCode_m1713271764
F7b:__ZN15dense_hashtableINSt3__24pairIK12TriangleEdgeiEES2_16TriangleEdgeHashN14dense_hash_mapIS2_iS5_NS0_8equal_toIS2_EENS0_9allocatorIS4_EEE9SelectKeyES8_SA_E12resize_deltaEjj
Wwi:_Marshal__cctor_m802981325
tEe:_Collection_1_IsSynchronized_m1319022347_gshared
Kcf:_MSCompatUnicodeTable_GetResource_m3816716847
Eec:__Z32RectOffset_Get_Custom_PropBottomP12Il2CppObject
apd:_Array_CreateInstance_m15016505
yHb:__ZNSt3__26vectorI17AnimationCurveTplIfE13stl_allocatorIS2_L18MemLabelIdentifier1ELi16EEE6assignINS_11__wrap_iterIPS2_EEEENS_9enable_ifIXaasr21__is_forward_iteratorIT_EE5valuesr16is_constructibleIS2_NS_15iterator_traitsISC_E9referenceEEE5valueEvE4typeESC_SC_
cQj:_stat
Vbd:_RijndaelTransform_Decrypt128_m1282993908
Vfe:_Array_InternalArray__ICollection_CopyTo_TisUInt16_t986882611_m3228377237_gshared
$pg:__ZL68Navigation_t1571958496_CustomAttributesCacheGenerator_m_SelectOnDownP21CustomAttributesCache
kli:_Bounds_op_Inequality_m2315096783
azc:__ZN15b2DistanceJoint23InitVelocityConstraintsERK12b2SolverData
Usa:__ZNSt3__218__insertion_sort_3IRNS_4lessIN22BuiltinResourceManager8ResourceEEEPS3_EEvT0_S7_T_
soi:_Component_BroadcastMessage_m1308086896
nbd:_RC2_set_KeySize_m2015782960
ma:invoke_iiiiiiiiiiii
jkf:_StrongName_get_PublicKey_m3777577320
vfc:__Z43Register_UnityEngine_GameObject_SendMessagev
N6:__ZNSt3__26__treeINS_12__value_typeIN4core12basic_stringIcNS2_20StringStorageDefaultIcEEEES6_EENS_19__map_value_compareIS6_S7_NS_4lessIS6_EELb1EEE13stl_allocatorIS7_L18MemLabelIdentifier12ELi16EEE7destroyEPNS_11__tree_nodeIS7_PvEE
L$i:__ZN6il2cpp2vm17SetupFieldsLockedEP11Il2CppClassRKNS_2os12FastAutoLockE
WL:__ZN11AudioSourceD0Ev
Imi:_CanvasRenderer_set_hasPopInstruction_m1388844875
uab:__ZN16MemoryFileSystem4NameEv
uRd:_BaseRaycaster_OnEnable_m3641767070
zof:_PrimeGeneratorBase_get_PrimalityTest_m308005118
F6g:_GUIStyle_Internal_CalcSize_m1309259680
Jmc:__ZNK8GUIStyle8CalcSizeER10GUIContent
Ete:_List_1_CheckIndex_m2328469916_gshared
tNc:_UNITY_FT_New_Size
Aac:__Z42ScriptingGetComponentsOfTypeFromGameObjectRK26ScriptingGetComponentsArgs
oDe:_List_1_get_Item_m3157283227_gshared
kVi:_InvokableCall_4_Invoke_m1555001411_gshared
PFd:_Convert_ToString_m2915777777
Gia:__ZNSt3__27__sort4IRPFbRKNS_4pairIN9ShaderLab16FastPropertyNameEN18UnityPropertySheet11UnityTexEnvEEES8_EPS6_EEjT0_SD_SD_SD_T_
LVc:_cf2_hintmap_build
O4h:__Z92RuntimeInvoker_AnimatorStateInfo_t2577870592_PlayableHandleU26_t3483893774_Int32_t2071877448PK10MethodInfoPvPS2_
zTc:_Line_Up
fbf:_MonoType_GetGenericTypeDefinition_m2363776160
Wuf:_Context_set_SentConnectionEnd_m2641458842
oe:_emscripten_glBufferSubData
lsd:_Buffer_BlockCopyInternal_m2627156229
B0d:_Graphic_set_material_m329335629
dRd:_ExecuteEvents_get_pointerExitHandler_m3250605428
Mja:__ZN6prcoreL12RemapGenericI15TexFormatRGB88817TexFormatARGB8888EEvPKNS_9InnerInfoE
vD:__Z17CalculateGlobalRS23TransformAccessReadOnly
Fli:_Camera_ScreenPointToRay_m614889538
jff:_Kernel_multiByteDivide_m735279869
omh:_Dictionary_2_ToTValue_m542772656_gshared
WHg:_Thread_GetNewManagedId_internal_m3211695465
bQa:_unity_z_deflateReset
C1g:_SkinChangedDelegate_Invoke_m2801964040
TAa:__ZN17GenericDynamicVBO17DrawChunkInternalERK21DynamicVBOChunkHandle17ShaderChannelMaskS3_P17VertexDeclarationP16DrawBuffersRangeij
uRb:__ZN22MemoryCacherReadBlocks14LockCacheBlockEjPPhS1_
mrd:_Boolean_System_IConvertible_ToChar_m2637404801_AdjustorThunk
Ehd:_SecurityContext_Capture_m2535194991
aMg:_UInt16_System_IConvertible_ToSByte_m3044765342_AdjustorThunk
kBj:__ZN4utf88internal15increase_safelyIPKcEENS0_9utf_errorERT_S5_
rMc:__ZN20TextRenderingPrivate8FontImpl16CacheFontForTextEPtiifjPK13dynamic_arrayINS_16TextFormatChangeELj4EE
Hie:_Array_qsort_TisUIVertex_t1204258818_TisUIVertex_t1204258818_m512606409_gshared
hbd:__Z21ArrayElementTypeCheckP11Il2CppArrayPv
a$j:_emscripten_glTexSubImage2D__wrapper
cCf:_NameValueCollection_AsSingleString_m10599052
XRj:__ZNSt3__212basic_stringIcNS_11char_traitsIcEENS_9allocatorIcEEE6appendEjc
fcf:_Object_InternalGetHashCode_m1371384246
Zth:_Navigation_get_defaultNavigation_m2185194207
H$e:_Int32_System_IConvertible_ToSByte_m1449623243_AdjustorThunk
imf:_AccessViolationException__ctor_m1270251537
n3c:__Z42Register_UnityEngine_Canvas_get_rootCanvasv
hLi:_X509ExtensionCollection_IndexOf_m3972100651
BGb:__Z14resize_trimmedINSt3__26vectorI8MonoPPtr13stl_allocatorIS2_L18MemLabelIdentifier1ELi16EEEEEvRT_j
Igb:__ZN39AssetBundleLoadFromStreamAsyncOperation11GetProgressEv
Xe:_TTF_RenderText_Solid
sEb:__ZN13MonoBehaviour25TransferEngineAndInstanceI24GenerateTypeTreeTransferEEvRT_
WMg:_UInt32_System_IConvertible_ToInt64_m3091851828
o9e:_MissingMethodException__ctor_m3898429715
bxg:_RemotingConfiguration_RegisterClientProviderTemplate_m514821425
Qfh:_Enumerator_System_Collections_IEnumerator_Reset_m3085583937_gshared
ujf:_RSAManaged_ExportParameters_m2873993187
qDe:_Enumerator__ctor_m2816143215_AdjustorThunk
X8c:__ZN11UnityEngine7Connect16PersistentValuesC2Ev
pHf:_X509Chain_FindParent_m404663796
m9e:_MissingMemberException__ctor_m2164043278
rXi:__ZL7log2_32j
xBb:__ZN13EmscriptenWWW10OnProgressEPvjj
WJf:_Interpreter_GetGroupInfo_m312421921
vJb:__Z19TransferField_ArrayI17RemapPPtrTransfer27Converter_UnityEngineObjectEvRK23StaticTransferFieldInfoR31RuntimeSerializationCommandInfoRT0_
d6h:__Z120RuntimeInvoker_Void_t1841601450_Single_t2076509932_Single_t2076509932_Single_t2076509932_Single_t2076509932_Il2CppObjectPK10MethodInfoPvPS2_
kmb:__ZN14RenderSettings8TransferI18StreamedBinaryReadILb0EEEEvRT_
dne:_Object_Instantiate_TisIl2CppObject_m4219963824_gshared
B1e:_IntPtr_System_Runtime_Serialization_ISerializable_GetObjectData_m21554269_AdjustorThunk
aqa:__ZN29SerializeTraitsForStringTypesIN4core12basic_stringIcNS0_20StringStorageDefaultIcEEEEE8TransferI24GenerateTypeTreeTransferEEvRS4_RT_
sK:__ZN4FMOD6System9createDSPEP20FMOD_DSP_DESCRIPTIONPPNS_3DSPE
Yz:__ZN7mecanim9animation26DestroyControllerWorkspaceEPNS0_19ControllerWorkspaceERNS_6memory9AllocatorE
AG:__ZN4FMOD8ChannelI11EndCallbackEv
efd:_ToBase64Transform_TransformBlock_m2201454137
xmc:__ZN8GUIStyle14SetDefaultFontEPN13TextRendering4FontE
tXg:_OpCode_get_StackBehaviourPop_m3787015663_AdjustorThunk
_Ci:_PatternCompiler_EmitCount_m3609178511
urb:__ZN15QualitySettings23VirtualRedirectTransferER24GenerateTypeTreeTransfer
QSi:_U3CCreateWhereIteratorU3Ec__Iterator1D_1_System_Collections_Generic_IEnumerableU3CTSourceU3E_GetEnumerator_m2682676065_gshared
A6g:_GUIStyle_Internal_GetCursorStringIndex_m1491806746
fhj:__ZN6il2cpp2os10FileHandleC2Ev
xhc:__Z59Register_UnityEngine_MonoBehaviour_Internal_CancelInvokeAllv
T6i:__ZN30dense_hashtable_const_iteratorINSt3__24pairIK10KeyWrapperIPK19Il2CppGenericMethodEPK26Il2CppGenericMethodIndicesEES6_N6il2cpp8metadata23Il2CppGenericMethodHashEN14dense_hash_mapIS6_SA_SE_NS6_14EqualsComparerINSD_26Il2CppGenericMethodCompareEEENS0_9allocatorISB_EEE9SelectKeyESI_SK_EppEv
XAf:_HybridDictionary_Add_m1037587952
d9g:_Mathf_Cos_m238853451
XMc:_UNITY_FT_Request_Metrics
nvj:__ZN6il2cpp6icalls8mscorlib6System10Reflection10MonoMethod29get_IsGenericMethodDefinitionEP22Il2CppReflectionMethod
Vrj:__ZN6il2cpp2vm6Thread21AllocThreadStaticDataEi
MCd:_DateTime_YearMonthDayFormats_m4204607055
lYd:_ColorBlock_set_disabledColor_m3502887543_AdjustorThunk
GEj:__ZN30dense_hashtable_const_iteratorINSt3__24pairIK10KeyWrapperIPK19Il2CppGenericMethodEP10MethodInfoEES6_N6il2cpp8metadata23Il2CppGenericMethodHashEN14dense_hash_mapIS6_S9_SD_NS6_14EqualsComparerINSC_26Il2CppGenericMethodCompareEEENS0_9allocatorISA_EEE9SelectKeyESH_SJ_EppEv
wO:__Z13RegisterClassI13AudioListenerEvv
rSi:_Aes__ctor_m4020215067
xD:__ZN23AnimationOffsetPlayable11GetPositionEv
src:__Z18Transfer_BlittableI9JSONWriteLb0E8Vector3fEvRK29SerializationCommandArgumentsR31RuntimeSerializationCommandInfo
Wf:_emscripten_glUniform4i
G0d:_Graphic_OnDisable_m2360886868
aZi:_ObjectPool_1_Release_m1615270002_gshared
gf:_emscripten_glUniform4f
zj:___unlock
txh:_ScrollRect_InternalCalculateOffset_m3083065267
Hxd:_Comparer_Compare_m4132969818
CM:__ZN20SoundChannelInstance19setReverbPropertiesEP29FMOD_REVERB_CHANNELPROPERTIES
ZC:__ZNK26AnimatorControllerPlayable14IsInTransitionEi
doh:_DefaultComparer_Equals_m2171836276_gshared
Mtj:__ZN6il2cpp2vm9Exception18GetFormatExceptionEPKc
ikc:__Z40Register_UnityEngine_Transform_IsChildOfv
g6g:_GUIStyle_Draw_m1435796321
zvd:_ArrayList_Sort_m923359189
tec:__Z45Register_UnityEngine_Display_GetSystemExtImplv
iFh:_InternalEnumerator_1_System_Collections_IEnumerator_get_Current_m3088751576_gshared
FYh:__Z78RuntimeInvoker_Void_t1841601450_Int64_t909078037_Il2CppObject_Int64_t909078037PK10MethodInfoPvPS2_
_ki:_Bounds_set_center_m2069004927_AdjustorThunk
Doc:__Z46GUIStyle_CUSTOM_Internal_DrawWithTextSelectionP12Il2CppObjectR43MonoInternal_DrawWithTextSelectionArguments
oXi:__ZL17log2withScale_128yyi
x$c:__ZNSt3__218__insertion_sort_3IRNS_6__lessIN2UI14DepthSortEntryES3_EEPS3_EEvT0_S7_T_
m_g:_MonoField_CheckGeneric_m1527550038
BZ:__ZN13RuntimeStaticI15DirectorManagerLb0EE16StaticInitializeEPv
Euc:__ZN8JSONRead8TransferI23ManagedObjectTransfererEEvRT_PKc17TransferMetaFlagsb
XHg:_Thread_get_ManagedThreadId_m1995754972
OQd:_BaseInput_get_touchCount_m998724785
Zxb:__ZN11TimeManager6UpdateEv
k6d:_InputField_get_preferredWidth_m3185355225
R1g:_GUIUtility_get_pixelsPerPoint_m2667928361
OHg:_Thread_SetState_m3198426726
Tvd:_ArrayListWrapper_Contains_m1158465965
jQj:_fflush
woa:__ZN17LightProbeContext4InitERK16LightmapSettingsRK14RenderSettings
u1d:_GraphicRaycaster_Raycast_m1206612976
pOj:__GLOBAL__sub_I_Error_cpp
lFi:_Alternation_GetWidth_m4218808325
vTe:_ReadOnlyCollection_1_System_Collections_IList_Insert_m2651065875_gshared
PPc:_ft_bitmap_glyph_bbox
jCf:_TypeConverterAttribute__ctor_m4061167050
BAj:__ZN6il2cpp2vm11MethodStack17GetStackFramesRawEv
I0g:_Font_add_textureRebuilt_m1282639736
rIj:_GC_reclaim_uninit
A1a:__Z34ProcessIndexListIsNodeVisibleStep2RK22SceneCullingParametersPK9SceneNodePK4AABBR9IndexList
rCb:__ZN10MonoScriptD2Ev
Azh:_Slider_OnRectTransformDimensionsChange_m4109401172
tEf:_WebHeaderCollection_Get_m3391944907
hZ:__GLOBAL__sub_I_half_cpp
Rfc:__Z39Input_CUSTOM_INTERNAL_get_mousePositionP8Vector3f
ASc:_tt_cmap13_char_next
GOa:__ZN9ShaderLab4Pass16SetupPassOptionsEv
Tsi:_AnimatorControllerPlayable_INTERNAL_CALL_SetTriggerID_m508896534
BXi:_UnityEvent_4__ctor_m3102731553_gshared
jh:_JS_Sound_ReleaseInstance
ejg:__ZL72IL2CPPStructAlignmentAttribute_t130316838_CustomAttributesCacheGeneratorP21CustomAttributesCache
Xua:__ZN13GfxDeviceGLES19DrawBuffersIndirectEP9GfxBufferPK18VertexStreamSourceiP17VertexDeclaration17ShaderChannelMask16GfxPrimitiveType15ComputeBufferIDj
mfh:_Renderer_get_sortingLayerID_m2403577271
NZj:_emscripten_glPixelStorei__wrapper
IQb:__Z29Transfer_Blittable_ArrayFieldI18StreamedBinaryReadILb0EEaEvRT_R9ArrayInfoRK23StaticTransferFieldInfo
lic:__Z21Resources_CUSTOM_LoadP12Il2CppStringP12Il2CppObject
Fm:FUNCTION_TABLE_diddi
sic:__Z26Material_CUSTOM_SetIntImplP12Il2CppObjectii
C_e:_Int16_System_IConvertible_ToSingle_m3277935657_AdjustorThunk
nki:_AttributeHelperEngine_CheckIsEditorScript_m2980171478
NAi:_InternalRemotingServices__cctor_m3821625125
Rec:__Z42Register_UnityEngine_RectOffset_get_bottomv
PEg:_StringBuilder_Insert_m3322917127
mnh:_DefaultComparer_Equals_m724229128_gshared
Fgh:_Enumerator_VerifyCurrent_m1702320752_AdjustorThunk
pEd:_Convert_ToDouble_m3520060872
eZj:_emscripten_glUniform1f__wrapper
XTj:dynCall_di
myf:_SslCipherSuite_ComputeServerRecordMAC_m1876572367
bOc:__ZN20TextRenderingPrivate19NativeTextGeneratorC2ERK11UTF16StringPNS_8FontImplE11ColorRGBA32ifRK8Vector2fbifiibffbbbP13dynamic_arrayIN2UI8UIVertexELj4EE
crc:__Z28RegisterModule_JSONSerializev
dF:__Z111Register_UnityEngine_Experimental_Director_AnimatorControllerPlayable_INTERNAL_CALL_GetAnimatorClipInfoInternalv
gHg:_Interlocked_CompareExchange_m3227034792
QDg:_HashAlgorithm_get_Hash_m931854461
SNh:_DefaultComparer_Compare_m3564013922_gshared
yXb:__ZN2UI13RectTransform8TransferI14SafeBinaryReadEEvRT_
$8b:__Z20IsHumanControllingUsv
BRa:__ZNK19RenderEventsContext21ExecuteCommandBuffersEijR17ShaderPassContextR15RenderNodeQueueP19ProfilerInformationi
aV:__ZNK20DynamicHeapAllocatorI17LowLevelAllocatorE10GetPtrSizeEPKv
wui:_AnimatorControllerPlayable_PlayInFixedTime_m172593751
afb:__ZN10systeminfo21GetPersistentDataPathEv
A_d:_Dropdown_set_value_m2945561009
Oua:__ZN13GfxDeviceGLES17DestroyGpuProgramEPK10GpuProgram
QXe:_GregorianCalendar_GetMonth_m523739832
hFb:__Z44InitializeTransferFunctionScriptingTraitsForI18StreamedBinaryReadILb0EEEvR31TransferFunctionScriptingTraits
AZa:__ZNSt3__218__insertion_sort_3IR23CompareReflectionProbesP31RuntimeReflectionProbeBlendInfoEEvT0_S5_T_
FJb:__ZN12NativeBufferI27Converter_SimpleNativeClassI8GradientEE15SetupForWritingER9ArrayInfo
X0g:_GameObject_AddComponent_m3757565614
faa:__ZN12_GLOBAL__N_113StaticDestroyEPv
$Ze:_Guid_ToString_m51661589
elc:__ZNK8GUIStyle4DrawER8GUIStateRK5RectTIfER10GUIContentbbbb
fAh:_Text_set_font_m1095513810
Q1j:_glUnmapBuffer__wrapper
yHd:_DateTime_System_IConvertible_ToUInt32_m1363211018_AdjustorThunk
D3d:_InputField_get_cachedInputTextGenerator_m881618486
jmi:_Canvas_get_rootCanvas_m1790974328
Jgc:__Z32Mesh_CUSTOM_ExtractArrayFromListP12Il2CppObject
oRg:_Binder_get_DefaultBinder_m965620943
hvc:__ZN8JSONRead21TransferSTLStyleArrayINSt3__26vectorI8Gradient13stl_allocatorIS3_L18MemLabelIdentifier1ELi16EEEEEEvRT_17TransferMetaFlags
vyb:__ZNSt3__218__insertion_sort_3IRNS_6__lessINS_4pairIPKN5Unity4TypeE7Hash128EES8_EEPS8_EEvT0_SC_T_
XKb:__ZN10RectOffset8TransferI24GenerateTypeTreeTransferEEvRT_
aqd:_SimpleEnumerator_get_Current_m482975946
Q9b:__Z18GetResourceManagerv
PQj:_srand
j$c:__ZN2UI13CanvasManager19RemoveDirtyRendererEPNS_6CanvasEPNS_14CanvasRendererE
tki:_AudioClip_InvokePCMSetPositionCallback_Internal_m2304858844
$5c:__ZN11UnityEngine15PlatformWrapper25GetGraphicsRendererStringEv
y5d:_InputField_KeyPressed_m3066588581
tOi:_Time_get_unscaledTime_m862335845
q8i:__ZNK15dense_hashtableINSt3__24pairIK10KeyWrapperI13dynamic_arrayIPK10Il2CppTypeLj4EEEPFvvEEES8_N6il2cpp8metadata19Il2CppSignatureHashEN14dense_hash_mapIS8_SB_SF_NS8_14EqualsComparerINSE_22Il2CppSignatureCompareEEENS0_9allocatorISC_EEE9SelectKeyESJ_SL_E13find_positionERS9_
Fyh:_Selectable_DoStateTransition_m539253088
ned:_SHA512_Create_m439875055
Vb:invoke_vi
fed:_SHA384Managed_update_m2629600295
dEc:__ZNSt3__26vectorINS0_IN10ClipperLib8IntPointENS_9allocatorIS2_EEEENS3_IS5_EEE7reserveEj
QJa:__ZN15dense_hashtableINSt3__24pairIKN4core12basic_stringIcNS2_20StringStorageDefaultIcEEEEP20ArchiveStorageReaderEES6_20StringHash32FunctionIS6_EN14dense_hash_mapIS6_S9_SC_NS0_8equal_toIS6_EE13stl_allocatorISA_L18MemLabelIdentifier54ELi16EEE9SelectKeyESF_SI_ED2Ev
Tb:invoke_vd
tb:invoke_vf
H6g:_GUIStyle_Internal_CalcSizeWithConstraints_m3375255978
v5:__ZNK10GameObject8IsActiveEv
oW:__ZN18ScreenManagerWebGL21SetCursorInsideWindowEb
DBg:_SByte_System_IConvertible_ToUInt32_m4256495110
qTd:_PointerEventData_set_eligibleForClick_m2036057844
LDa:__ZN18GfxFramebufferGLES23SetupDefaultFramebufferEPP17RenderSurfaceBaseS2_N2gl6HandleILNS3_10ObjectTypeE9EEE
rQj:_mbsinit
Q5g:_GUIStyle_get_Internal_clipOffset_m4237737448
plg:__ZL70EventSystem_t3466835263_CustomAttributesCacheGenerator_m_FirstSelectedP21CustomAttributesCache
i0i:__ZN6il2cpp2vm5Class12SetupMethodsEP11Il2CppClass
uS:__ZN11UnityEngine15CloudWebService13WWWRestClient18GetResponseHeadersEv
icc:__Z39DeleteLastPathNameComponentWithAnySlashRKN4core12basic_stringIcNS_20StringStorageDefaultIcEEEE
xU:__ZN13EmscriptenWWW14BlockUntilDoneEv
mpg:__ZL68InputField_t1631627530_CustomAttributesCacheGenerator_m_KeyboardTypeP21CustomAttributesCache
LBh:_VerticalLayoutGroup_CalculateLayoutInputHorizontal_m497637066
Uva:__ZN13GfxDeviceGLES17UploadTextureCubeE9TextureIDPKhiii13TextureFormati18TextureUploadFlags17TextureColorSpace
bfh:_RectTransformUtility_PixelAdjustPoint_m560908615
mBi:_MethodCall__ctor_m4106494862
Toc:__Z37Register_UnityEngine_GUIStyle_Cleanupv
Oa:invoke_iiifii
Aej:__ZN6il2cpp6icalls8mscorlib6System8MonoType13IsPointerImplEP20Il2CppReflectionType
$Dd:_Convert_ToDecimal_m2284596541
gtb:__ZN14Texture2DArray34UpdateFileTextureUploadInstructionEP28FileTextureUploadInstructionj
Si:_emscripten_glFramebufferRenderbuffer
V0e:_Int64_GetHashCode_m4047499913
K4a:__ZN9Transform30EnsureTransformHierarchyExistsEv
gP:__ZN11AudioModule26SetDefaultMicrophoneDriverEPv
yqd:_Attribute_IsDefined_m216577166
Cud:_Char_ToUpper_m109978609
lHh:_InternalEnumerator_1_get_Current_m1089848479_gshared
oMd:_Double_System_IConvertible_ToInt64_m3798425616
$Ud:_StandaloneInputModule_get_repeatDelay_m3025279
Hg:___cxa_find_matching_catch_4
nhc:__ZN13MonoBehaviour13StopCoroutineEPKc
N7a:__ZNSt3__26vectorINS_4pairIN4core12basic_stringIcNS2_20StringStorageDefaultIcEEEEPK17MessageIdentifierEENS_9allocatorISA_EEE12__move_rangeEPSA_SE_SE_
xVa:__ZN14qsort_internal17MedianOfThreeSwapIP17RODataReplacement19ROSorterReplacementEEvT_S4_S4_T0_
$_i:__ZNK15dense_hashtableINSt3__24pairIK10KeyWrapperIPK22Il2CppGenericParameterEP11Il2CppClassEES6_N6il2cpp5utils11PointerHashIS4_EEN14dense_hash_mapIS6_S9_SE_NS6_14EqualsComparerINS0_8equal_toIS5_EEEENS0_9allocatorISA_EEE9SelectKeyESJ_SL_E3endEv
ecc:__ZN17TransformInternal36OnScaleChangedCalculateTransformTypeE15TransformAccess
Xwd:_SynchronizedArrayListWrapper_InsertRange_m709359548
mMa:__ZN17ArchiveFileSystem10ToAbsoluteEPKc
nof:_BigInteger_op_Modulus_m13450242
Bci:__Z56RuntimeInvoker_Int32_t2071877448_RaycastResult_t21186376PK10MethodInfoPvPS2_
REd:_Convert_ToInt32_m2988544165
_ie:_Array_Resize_TisColor32_t874517518_m2219502085_gshared
ww:__ZN7mecanim6CRCKeyENS_7eStringE
eAf:_SslStreamBase_get_CanWrite_m2069502593
aZb:__ZL12SetPrefValueRKN4core12basic_stringIcNS_20StringStorageDefaultIcEEEERK9PrefValue
h0:__ZN19ShaderPropertySheet20ReservePropertyCountEj
SAj:__ZN6il2cpp5utils11StringUtils6PrintfEPKcz
Tia:__ZN15NameToObjectMapI6ShaderNSt3__23mapI4PPtrIS0_EN4core12basic_stringIcNS5_20StringStorageDefaultIcEEEENS1_4lessIS4_EENS1_9allocatorINS1_4pairIKS4_S9_EEEEEENS1_8multimapIS9_S4_NSA_IS9_EENSC_INSD_IKS9_S4_EEEEEEE4FindERSK_
Ngh:_ShimEnumerator_Reset_m98005789_gshared
$pa:__ZN24GenerateTypeTreeTransfer21TransferResourceImageE19ActiveResourceImagePKcR13StreamingInfoPvjiPKN5Unity4TypeE
obh:_Object_INTERNAL_CALL_Internal_InstantiateSingle_m3932420250
rRe:_ReadOnlyCollection_1_System_Collections_IList_set_Item_m1377990618_gshared
KPa:_UNITY_png_zstream_error
iWg:_ILGenerator_make_room_m373147874
Omh:_Dictionary_2_Init_m1045257495_gshared
l1j:_emscripten_glLinkProgram__wrapper
Vif:_PKCS1_Verify_v15_m2571212635
Tlb:__ZNSt3__212__deque_baseI18ReflectionProbeJobNS_9allocatorIS1_EEED2Ev
Kv:__ZN11UnityEngine9Animation27DestroyAnimationSetBindingsEPNS0_20AnimationSetBindingsERN7mecanim6memory9AllocatorE
ESb:__ZN15dense_hashtableINSt3__24pairIKiN4core17string_with_labelILi1EEEEEi18SInt32HashFunctionN14dense_hash_mapIiS5_S7_NS0_8equal_toIiEE13stl_allocatorIS6_L18MemLabelIdentifier1ELi16EEE9SelectKeyESA_SD_E13set_empty_keyERKS6_
TB:__ZN8Animator12CleanupClassEv
Xmd:_DecoderReplacementFallbackBuffer__ctor_m1305504326
fvc:__Z13TransferFieldI8JSONReadLb0E27Converter_SimpleNativeClassI10RectOffsetEEvRK23StaticTransferFieldInfoR31RuntimeSerializationCommandInfoRT1_
xkd:_String_IndexOf_m570401060
_Md:_Enum_System_IConvertible_ToDateTime_m2924690746
Edb:__ZN11AssetBundle9AssetInfo8TransferI14SafeBinaryReadEEvRT_
a$d:_Dropdown_CreateBlocker_m4109366440
LDg:_HashAlgorithm_System_IDisposable_Dispose_m2106335965
ywj:__GLOBAL__sub_I_GenericMetadata_cpp
Ich:_RangeAttribute__ctor_m1657271662
dlc:__ZNK8GUIStyle4DrawER8GUIStateRK5RectTIfER10GUIContentib
Odj:__ZN6il2cpp6icalls8mscorlib6System8MonoType18GetFields_internalEP20Il2CppReflectionTypeiS5_
b1a:__Z24CalculateSpotLightBoundsffRK10Matrix4x4fR15SpotLightBounds
Mcf:_TailoringInfo__ctor_m2248501932
vQ:__ZN23CloudWebServicesManager23VirtualRedirectTransferER14SafeBinaryRead
twd:_FixedSizeArrayListWrapper_InsertRange_m2690348965
QDb:__Z19ShouldTransferFieldR32SerializationCommandQueueBuilder17ScriptingClassPtriR18TransferField_InfoRK20CoreScriptingClasses
HXg:_FieldInfo_get_IsStatic_m1411173225
w5e:_MemoryStream_Read_m2289595005
xL:__ZN5audio5mixer22UpdateAudioMixerMemoryERKNS0_18AudioMixerConstantERNS0_16AudioMixerMemoryEfPN4FMOD6SystemEf
OKc:__ZL21InitializeCachedStripPv
Vhi:_CustomEventData_Add_m4139356558
Asj:__ZN6il2cpp6icalls8mscorlib6System9Threading6Thread23GetCachedCurrentCultureEP12Il2CppThread
_xh:_Selectable_get_allSelectables_m3045831006
yVa:__ZNK6Camera22GetWorldToCameraMatrixEv
xAj:__ZN6il2cpp2vm12GenericClass11IsValueTypeEP18Il2CppGenericClass
dDb:__ZN13MonoBehaviour7SetNameEPKc
hrf:_ContentInfo__ctor_m3579805263
gxh:_ScrollRect_get_verticalNormalizedPosition_m1701804869
Ena:__ZN18AwakeFromLoadQueue5ClearEv
yih:_Enumerator_get_Current_m2986380627_AdjustorThunk
O$a:__ZNSt3__27__sort5IR15ReflProbeSorterPP15ReflectionProbeEEjT0_S6_S6_S6_S6_T_
XZ:__ZN8Playable10DisconnectEPS_i
uk:_glGenTransformFeedbacks
Yra:__ZN13LoadOperationD2Ev
Bhf:_KeyPairPersistence__ctor_m1817312194
Q8d:_Array_InternalArray__ICollection_Contains_TisMark_t2724874473_m1640201705_gshared
Sla:__Z21PlayerStartFirstSceneb
ZTg:_TypeBuilder_get_AssemblyQualifiedName_m2097258567
Hia:__ZNSt3__27__sort5IRPFbRKNS_4pairIN9ShaderLab16FastPropertyNameEN18UnityPropertySheet11UnityTexEnvEEES8_EPS6_EEjT0_SD_SD_SD_SD_T_
pza:__ZNK7ApiGLES18GetExtensionStringEv
cGa:__ZN31TransformFeedbackSkinPoseBufferD0Ev
fZj:_emscripten_glVertexAttrib1f__wrapper
vLa:__ZNK12HandlerChain4SizeERK13FileEntryData
Hnh:_DefaultComparer_Equals_m1281232537_gshared
fp:FUNCTION_TABLE_iiiiiiiii
L4d:_InputField_set_asteriskChar_m619206227
PCg:_DES_IsSemiWeakKey_m3967392585
$5:__Z24GetComponentOrScriptNameRN5Unity9ComponentE
hEc:__Z22GetPhysicsGroundBody2Dv
I_e:_Int16_System_IConvertible_ToUInt32_m883204517_AdjustorThunk
i$g:_MonoProperty_get_PropertyType_m1921201152
yZd:_FloatTween_TweenValue_m3881535116_AdjustorThunk
fHj:_GC_allochblk
Hna:__Z15UnloadGameScenev
L1j:_glCheckFramebufferStatus__wrapper
snf:_BigInteger_get_Rng_m2525288368
ryg:_BinaryCommon_IsPrimitive_m2132448955
yx:__ZN7mecanim9animation14DeltasFromClipERKNS0_18ClipMuscleConstantERKNS0_12ClipBindingsERKNS_14ValueArrayMaskERNS_10ValueArrayESB_SB_
OIf:_X509ExtensionEnumerator_Reset_m3200687545
Ixd:_CaseInsensitiveHashCodeProvider__ctor_m3775398833
hOh:_Comparer_1_System_Collections_IComparer_Compare_m674728644_gshared
Dfc:__Z36Renderer_Get_Custom_PropSortingOrderP12Il2CppObject
mkj:__ZNK15dense_hashtableINSt3__24pairIK10KeyWrapperIPK10Il2CppTypeEjEES6_N6il2cpp8metadata14Il2CppTypeHashEN14dense_hash_mapIS6_jSB_NS6_14EqualsComparerINSA_26Il2CppTypeEqualityComparerEEENS0_9allocatorIS8_EEE9SelectKeyESF_SH_E13find_positionERS7_
Wca:__ZN7Texture5ResetEv
zxc:__ZNK14b2CapsuleShape7RayCastEP15b2RayCastOutputRK14b2RayCastInputRK11b2Transformi
PJb:__Z18Transfer_BlittableI24GenerateTypeTreeTransferLb1EhEvRK29SerializationCommandArgumentsR31RuntimeSerializationCommandInfo
_Ic:__ZN10Collider2D16TransformChangedEi
ybc:__ZNK16TypeTreeIterator10ByteOffsetEv
Gce:_Array_FindLastIndex_TisIl2CppObject_m3885928623_gshared
l0d:_Graphic_get_rectTransform_m2697395074
g8:__ZnwjRKSt9nothrow_t
cs:__ZN8Animator11ClearObjectEv
vAb:__ZNSt3__26vectorIi13stl_allocatorIiL18MemLabelIdentifier12ELi16EEE8__appendEj
Caa:__Z20PlayerLoadFirstSceneb
Yga:__ZN14SafeBinaryRead19TransferSTLStyleMapINSt3__23mapI39DeprecatedFastPropertyNameSerializationN18UnityPropertySheet11UnityTexEnvENS1_4lessIS3_EENS1_9allocatorINS1_4pairIKS3_S5_EEEEEEEEvRT_17TransferMetaFlags
Chc:__Z45Register_UnityEngine_MonoBehaviour_IsInvokingv
_Yh:__Z65RuntimeInvoker_Void_t1841601450_Int64_t909078037_Int64_t909078037PK10MethodInfoPvPS2_
ADf:_IPv6Address_set_ScopeId_m1442934355
Izg:_ObjectManager_RaiseOnDeserializedEvent_m512850179
kac:__Z35UnregisterSerializationCacheBuilderPFv17ScriptingClassPtrR23CachedSerializationDataRbE
yfa:__Z30GetBuiltinVectorParamArraySize24BuiltinShaderVectorParam
ycf:_CodePointIndexer__ctor_m797342079
D2a:__ZN21RendererUpdateManager11AddRendererER8Renderer
F_b:__Z13RegisterClassI15ResourceManagerEvv
iub:__ZN14SafeBinaryRead21TransferSTLStyleArrayI13dynamic_arrayIfLj4EEEEvRT_17TransferMetaFlags
TAj:__ZN6il2cpp5utils11StringUtils11Utf16ToUtf8EPKDs
LZg:_MonoEventInfo_GetEventInfo_m2331957186
q6c:__ZN11UnityEngine15PlatformWrapper20IsRootedOrJailbrokenEv
rGf:_X509Certificate2_GetNameInfo_m402390219
Y0a:__Z33IntersectAABBPlaneBoundsOptimizedRK4AABBPKN4math7_float4Ei
fqd:_Swapper_BeginInvoke_m2652511022
geh:_RectOffset_t3387826427_marshal_pinvoke_back
nGg:_UTF8Encoding_GetBytes_m2973831055
$ua:__ZN9GfxDevice19EndGeometryJobFrameEv
TUe:_Comparison_1_Invoke_m2645957248_gshared
KJb:__ZN27Converter_SimpleNativeClassI17AnimationCurveTplIfEE17ScriptingToNativeER18ScriptingObjectPtrPS1_
n$h:__Z197RuntimeInvoker_Boolean_t3825574718_Il2CppObject_Il2CppObject_Il2CppObject_Int32_t2071877448_DateTimeU26_t3448131235_SByte_t454417549_BooleanU26_t3168250738_SByte_t454417549_ExceptionU26_t1467204777PK10MethodInfoPvPS2_
_Mj:__ZN6il2cpp8metadata24Il2CppGenericInstCompare7CompareERK10KeyWrapperIPK17Il2CppGenericInstES8_
Q6i:__ZNK15dense_hashtableINSt3__24pairIK10KeyWrapperIPK19Il2CppGenericMethodEPK26Il2CppGenericMethodIndicesEES6_N6il2cpp8metadata23Il2CppGenericMethodHashEN14dense_hash_mapIS6_SA_SE_NS6_14EqualsComparerINSD_26Il2CppGenericMethodCompareEEENS0_9allocatorISB_EEE9SelectKeyESI_SK_E5beginEv
C0d:_Graphic_get_materialForRendering_m2600868951
Iui:_AnimatorControllerPlayable_INTERNAL_CALL_PlayInternal_m3496633968
eIe:_Collection_1_System_Collections_IList_Contains_m3210868188_gshared
bIa:__ZN9GfxDevice22UploadTextureCubeArrayE9TextureIDPKhjii13TextureFormati18TextureUploadFlags17TextureColorSpace
a0b:__ZNK17AnimationCurveTplIfE8EvaluateEfPNS0_5CacheE
wNa:__Z31ManagerContextInitializeClassesv
zWe:_NumberFormatter_AppendIntegerString_m868842252
aRf:__ZL53SortedList_t3004938869_CustomAttributesCacheGeneratorP21CustomAttributesCache
zNc:_UNITY_FT_List_Finalize
NWa:__Z20LightAttenuateApproxRKfS0_
f3:__ZN9Scripting30SetCachedPtrOnScriptingWrapperE18ScriptingObjectPtrP6Object
_H:__ZNK12AudioManager26GetTypeInfoVirtualInternalEv
rMb:__Z18Transfer_BlittableI19StreamedBinaryWriteILb0EELb0EdEvRK29SerializationCommandArgumentsR31RuntimeSerializationCommandInfo
mmd:_ASCIIEncoding_GetBytes_m3649277167
V1g:_GUILayoutUtility_Internal_GetWindowRect_m1287880151
Tzc:__ZN16b2PrismaticJoint4DumpEv
h6h:__Z49RuntimeInvoker_Il2CppObject_Il2CppObject_IntPtr_tPK10MethodInfoPvPS2_
abf:_MonoType_GetObjectData_m2888677152
Kqa:__ZN18BlockRangeInternal16PopLastNodeIndexEP10BlockRangeji
rPg:_Version__ctor_m2972638031
ppe:_Enumerator_System_Collections_IEnumerator_Reset_m886102771_AdjustorThunk
Qff:_Kernel_MultiplyByDword_m155008287
ztb:__ZN4MeshD0Ev
H9c:__ZL42RequestRecreateEyeTexturesBeforeNextUpdatev
Oea:__ZNK6Camera20IsCurrentlyRenderingEv
Hsh:_LayoutUtility_U3CGetMinHeightU3Em__4_m1769295917
V1c:__Z36CanvasRenderer_CUSTOM_SetPopMaterialP12Il2CppObjectS0_i
esc:__Z18Transfer_BlittableI9JSONWriteLb0EdEvRK29SerializationCommandArgumentsR31RuntimeSerializationCommandInfo
pzc:__ZNK11b2GearJoint16GetReactionForceEf
ZOe:_ReadOnlyCollection_1_System_Collections_IList_Insert_m3679749778_gshared
mBh:_Toggle_OnDidApplyAnimationProperties_m325835214
gPj:_wctomb
ati:_AnimatorControllerPlayable_INTERNAL_CALL_IsParameterControlledByCurveString_m1715379406
wdc:__Z27Camera_CUSTOM_GetAllCamerasP11Il2CppArray
LBd:_Convert_InternalFromBase64String_m3682756716
bd:___cxa_rethrow
Ctc:__Z18Transfer_BlittableI8JSONReadLb1EhEvRK29SerializationCommandArgumentsR31RuntimeSerializationCommandInfo
zGc:__ZN18Overlap2DQueryBase13ReportFixtureEP9b2Fixture
UEi:_Regex_System_Runtime_Serialization_ISerializable_GetObjectData_m4035555909
nJg:_TimeSpan_Add_m3228293154
Knh:_DefaultComparer_Equals_m4098991076_gshared
C4a:__ZN13MonoBehaviour8SetClassE17ScriptingClassPtr18ScriptingObjectPtr
Oqf:_RC4__cctor_m523650203
qAi:_CrossContextDelegate_Invoke_m2908136830
HW:__ZN20LocalFileSystemPosix4ReadER13FileEntryDatayyPvPy
m_a:__ZNSt3__211__sift_downIRN23ForwardShaderRenderLoop18RenderObjectSorterILb0EEEP21ForwardRenderPassDataEEvT0_S7_T_NS_15iterator_traitsIS7_E15difference_typeES7_
y8e:_UnmanagedMemoryStream_get_Position_m4093669769
HVj:dynCall_iiiiiiffiiiiiiiiiffffiiii
tDb:__ZN13MonoBehaviour5DoGUIENS_13GUILayoutTypeEii
TTg:_DerivedType_IsDefined_m555719351
kCi:_Mark_get_IsDefined_m3332701456
Gbb:__ZNK12TLSAllocatorI14StackAllocatorE8ContainsEPKv
$xb:__ZN11TimeManager8TransferI18StreamedBinaryReadILb0EEEEvRT_
WWb:__ZN15SerializeTraitsINSt3__23mapI4PPtrI6ShaderEN4core12basic_stringIcNS5_20StringStorageDefaultIcEEEENS0_4lessIS4_EENS0_9allocatorINS0_4pairIKS4_S9_EEEEEEE8TransferI24GenerateTypeTreeTransferEEvRSH_RT_
_Cg:_DESTransform__cctor_m1179482644
Ntb:__ZN14BlendShapeData8TransferI14SafeBinaryReadEEvRT_
$Ni:_TextGenerator_PopulateWithErrors_m467881283
jNd:_Enum_Format_m2294492821
Kpa:__ZN7Texture25ReloadFromStorageIfNeededEPvb
QAb:__ZN24GenerateTypeTreeTransfer8TransferINSt3__26vectorIN30RuntimeInitializeOnLoadManager15ClassMethodInfoE13stl_allocatorIS4_L18MemLabelIdentifier12ELi16EEEEEEvRT_PKc17TransferMetaFlags
Qgh:_ShimEnumerator_get_Entry_m2332479818_gshared
eId:_DateTime_CheckDateTimeKind_m329345155_AdjustorThunk
HYc:_Update_Max
_ui:_PlayableHandle_Equals_m1435096530_AdjustorThunk
nsj:__ZN6il2cpp6icalls8mscorlib6SystemL15ThrowNoWideningEv
k0b:__ZNK23TransformChangeDispatch24GetChangeMaskForInterestENS_12InterestTypeE
Njc:__Z45Transform_CUSTOM_INTERNAL_CALL_TransformPointP12Il2CppObjectRK8Vector3fRS1_
OHe:__ZN23InterfaceActionInvoker2Ii18Color32_t874517518E6InvokeEjP11Il2CppClassP12Il2CppObjectiS0_
jbb:__ZL10KeyHandleriPK23EmscriptenKeyboardEventPv
T8i:__ZN14dense_hash_mapI10KeyWrapperI13dynamic_arrayIPK10Il2CppTypeLj4EEEPFvvEN6il2cpp8metadata19Il2CppSignatureHashENS6_14EqualsComparerINSA_22Il2CppSignatureCompareEEENSt3__29allocatorINSF_4pairIKS6_S8_EEEEEC2EjRKSB_RKSE_
vha:__ZNSt3__26__treeINS_12__value_typeI39DeprecatedFastPropertyNameSerializationfEENS_19__map_value_compareIS2_S3_NS_4lessIS2_EELb1EEENS_9allocatorIS3_EEE7destroyEPNS_11__tree_nodeIS3_PvEE
dSc:_tt_cmap4_char_index
jki:_AsyncOperation_get_allowSceneActivation_m2825451182
OJg:_TimeSpan_op_Addition_m3421801803
FLa:__ZNK12HandlerChain8IsHiddenERK13FileEntryData
Hog:__ZL50Graphic_t2426225576_CustomAttributesCacheGeneratorP21CustomAttributesCache
cJb:__ZL26Transfer_SimpleNativeClassI17RemapPPtrTransfer10RectOffsetLb0EEvRK29SerializationCommandArgumentsR31RuntimeSerializationCommandInfo
aOc:__Z14ValidateFormatR13dynamic_arrayIN20TextRenderingPrivate16TextFormatChangeELj4EE
nQi:_Vector2_op_Implicit_m1064335535
gHd:_DateTime_System_IConvertible_ToInt32_m2789391054_AdjustorThunk
ygf:_ASN1Convert_FromInt32_m1541043489
tUd:_PointerInputModule_ProcessMove_m3200120346
sCd:_Convert_ToByte_m1008221737
Ppf:_MD2Managed_MD2Transform_m3825201358
nqg:__ZL69Scrollbar_t3248359358_CustomAttributesCacheGenerator_m_OnValueChangedP21CustomAttributesCache
BDc:__ZN10ClipperLib14PointInPolygonERKNS_8IntPointEPNS_5OutPtE
F_d:_Dropdown_AddOptions_m835420907
mRi:_Vector4_get_sqrMagnitude_m2115578799_AdjustorThunk
Afa:__ZNK9ShaderLab20ShaderBlendStateDesc15ToGfxBlendStateEPK19ShaderPropertySheetS3_R13GfxBlendState
VXd:_CanvasUpdateRegistry_IsRebuildingLayout_m1677873278
ZEc:__ZN15dense_hashtableINSt3__24pairIKNS1_IPK10Collider2DS4_EE11Collision2DEES5_NS2_23ColliderPairHashFunctorEN14dense_hash_mapIS5_S7_S9_NS0_8equal_toIS5_EE13stl_allocatorIS8_L18MemLabelIdentifier65ELi16EEE9SelectKeyESC_SF_E9copy_fromERKSI_j
_v:__ZN11UnityEngine9AnimationL22GenericBindingCallbackEPvS1_i
pYc:_Compute_Point_Displacement
GWb:__ZN9ShaderLab9IntShaderC2Ev
Hej:__ZN6il2cpp6icalls8mscorlib6SystemL9IsPrivateEPK9EventInfo
ALj:__ZN6il2cpp6icalls8mscorlib6System10Reflection4Emit11TypeBuilder20setup_internal_classEP27Il2CppReflectionTypeBuilderS7_
e3g:_RectOffset_set_left_m620681523
$bh:_Physics2D_Raycast_m2560154475
_Ch:_ArrayReadOnlyList_1_IndexOf_m1809425308_gshared
tgj:_il2cpp_gc_disable
jE:__Z69AnimatorControllerPlayable_CUSTOM_INTERNAL_CALL_GetLayerIndexInternalR9HPlayableP12Il2CppString
cTd:_ExecuteEvents_U3Cs_HandlerListPoolU3Em__0_m2903690915
yzd:_Hashtable_Clone_m165405752
Wzc:__ZN16b2PrismaticJoint24SolveVelocityConstraintsERK12b2SolverData
uoi:_Component_BroadcastMessage_m444672650
L5c:__ZN11UnityEngine15PlatformWrapper19GetPhysicalMemoryMBEv
LX:__Z15CreateDirectoryRKN4core12basic_stringIcNS_20StringStorageDefaultIcEEEE
Joa:__Z21CalculateGlobalMatrix23TransformAccessReadOnly
NPf:__ZL70InternalsVisibleToAttribute_t1037732567_CustomAttributesCacheGeneratorP21CustomAttributesCache
d3e:_MonoIO_GetCurrentDirectory_m1509324201
AFg:_UTF32Encoding_GetHashCode_m4205784236
hDd:_DateTime_ToUniversalTime_m1815024752
D_b:__Z13RegisterClassI14RenderSettingsEvv
N2a:__ZNK25CameraStackRenderingState25CalculateCameraTargetTypeEv
HNi:_TextGenerator_Finalize_m4242493229
rEe:_Collection_1_ConvertItem_m3563206219_gshared
LJg:_TimeSpan_Subtract_m3597791685_AdjustorThunk
sui:_AnimatorControllerPlayable_CrossFade_m3146661810
az:__ZN7mecanim12statemachine24CreateStateMachineOutputEPKNS0_20StateMachineConstantEjRNS_6memory9AllocatorE
C8g:_Logger__ctor_m3834134587
Ffj:_il2cpp_assembly_get_image
yva:__ZNK9GfxDevice27GetActiveRenderSurfaceWidthEv
pae:_SetPropertyUtility_SetClass_TisIl2CppObject_m3524554928_gshared
rdb:__ZNK11AssetBundle26GetTypeInfoVirtualInternalEv
IJi:_PKCS12_get_Keys_m1312614820
b6c:__ZN11UnityEngine15PlatformWrapper28GetCleanGraphicsFixedVersionEv
w:tempBigIntP
wij:__ZN6il2cpp2vm4Type7GetTypeEPK10Il2CppType
Tdh:_Rect_Contains_m1334685291_AdjustorThunk
T0b:__ZN16SpriteRenderData28PrepareRenderingDataIfNeededEv
kqd:_AssemblyLoadEventHandler_Invoke_m108373765
X6h:__Z64RuntimeInvoker_Boolean_t3825574718_Il2CppObject_Int64_t909078037PK10MethodInfoPvPS2_
sUd:_PointerInputModule_ShouldStartDrag_m4163638715
u2i:__ZL24UnresolvedVirtualCall_76P12Il2CppObjectPK10MethodInfo
Nka:__ZN6prcoreL17RemapGenericFloatI18TexFormatRGBAFloat17TexFormatRGBAHalfEEvPKNS_9InnerInfoE
_Qa:__Z16FindCameraStacksRKNSt3__24listI4PPtrI6CameraENS_9allocatorIS3_EEEERNS_6vectorI11CameraStackNS4_ISA_EEEE
QRi:_WebRequestUtils__cctor_m893658947
opb:__ZN10GISettings8TransferI14SafeBinaryReadEEvRT_
xn:FUNCTION_TABLE_vifff
CRe:_ReadOnlyCollection_1_System_Collections_Generic_ICollectionU3CTU3E_Remove_m2957273994_gshared
kRd:_BaseInputModule_ShouldActivateModule_m2899747874
eda:__ZN13RenderTexture13ApplySettingsEv
$e:_JS_Sound_SetListenerPosition
qn:FUNCTION_TABLE_fiffi
iXg:_ModuleBuilderTokenGenerator_GetToken_m3427457873
DCb:__ZN9TextAsset9SetScriptERKN4core12basic_stringIcNS0_20StringStorageDefaultIcEEEEb
nyh:_Selectable_get_isPointerInside_m3162215687
gse:_List_1_System_Collections_IList_Contains_m149594880_gshared
Xdh:_Rect_Overlaps_m4145874649
SOg:_UnauthorizedAccessException__ctor_m3480402128
Nff:_BigInteger_op_Modulus_m3788401748
SAi:_ArgInfo_GetInOutArgs_m3184132151
Rma:__ZNK8Material16MarkDependenciesER27GarbageCollectorThreadState
gsc:__ZL17Transfer_GUIStyleI9JSONWriteLb0EEvRK29SerializationCommandArgumentsR31RuntimeSerializationCommandInfo
MUa:__Z28GetHaloVertexPositionsStereoP8Vector3fRKS_S2_f
Dla:__ZN6prcoreL27StretchGenericFloatBilinearI15TexFormatRGHalfEEvPKNS_9InnerInfoE
$oe:_Enumerator_MoveNext_m598197344_AdjustorThunk
Dpi:_DisplaysUpdatedDelegate_Invoke_m3646339243
lld:_String_JoinUnchecked_m1880555587
Rfa:__ZNK9ShaderLab7Program21GetMatchingSubProgramEPK6ShaderPKNS_4PassERK16ShaderKeywordSetjPS7_R19ShaderSnippetResult
uge:_Array_InternalArray__Insert_TisKeyValuePair_2_t1174980068_m2464431954_gshared
oic:__Z49Register_UnityEngine_Resources_GetBuiltinResourcev
pSc:_tt_cmap10_char_index
B_d:_Dropdown_Awake_m335654827
rmh:_Dictionary_2_U3CCopyToU3Em__0_m1479035402_gshared
pxd:_BitArray_set_Item_m3801461194
n$i:__ZN15dense_hashtableINSt3__24pairIK10KeyWrapperIPK22Il2CppGenericParameterEP11Il2CppClassEES6_N6il2cpp5utils11PointerHashIS4_EEN14dense_hash_mapIS6_S9_SE_NS6_14EqualsComparerINS0_8equal_toIS5_EEEENS0_9allocatorISA_EEE9SelectKeyESJ_SL_E3endEv
Wkd:_String_Remove_m3580114465
mVb:__ZN9ShaderLab22SerializedBindChannels8TransferI19StreamedBinaryWriteILb0EEEEvRT_
Omc:__ZN5IMGUI20MoveWindowFromLayoutER8GUIStateiRK5RectTIfE
aUf:__ZL56ParameterInfo_t2249040075_CustomAttributesCacheGeneratorP21CustomAttributesCache
tOg:_UIntPtr__ctor_m2737768530
FNc:_UNITY_FT_Stream_ReadUShort
Y4d:_InputField_OnEnable_m3797157569
Vec:__Z51Register_UnityEngine_GUILayer_INTERNAL_CALL_HitTestv
Skc:__Z50Register_UnityEngine_Object_FindSceneObjectsOfTypev
Wga:__ZNSt3__26__treeINS_12__value_typeIN4core12basic_stringIcNS2_20StringStorageDefaultIcEEEES6_EENS_19__map_value_compareIS6_S7_NS_4lessIS6_EELb1EEE13stl_allocatorIS7_L18MemLabelIdentifier1ELi16EEE7destroyEPNS_11__tree_nodeIS7_PvEE
USi:_Nullable_1__ctor_m796575255_gshared
UFj:__ZN6il2cpp2vm8Profiler7GCEventE13Il2CppGCEvent
qHd:_DateTimeUtils_ToString_m3878360633
msj:__ZN6il2cpp6icalls8mscorlib6SystemL16ThrowInvalidCastEPK11Il2CppClassS5_
gMh:_InternalEnumerator_1_get_Current_m3732458101_AdjustorThunk
czb:__ZN12AspectRatios8TransferI24GenerateTypeTreeTransferEEvRT_
Ghi:_CustomEventData_AddUInt64_m1437973832
JVd:_TouchInputModule_Process_m1373751353
Rf:_emscripten_glUniform1fv
BSd:_ExecuteEvents_Execute_m898902863
jJ:__ZN4FMOD7Channel7setModeEj
ETg:_DerivedType_InvokeMember_m4149586013
vAf:_TlsStream_SetLength_m1460039587
Vmc:__ZN11IMGUIModule12AddGUIScriptER8ListNodeI13MonoBehaviourE
qb:invoke_difi
H7:__ZL50StaticRegisterSceneLoadedCallback_LightmapSettingsPv
Pm:FUNCTION_TABLE_iiffi
H1d:_GridLayoutGroup_get_cellSize_m1061731753
gAa:__ZN21GLESGpuProgramApplier11ApplyVectorERKN20GpuProgramParameters14ValueParameterEPK8Vector4ft
y0a:__Z17PrepareSceneNodesP11CullResults
tRi:_Vector4_ToString_m2340321043_AdjustorThunk
QGi:_Parser_IsIgnoreCase_m4155598997
EUc:_cff_size_done
cSa:__ZN22RenderingCommandBuffer13GetAndCheckRTE24BuiltinRenderTextureTypeRKN9ShaderLab16FastPropertyNameEPKcPP13RenderTexture
k7a:__ZN6Camera34UpdatePreviousViewProjectionMatrixEv
Ufa:__ZN9ShaderLab11ShaderState25RemoveUnsupportedProgramsEPK6Shader
ZVb:__ZL23AddGpuProgramParametersR20GpuProgramParametersRKNSt3__26vectorIN9ShaderLab20SerializedSubProgram15MatrixParameterENS1_9allocatorIS5_EEEERKNS2_INS4_15VectorParameterENS6_ISB_EEEEiP16PropertyNamesSet
Kkc:__Z44Register_UnityEngine_Object_DestroyImmediatev
fec:__Z47Register_UnityEngine_Component_BroadcastMessagev
Ar:__ZN18StreamedBinaryReadILb0EE21TransferSTLStyleArrayI13dynamic_arrayI4PPtrI6ObjectELj4EEEEvRT_17TransferMetaFlags
jVf:__ZL62_ConstructorBuilder_t1236878896_CustomAttributesCacheGeneratorP21CustomAttributesCache
Dac:__Z26scripting_class_has_parent17ScriptingClassPtrS_
A0e:_Int64_System_IConvertible_ToInt16_m2022633688_AdjustorThunk
O6:__ZN13RuntimeStaticI21AssetReferenceStorageLb0EE16StaticInitializeEPv
eOj:__ZN6il2cpp8metadata25Il2CppGenericClassCompare7CompareEPK18Il2CppGenericClassS4_
Eu:__ZNK8Animator20IsInMatchTargetStateEv
Em:FUNCTION_TABLE_viiifiii
Anc:__Z36Register_UnityEngine_GUI_set_changedv
hid:_Encoding_get_Unicode_m1382741113
czi:_LifetimeServices_set_SponsorshipTimeout_m1403222216
Hud:_Char_ToString_m1401375624_AdjustorThunk
kee:_Array_InternalArray__ICollection_Add_TisTableRange_t2011406615_m147373358_gshared
yDd:_Convert_ToDateTime_m1251728572
mee:_Array_InternalArray__ICollection_Add_TisBoolean_t3825574718_m1009318882_gshared
xSe:_ReadOnlyCollection_1_System_Collections_IList_set_Item_m1149349508_gshared
My:__ZN27AnimationLayerMixerPlayable18SetInputConnectionEP8Playablei
cpc:__Z42Register_UnityEngine_GUIStyle_get_wordWrapv
izg:_ObjectReader_ReadObjectContent_m3949770110
qoi:_Component_SendMessage_m4199581575
gta:__ZZ19InitializeGfxDevice20GfxCreateDeviceFlagsEN38PreLateUpdateEndGraphicsJobsLatestruct7ForwardEv
Z0i:__ZN6il2cpp2vm5Class40GetInterfaceInvokeDataFromVTableSlowPathEPK12Il2CppObjectPK11Il2CppClassj
clb:__ZN20TierGraphicsSettings8TransferI18StreamedBinaryReadILb0EEEEvRT_
dAh:_Text_get_font_m3115501113
wrj:__GLOBAL__sub_I_Thread_cpp
fha:__ZN14SafeBinaryRead8TransferINSt3__24pairIN9ShaderLab16FastPropertyNameE10ColorRGBAfEEEEvRT_PKc17TransferMetaFlags
eXi:__ZL9rshift128PyS_
pYb:__Z10pqHeapInitP13PriorityQHeap
czg:_ObjectReader_RecordFixup_m1893348030
yUg:_EnumBuilder_GetElementType_m1228393631
kpj:__ZN14dense_hash_mapI10KeyWrapperINSt3__24pairIPK12PropertyInfoP11Il2CppClassEEEj17ReflectionMapHashIS8_ENS9_14EqualsComparerINS1_8equal_toIS8_EEEENS1_9allocatorINS2_IKS9_jEEEEE13set_empty_keyERSH_
fk:_glRenderbufferStorage
czj:__ZNK15dense_hashtableINSt3__24pairIK10KeyWrapperINS1_IPKcS4_EEEiEES6_24NamespaceAndNamePairHashN14dense_hash_mapIS6_iS9_NS6_14EqualsComparerI26NamespaceAndNamePairEqualsEENS0_9allocatorIS8_EEE9SelectKeyESD_SF_E13find_positionERS7_
kgc:__Z45Register_UnityEngine_Input_get_touchSupportedv
f6c:__ZN11UnityEngine15PlatformWrapper28GetTextureFormatSupportFlagsEv
fQc:_UNITY_FT_Create_Class_pshinter_module_class
tkd:_String_CompareOrdinalCaseInsensitiveUnchecked_m2002640463
$rd:_Boolean_GetHashCode_m1894638460
hVc:_cf2_setError
SFg:_UTF7Encoding_InternalGetChars_m4157428055
Coa:__Z33InterpolateLightProbeCoefficientsRK17LightProbeContextRK29LightProbeSamplingCoordinatesR20SphericalHarmonicsL2
Zhf:_SmallXmlParser_HandleBufferedContent_m3397096753
dh:_glDisable
e6d:_InputField_OnDeselect_m3963675647
e3c:__Z44Register_UnityEngine_Canvas_get_pixelPerfectv
mBj:__ZN6il2cpp5utils11StringUtils15StringDuplicateEPKDsj
dJf:_BaseMachine_Scan_m122450399
Kui:_AnimatorControllerPlayable_PlayInternal_m3385259863
tvd:_ArrayList_CopyTo_m2353632788
B7:__ZNSt3__26vectorINS_4pairIyP17VertexDeclarationEENS_9allocatorIS4_EEE6assignIPS4_EENS_9enable_ifIXaasr21__is_forward_iteratorIT_EE5valuesr16is_constructibleIS4_NS_15iterator_traitsISB_E9referenceEEE5valueEvE4typeESB_SB_
Wbi:__Z100RuntimeInvoker_Int32_t2071877448_Il2CppObject_Color32_t874517518_Int32_t2071877448_Int32_t2071877448PK10MethodInfoPvPS2_
hYa:__ZNK8Material12GetPassCountEv
ZAd:_Enumerator__cctor_m3784927209
k2j:b110
l2j:b111
m2j:b112
gTj:_bitshift64Ashr
p2j:b114
q2j:b115
r2j:b116
Iga:__ZNK8Material26GetTypeInfoVirtualInternalEv
mIc:__ZN11Rigidbody2D23VirtualRedirectTransferER14SafeBinaryRead
K0b:__ZN14SpriteRenderer12CleanupClassEv
IBa:__ZN4crnd12crn_unpacker22decode_alpha_endpointsEv
y1a:__Z23CullDynamicObjectsUmbraPK4AABBPKN5Umbra15OcclusionBufferER9IndexList
eSc:_tt_cmap4_char_next
p$:__ZN17DirectorFrameTime14ResetDSPValuesEv
IIi:_GeneralNames_ToString_m800435094
JWd:_BaseMeshEffect_OnDidApplyAnimationProperties_m2484799839
umd:_ASCIIEncoding_GetString_m3931709239
Z_a:__ZN23ForwardShaderRenderLoopD2Ev
rMg:_UInt16_Parse_m3560204090
Jvc:__ZN8JSONRead21TransferSTLStyleArrayI13dynamic_arrayIsLj2EEEEvRT_18MemLabelIdentifier17TransferMetaFlags
XI:__ZN4FMOD7Channel11setPositionEjj
Xh:_glBindSampler
E8:__Z22CreateMutexLockedQueuev
MTe:_ReadOnlyCollection_1_System_Collections_Generic_ICollectionU3CTU3E_Clear_m964488020_gshared
_h:_glGetVertexAttribiv
oee:_Array_InternalArray__ICollection_Add_TisChar_t3454481338_m422084244_gshared
P_c:__ZN2UI11CanvasGroup23VirtualRedirectTransferER18StreamedBinaryReadILb0EE
kti:_AnimatorControllerPlayable_GetLayerName_m2571001466
Quc:__ZN8JSONRead8TransferIbEEvRT_PKc17TransferMetaFlagsb
l8g:_DefaultValueAttribute_Equals_m3216982933
kFf:_X509KeyUsageExtension_Decode_m3292847033
R7:__ZN26SharedLightmapSettingsDataD2Ev
lZg:_Module_filter_by_type_name_ignore_case_m3574895736
_ob:__ZN26CustomRenderTextureManager19PreAllocateMaterialEP19CustomRenderTexture
Kyg:_ObjectReader_ReadObject_m397855326
PGj:_GC_promote_black_lists
I2d:_Image_get_fillAmount_m3354146540
Bvc:__Z29Transfer_Blittable_ArrayFieldI8JSONRead8Vector4fEvRT_R9ArrayInfoRK23StaticTransferFieldInfo
hOc:__ZNK13TextRendering4Font9GetAscentEv
Yn:FUNCTION_TABLE_vf
xo:FUNCTION_TABLE_vd
_Kg:_Type_GetMethod_m1930231379
zo:FUNCTION_TABLE_vi
Wxg:_WellKnownServiceTypeEntry_ToString_m493996021
ndf:_SimpleCollator_GetContraction_m1391584430
csd:_CultureInfo_get_InvariantCulture_m398972276
Erd:_Boolean_System_IConvertible_ToInt64_m4142756949_AdjustorThunk
NC:__ZNK8Animator17HasBoundPlayablesEv
uHc:__ZN17Physics2DSettings8TransferI24GenerateTypeTreeTransferEEvRT_
Dpf:_HMAC_initializePad_m3828610671
bdd:_RSAParameters_t1462703416_marshal_pinvoke_cleanup
hki:_AsyncOperation_get_priority_m966065939
va:invoke_iiifiii
stj:__ZN6il2cpp2vm9Exception11FromNameMsgEPK11Il2CppImagePKcS6_S6_
JKg:_Type_internal_from_name_m1506974323
gn:FUNCTION_TABLE_fiiifii
gC:__ZN10HumanTrait15InitializeClassEv
E$:__Z14GetTimeManagerv
KZb:__ZneRK20SpriteTilingPropertyS1_
c4h:__Z67RuntimeInvoker_Void_t1841601450_Scene_t1684909666_Int32_t2071877448PK10MethodInfoPvPS2_
rhb:__Z12GUIDToStringRK9UnityGUIDPc
Ueb:__ZN15FileSystemEntry4LockE12FileLockModeP12FileAccessor
X7d:_Array_get_swapper_TisIl2CppObject_m1701356863_gshared
mM:__ZN11AudioSource22UnmuteActiveVideoSinksEv
jBj:__ZN4utf88internal20is_overlong_sequenceIiEEbjT_
Ti:_glReadBuffer
Jwd:_SynchronizedArrayListWrapper_get_Count_m4104930530
pZa:__Z30SetupBakedOcclusionForGeometrybRK26SharedLightmapSettingsDataRK15LightmapIndicesR17ShaderPassContext
jgd:_SecurityPermission_IsSubsetOf_m1087302418
lec:__Z41Register_UnityEngine_Cursor_get_lockStatev
OYa:__Z14SetupLightmapsRK8Vector4fS1_R17ShaderPassContext
RKf:_Interval_get_Empty_m3170923997
$$b:__Z20DestroyObjectDelayedP6Objectf
WU:__ZN20DynamicHeapAllocatorI17LowLevelAllocatorED0Ev
t5d:_InputField_OnDrag_m726194348
iDc:__ZN10ClipperLib11ClipperBase5ResetEv
vef:_PreviousInfo__ctor_m1442166472_AdjustorThunk
$Va:__ZN9DepthPassD2Ev
RH:__ZN11AudioFilter6GetDSPEv
C5i:__ZN13Il2CppHashMapIPKcP11Il2CppClassN6il2cpp5utils11StringUtils12StringHasherIS1_EENS6_21CaseSensitiveComparerENSt3__29allocatorINSA_4pairIK10KeyWrapperIS1_ES3_EEEEEC2EjRKS8_RKS9_
ZMc:__ZN20TextRenderingPrivate15DynamicFontData36GetFaceForCharacterIfAvailableInFontERKNS_7FontRefERKNSt3__26vectorI4PPtrIN13TextRendering4FontEE13stl_allocatorIS9_L18MemLabelIdentifier34ELi16EEEEj
L1:__ZN19RuntimeSceneManager14CanUnloadSceneEP10UnityScene
pWa:__Z22ExtractRenderNodeQueueRK11CullResults15ExtractionFlagsR15RenderNodeQueue
hie:_Array_InternalArray__set_Item_TisContentType_t1028629049_m703420360_gshared
pDe:_List_1_set_Item_m1431784996_gshared
dH:__ZN24AudioScriptBufferManagerC2Ev
Kwc:__ZN11UnityEngine9Analytics18SceneLoadTimeEvent12ToJsonStringER9JSONWrite
zMc:__ZNSt3__26vectorIh13stl_allocatorIhL18MemLabelIdentifier1ELi16EEE8__appendEj
CMc:__ZN20TextRenderingPrivate8FontImpl16ResetPackingDataEv
$Ig:_TimeSpan_get_Hours_m3804628138_AdjustorThunk
dde:_Array_InternalArray__IndexOf_TisLink_t865133271_m3612939760_gshared
orc:__Z18Transfer_BlittableI9JSONWriteLb0EfEvRK29SerializationCommandArgumentsR31RuntimeSerializationCommandInfo
rda:__Z21GetAsyncUploadManagerv
Kj:_emscripten_glDetachShader
yOg:_UIntPtr__cctor_m889490270
vcf:_SafeHandleZeroOrMinusOneIsInvalid_get_IsInvalid_m2033528032
tud:_Char_IsUpper_m4083577610
UAa:__ZN17GenericDynamicVBO20ReleaseChunkInternalERK21DynamicVBOChunkHandlejj
sZc:__ZL27CleanupModule_TextRenderingv
ucf:_SafeHandleZeroOrMinusOneIsInvalid__ctor_m3340306667
IPj:_fmodl
cwg:_SerializationInfo_AddValue_m902275108
WPj:_fmodf
uNb:__Z18Transfer_BlittableI18StreamedBinaryReadILb1EELb1E4AABBEvRK29SerializationCommandArgumentsR31RuntimeSerializationCommandInfo
nea:__ZN12CachedWriter11Align4WriteEv
sXa:__Z20DoDeferredRenderLoopR17RenderLoopContextR13dynamic_arrayI16RenderObjectDataLj4EES4_RK11CullResultsRP13RenderTextureSA_Pb
bsa:__ZN19RuntimeSceneManager11CreateSceneEv
ZAg:_RuntimeTypeHandle__ctor_m235560320_AdjustorThunk
uUc:_ps_get_standard_strings
jHe:_Collection_1_IsValidItem_m1908012838_gshared
oZa:__Z27SetupBakedOcclusionForLightbRK15SharedLightDataR17ShaderPassContext
BMj:__ZN6il2cpp2os5Mutex6UnlockEv
rxh:_ScrollRect_OnScroll_m3346515304
Xpe:_Enumerator_System_Collections_IEnumerator_get_Current_m3461301268_gshared
jlh:_Dictionary_2_CopyToCheck_m1638253305_gshared
zRa:__Z18RenderImageFiltersR10RenderLoopb
IU:__Z19free_alloc_internalPv18MemLabelIdentifier
Ogb:__ZNK23ArchiveStorageConverter16GetDirectoryInfoEv
R1c:__Z43CanvasRenderer_Get_Custom_PropMaterialCountP12Il2CppObject
i5a:__ZN10GameObjectD2Ev
ROe:_ReadOnlyCollection_1_System_Collections_Generic_IListU3CTU3E_set_Item_m25653560_gshared
Sqg:__ZL68Selectable_t1490392188_CustomAttributesCacheGenerator_m_InteractableP21CustomAttributesCache
oBb:__ZN33AssetBundleLoadFromAsyncOperation12IsCrc32ValidEv
Sni:_Color32_op_Implicit_m889975790
pac:__ZN19RuntimeSceneManager32LoadSceneAsyncByNameOrBuildIndexERKN4core12basic_stringIcNS0_20StringStorageDefaultIcEEEEiNS_11LoadingModeEb
jri:_UnityEventBase_RebuildPersistentCallsIfNeeded_m1583202007
Drf:_CertificateSelectionCallback_Invoke_m2902629105
f7:__ZN10InputEventD2Ev
BXe:_DateTimeFormatInfo_GetAllDateTimePatternsInternal_m1587126173
$Pi:_Vector2_ToString_m775491729_AdjustorThunk
RWe:_NumberFormatter_Append_m3268121457
Ynj:__ZNK15dense_hashtableINSt3__24pairIK10KeyWrapperIPK14Il2CppAssemblyEPK16MonoAssemblyNameEES6_N6il2cpp5utils11PointerHashIS4_EEN14dense_hash_mapIS6_SA_SF_NS6_14EqualsComparerINS0_8equal_toIS5_EEEENS0_9allocatorISB_EEE9SelectKeyESK_SM_E3endEv
Mcd:_RSA_ToXmlString_m4145056574
bba:__Z20SetPlayerPauseDirect11PlayerPause
zMd:_Double_System_IConvertible_ToUInt64_m1318285078_AdjustorThunk
nPj:_isalpha
Ngj:_il2cpp_object_unbox
Zvh:_Selectable_FindSelectable_m2739582497
zzc:__ZNK12b2MotorJoint17GetReactionTorqueEf
sHd:_DateTimeUtils_ZeroPad_m86470512
Nbj:__ZN6il2cpp2vmL17IsSocketAsyncCallEP14Il2CppDelegate
JJc:__Z13RegisterClassI11Rigidbody2DEvv
J8g:_Logger_IsLogTypeAllowed_m1750132386
iFj:__ZN6il2cpp2vm6String6NewLenEPKcj
ejb:__ZN6Camera23VirtualRedirectTransferER19StreamedBinaryWriteILb0EE
Zk:_time
xbd:_RC2Transform__cctor_m4079629627
ETc:_ps_hints_done
e1d:_Graphic_UnregisterDirtyLayoutCallback_m1724443555
zpf:_CryptoConvert_ToHex_m2874017189
QVc:_cf2_stack_free
i2:__ZN15dense_hashtableINSt3__24pairIKiP6ObjectEEi21InstanceIDHashFunctorN14dense_hash_mapIiS4_S6_NS0_8equal_toIiEE13stl_allocatorIS5_L18MemLabelIdentifier65ELi16EEE9SelectKeyES9_SC_E12resize_deltaEjj
MA:__ZN8Animator31ClearInternalControllerPlayableEv
D5a:__ZN10GameObject8TransferI24GenerateTypeTreeTransferEEvRT_
Aqe:_Enumerator_VerifyState_m3913376581_gshared
Cjj:__ZN15dense_hashtableINSt3__24pairIK10KeyWrapperINS1_IPK9FieldInfoP11Il2CppClassEEEjEES9_17ReflectionMapHashIS8_EN14dense_hash_mapIS9_jSD_NS9_14EqualsComparerINS0_8equal_toIS8_EEEENS0_9allocatorISB_EEE9SelectKeyESI_SK_E4findERSA_
h1j:_glDeleteSync__wrapper
YDd:_Decimal_op_Implicit_m623319612
Zih:_ValueCollection_System_Collections_Generic_ICollectionU3CTValueU3E_Remove_m98888100_gshared
cSd:_EventTrigger_OnPointerExit_m2119176877
ZHg:_ThreadAbortException__ctor_m1623816114
l1b:__ZN13ProduceHelperI30RuntimeInitializeOnLoadManagerLb0EE7ProduceE18MemLabelIdentifier18ObjectCreationMode
B3a:__ZN13RenderTexture19SetAutoGenerateMipsEb
kja:__Z20GetTextureFormatInfo13TextureFormat
apc:__Z43Register_UnityEngine_GUIStyle_get_alignmentv
Fz:__ZN26AnimatorControllerPlayable8GetFloatEiRf
buh:_Shadow__ctor_m924057531
QTd:_PointerEventData_set_worldPosition_m192283671
aVj:dynCall_iiifiiii
VQi:_Vector3_get_right_m1884123822
WKj:__ZN6il2cpp5utils10MemoryPool6MallocEj
wG:__ZN11SoundHandle8InstanceD2Ev
i9:__ZN31CanvasBatchIntermediateRenderer13StaticDestroyEPv
LLi:_X509Store_BuildCrlsCollection_m52567568
Mgc:__Z29Mesh_CUSTOM_RecalculateBoundsP12Il2CppObject
iNd:_Enum_ToString_m662345249
i_j:_emscripten_glBindProgramARB__wrapper
iec:__Z41Register_UnityEngine_CullingGroup_Disposev
Tnb:__ZN7Cubemap23VirtualRedirectTransferER19StreamedBinaryWriteILb0EE
X4h:__Z100RuntimeInvoker_Void_t1841601450_Il2CppObject_Single_t2076509932_Int32_t2071877448_Single_t2076509932PK10MethodInfoPvPS2_
IKa:__ZN25MultiBlocksMemoryFileData5WriteEyyPKv
aAc:__ZNK13b2PulleyJoint16GetReactionForceEf
$Th:__Z78RuntimeInvoker_Il2CppObject_Int64_t909078037_Int64_t909078037_Int64_t909078037PK10MethodInfoPvPS2_
Lye:_List_1_System_Collections_IList_Add_m4271264217_gshared
Goj:__ZN14dense_hash_mapI10KeyWrapperIPK10Il2CppTypeEjN6il2cpp8metadata14Il2CppTypeHashENS4_14EqualsComparerINS6_26Il2CppTypeEqualityComparerEEENSt3__29allocatorINSB_4pairIKS4_jEEEEE13set_empty_keyERSE_
Wdc:__Z35Component_CUSTOM_SendMessageUpwardsP12Il2CppObjectP12Il2CppStringS0_i
SCa:__ZL17ProgramUniform2fvPK7ApiGLESjiihPKv
uMc:__ZN20TextRenderingPrivate8FontImpl21HasCharacterInTextureEjijfPj
JQj:_htonl
eya:__Z20GetBufferManagerGLESv
wQb:__ZN18StreamedBinaryReadILb0EE21TransferSTLStyleArrayI31ArrayOfManagedObjectsTransfererEEvRT_17TransferMetaFlags
bGg:_UTF7Decoder_GetChars_m2790530452
Vtc:__Z18Transfer_BlittableI8JSONReadLb0EtEvRK29SerializationCommandArgumentsR31RuntimeSerializationCommandInfo
LNa:__ZZ23InitPlayerLoopCallbacksvEN44EarlyUpdateResetFrameStatsAfterPresentstruct7ForwardEv
vAh:_Text_set_fontSize_m2101304336
gPc:_pshinter_module_class_pic_free
aqg:__ZL68Navigation_t1571958496_CustomAttributesCacheGenerator_m_SelectOnLeftP21CustomAttributesCache
Yu:__ZN34AnimationStateMachineMixerPlayable13EndTransitionEv
bEc:__ZNSt3__26vectorIxNS_9allocatorIxEEE6assignIPxEENS_9enable_ifIXaasr21__is_forward_iteratorIT_EE5valuesr16is_constructibleIxNS_15iterator_traitsIS7_E9referenceEEE5valueEvE4typeES7_S7_
AI:__ZN12AudioManager21FixMasterGroupRoutingEv
Red:_SymmetricAlgorithm_set_Key_m2973350820
yIc:__ZN6b2Body9SetActiveEb
tog:__ZL58FontData_t2614388407_CustomAttributesCacheGenerator_m_FontP21CustomAttributesCache
nEf:_WebHeaderCollection_IsHeaderValue_m1723393133
Yyd:_Hashtable__ctor_m4280223555
MCj:__ZN6il2cpp2os10ThreadImpl33UnregisterCurrentThreadForCleanupEv
Oy:__ZN27AnimationLayerMixerPlayable22PrepareAnimationEventsEfR13dynamic_arrayI22AnimationClipEventInfoLj4EE
FFb:__Z18Transfer_BlittableI14SafeBinaryReadLb1E4AABBEvRK29SerializationCommandArgumentsR31RuntimeSerializationCommandInfo
xBj:__ZN6il2cpp6icalls8mscorlib6System4Enum12get_hashcodeEP12Il2CppObject
X7g:_Input_INTERNAL_get_mouseScrollDelta_m1140491498
Jsi:_AnimatorControllerPlayable_SetInteger_m1311149575
jH:__ZN9AudioClip7WWWOpenEPKciPjPPvS4_
K0h:__Z79RuntimeInvoker_Void_t1841601450_Il2CppObject_Int32_t2071877448_Int64_t909078037PK10MethodInfoPvPS2_
yFb:__Z18Transfer_BlittableI14SafeBinaryReadLb0E8Vector2fEvRK29SerializationCommandArgumentsR31RuntimeSerializationCommandInfo
xui:_AnimatorControllerPlayable_PlayInFixedTime_m2562520484
Uc:_emscripten_glVertexAttrib2f
jTb:__ZN15SerializeTraitsIN9ShaderLab20SerializedSubProgram16TextureParameterEE8TransferI14SafeBinaryReadEEvRS2_RT_
Fsd:_Byte_System_IConvertible_ToInt16_m1575115635_AdjustorThunk
Mt:__ZN11UnityEngine9Animation31SetHumanTransformPropertyValuesERKNS0_21AvatarBindingConstantERKN7mecanim8skeleton13SkeletonPoseTIN4math4trsXEEEbb
Fzi:_Context_get_HasGlobalDynamicSinks_m3205328884
Mdf:_SimpleCollator_CompareQuick_m619038530
Szf:_SslStreamBase_EndRead_m1072850679
nd:_SDL_GetTicks
k0c:__ZN2UI14CanvasRenderer11SyncCullingENS0_8SyncFlagE
vlj:__ZN15dense_hashtableINSt3__24pairIK10KeyWrapperINS1_IPK11Il2CppImageP11Il2CppClassEEEjEES9_17ReflectionMapHashIS8_EN14dense_hash_mapIS9_jSD_NS9_14EqualsComparerINS0_8equal_toIS8_EEEENS0_9allocatorISB_EEE9SelectKeyESI_SK_E6insertERKSB_
dw:__Z16AppendPathToHashRKN7mecanim5crc32EPKc
d1a:__Z21CreateShadowCullerJobP30CreateUmbraShadowCullerJobData
T8g:_Material_get_mainTexture_m432794412
KCa:__ZL18ProgramUniform2uivPK7ApiGLESjiihPKv
P$j:_glUniform4iv__wrapper
E7b:__ZNK15dense_hashtableINSt3__24pairIK12TriangleEdgeiEES2_16TriangleEdgeHashN14dense_hash_mapIS2_iS5_NS0_8equal_toIS2_EENS0_9allocatorIS4_EEE9SelectKeyES8_SA_E23find_position_with_hashERS3_j
cnh:_Dictionary_2_ToTKey_m4209561517_gshared
bVc:_cf2_computeDarkening
NY:__GLOBAL__sub_I_runtime_gfxdevice_lump_cpp
iki:_AsyncOperation_set_priority_m3581020444
jHj:_GC_expand_hp_inner
r8i:__ZNK15dense_hashtableINSt3__24pairIK10KeyWrapperI13dynamic_arrayIPK10Il2CppTypeLj4EEEPFvvEEES8_N6il2cpp8metadata19Il2CppSignatureHashEN14dense_hash_mapIS8_SB_SF_NS8_14EqualsComparerINSE_22Il2CppSignatureCompareEEENS0_9allocatorISC_EEE9SelectKeyESJ_SL_E12test_deletedEj
nc:invoke_viiiififfi
Gfc:__Z25Screen_Get_Custom_PropDpiv
HSa:__ZN13ComputeShader20GetCompatibleVariantE17GfxDeviceRendereri
_Aj:__ZN4utf812find_invalidIPKcEET_S3_S3_
JIf:_X509ExtensionCollection_System_Collections_ICollection_CopyTo_m3421329346
DGj:_GC_err_printf
jVg:_FieldBuilder_SetValue_m3109503557
p0d:_Graphic_OnBeforeTransformParentChanged_m1866292273
AGf:_X509Certificate2_Verify_m1574874641
sng:__ZL58PhysicsRaycaster_t249603239_CustomAttributesCacheGeneratorP21CustomAttributesCache
hMc:__ZN20TextRenderingPrivate19NativeTextGenerator23FixLineHorizontalOffsetEiii
RAd:_SortedList_GetEnumerator_m1318483481
$od:_Array_CreateInstance_m3327690220
nw:__ZN7mecanim9animation19DestroyAnimationSetEPNS0_12AnimationSetERNS_6memory9AllocatorE
_Vh:__Z64RuntimeInvoker_Double_t4078015681_Il2CppObject_Int32_t2071877448PK10MethodInfoPvPS2_
d4:__ZN14SerializedFile7ReleaseEv
fab:__ZN16MemoryFileSystem4OpenER13FileEntryData14FilePermission16FileAutoBehavior
W8:__ZN13RuntimeStaticI13RendererSceneLb0EE13StaticDestroyEPv
tKb:__Z18Transfer_BlittableI24GenerateTypeTreeTransferLb1E12PropertyNameEvRK29SerializationCommandArgumentsR31RuntimeSerializationCommandInfo
nyb:__ZN14SafeBinaryRead21TransferSTLStyleArrayI10vector_mapIPKN5Unity4TypeE7Hash128NSt3__24lessIS5_EENS7_9allocatorINS7_4pairIS5_S6_EEEEEEEvRT_17TransferMetaFlags
iH:__ZN9AudioClip18GetQueuedAudioDataEPPvj
D8b:__ZNK9Texture2D17CheckHasPixelDataEv
gHc:__ZN15b2ContactSolver13StoreImpulsesEv
KVa:__Z18SetShadowsKeywordsR17ShaderPassContext9LightType10ShadowType16ShadowProjectionbb
jpj:__ZN14dense_hash_mapI10KeyWrapperINSt3__24pairIPK12PropertyInfoP11Il2CppClassEEEj17ReflectionMapHashIS8_ENS9_14EqualsComparerINS1_8equal_toIS8_EEEENS1_9allocatorINS2_IKS9_jEEEEEC2EjRKSB_RKSF_
n3b:__ZN17CollisionMeshDataC2Ev
GQg:_Assembly_GetModule_m2064378601
Uwh:_ScrollRect_SetDirty_m93243192
fpb:__ZN16LightmapSettings23VirtualRedirectTransferER19StreamedBinaryWriteILb0EE
dJc:__ZN19CollisionListener2DC2Ev
hbh:_MessageTypeSubscribers__ctor_m743474932
E$j:_glTexParameteriv__wrapper
Zqa:__ZN18IDCollectorFunctor18GenerateInstanceIDEi17TransferMetaFlags
nhe:_Array_InternalArray__set_Item_TisTableRange_t2011406615_m2386708730_gshared
fHc:__ZN15b2ContactSolver9WarmStartEv
aXe:_NumberFormatter_ToDecHex_m1474793296
ubb:__ZN14StackAllocatorD0Ev
Urj:__ZN6il2cpp2vm6Thread8SetStateEP12Il2CppThreadNS0_11ThreadStateE
pcf:_OperatingSystem_Clone_m1943707477
Q$d:_FontData_set_richText_m29558601
oIg:_Scheduler_Change_m4063588742
ije:_Array_Resize_TisVector2_t2243707579_m1117258774_gshared
sS:__ZN11UnityEngine15CloudWebService13WWWRestClientD0Ev
kMi:_HitInfo_SendMessage_m3368777144_AdjustorThunk
Mhc:__Z22PlayableValidityChecksRK9HPlayableb
szb:__ZN15ResourceManagerD2Ev
txe:_List_1_Insert_m2532850849_gshared
Ndc:__Z41Register_UnityEngine_Camera_GetAllCamerasv
fah:_Mesh_get_vertices_m626989480
zth:_MaskableGraphic_OnCanvasHierarchyChanged_m2012659245
CBa:__ZN4crnd12crn_unpacker10unpack_dxnEPPhjjjjjj
Y7c:__ZN28PerformanceReportingSettings8TransferI14SafeBinaryReadEEvRT_
rEd:_Double_Parse_m2344589511
itj:__ZN6il2cpp2vm22EmbeddedResourceRecordC2ERKS1_
Onb:__ZN9Texture2D13AwakeFromLoadE17AwakeFromLoadMode
ddf:_MSCompatUnicodeTableUtil__cctor_m1479836795
OGi:_PositionAssertion__ctor_m3703837499
f7d:_LayoutGroup_get_minWidth_m4111745491
X6e:_StreamWriter_Initialize_m1707678624
mAj:__ZN6il2cpp2vm3RCW14QueryInterfaceILb0EEEP14Il2CppIUnknownP15Il2CppComObjectRK10Il2CppGuid
Nwh:_ScrollRect_set_verticalScrollbar_m2903688658
j7g:_GUIStyle_INTERNAL_CALL_SetMouseTooltip_m1802284884
pka:__ZN6prcoreL17RemapGenericFloatI15TexFormatRFloat18TexFormatARGBFloatEEvPKNS_9InnerInfoE
yVf:__ZL50_Thread_t1894135853_CustomAttributesCacheGeneratorP21CustomAttributesCache
vHh:_InternalEnumerator_1_get_Current_m1047712960_gshared
JY:__GLOBAL__sub_I_runtime_camera_renderlayers_lump_cpp
n7c:__ZN11UnityEngine15PlatformWrapper20GetPlayerPrefsUInt64ERKN4core12basic_stringIcNS1_20StringStorageDefaultIcEEEEy
DZa:__ZN20ReflectionProbeCacheC2ER13BatchRendererR15RenderLoopStats
K9:__ZN18AssetBundleManagerC2Ev
XLa:__ZNK12HandlerChain6ExistsERK13FileEntryData
F4f:__ZL61ExtensionAttribute_t1840441203_CustomAttributesCacheGeneratorP21CustomAttributesCache
PEd:_Convert_ToInt32_m2734833291
u_a:__Z30FindDirectAttenuationFromProbeP18ForwardLightsBlockbiRK10RenderNodeRK23FindForwardLightsParamsf
sxb:__ZN12InputManager23VirtualRedirectTransferER24GenerateTypeTreeTransfer
_Xb:__ZN9Transform23VirtualRedirectTransferER24GenerateTypeTreeTransfer
lWb:__ZNSt3__26vectorIN9ShaderLab20SerializedSubProgram12UAVParameterENS_9allocatorIS3_EEE21__push_back_slow_pathIKS3_EEvRT_
jyi:_CrossAppDomainChannel_RegisterCrossAppDomainChannel_m43456045
sIf:_X509ChainElement_Count_m228862214
ZJg:_TimeZone_IsDaylightSavingTime_m1840774423
JXc:_UNITY_tt_size_ready_bytecode
QKc:__ZN13TextRendering4FontD2Ev
ONc:_UNITY_FT_Stream_Open
n$c:__GLOBAL__sub_I_runtime_ui_lump_cpp
RKa:__ZN10MemoryFile4ReadEyyPvPy
sua:__ZN13GfxDeviceGLES26UpdateViewProjectionMatrixEv
MF:__ZN4FMOD3DSP12setParameterEif
qaa:__ZN13MemoryManager16StaticInitializeEv
lRf:__ZL53StackFrame_t2050294881_CustomAttributesCacheGeneratorP21CustomAttributesCache
sf:___cxa_free_exception
NSe:_ReadOnlyCollection_1_System_Collections_ICollection_CopyTo_m4126742951_gshared
GJ:__ZN4FMOD22FakeModChannelCallbackEPv
yf:_emscripten_glValidateProgram
TRa:__ZN4Mesh10CreateMeshEv
Dmj:__ZN6il2cpp2gc19AppendOnlyGCHashMapINSt3__24pairIPK9EventInfoP11Il2CppClassEEP21Il2CppReflectionEvent17ReflectionMapHashIS9_ENS2_8equal_toIS9_EEE3AddERKS9_SB_
EG:__ZN4FMOD7SystemI11createSoundEPKcjP22FMOD_CREATESOUNDEXINFOPPNS_5SoundE
GMi:_Sprite_get_associatedAlphaSplitTexture_m3617241169
Zxg:_ArrayFixupRecord_FixupImpl_m2377725358
zVc:_cf2_stack_clear
$Ld:_Double_System_IConvertible_ToBoolean_m4251806534_AdjustorThunk
Ugh:_ShimEnumerator_Reset_m2247049027_gshared
hDc:__ZN10ClipperLib11ClipperBase5ClearEv
C3a:__ZN7Texture13SetAnisoLevelEi
LGf:_X509Chain_Process_m2508784250
iCe:_List_1_RemoveAt_m2929488689_gshared
Twc:__ZN27PerformanceReportingManager23VirtualRedirectTransferER24GenerateTypeTreeTransfer
FPc:_raccess_guess_vfat
Y2c:__Z44Canvas_CUSTOM_GetETC1SupportedCanvasMaterialv
I8:__ZN33InstancedMeshIntermediateRenderer13StaticDestroyEPv
W_e:_Int16_Parse_m3012618547
tvj:__ZN14dense_hash_mapI10KeyWrapperIP14Il2CppIUnknownEjN6il2cpp5utils11PointerHashIS1_EENS3_14EqualsComparerINSt3__28equal_toIS2_EEEENS9_9allocatorINS9_4pairIKS3_jEEEEE13set_empty_keyERSF_
KBd:_Convert__cctor_m926133987
Kjb:__Z21DestroyShadowMapCacheP14ShadowMapCache
$y:__ZN7mecanim9animation25CreateControllerWorkspaceEPKNS0_18ControllerConstantERNS_6memory9AllocatorE
Jde:_Array_InternalArray__IndexOf_TisUInt64_t2909196914_m3958307360_gshared
f1d:_Graphic_RegisterDirtyVerticesCallback_m4169445219
Joj:__ZN15dense_hashtableINSt3__24pairIK10KeyWrapperIPK10Il2CppTypeEjEES6_N6il2cpp8metadata14Il2CppTypeHashEN14dense_hash_mapIS6_jSB_NS6_14EqualsComparerINSA_26Il2CppTypeEqualityComparerEEENS0_9allocatorIS8_EEE9SelectKeyESF_SH_E14squash_deletedEv
tuj:__ZN6il2cpp2vm13LivenessState5ResetEv
qPi:_Transform_get_parent_m147407266
pqc:__ZN9JSONWrite8TransferI11KeyframeTplIfEEEvRT_PKc17TransferMetaFlags
N$h:__Z71RuntimeInvoker_Double_t4078015681_Double_t4078015681_Double_t4078015681PK10MethodInfoPvPS2_
aAh:_Text_get_cachedTextGenerator_m224335893
Y0g:_GameObject_GetComponent_m306258075
_vj:__ZN6il2cpp2vm3RCW23GetOrCreateFromIUnknownEP14Il2CppIUnknownP11Il2CppClass
ptj:__ZN6il2cpp2vm9Exception27RaiseNullReferenceExceptionEv
iJa:__ZN24BuiltinShaderParamValuesC2Ev
grc:__ZL41CreateJSONTransferFunctionScriptingTraitsv
$3e:_FileStream_get_CanWrite_m775322953
sOa:__Z23GetLateBehaviourManagerv
MSd:_ExecuteEvents_Execute_m2863348178
G5:__ZN10MemoryPool10DeallocateEPv
UXe:_NumberFormatInfo__ctor_m2752806684
yWd:_CanvasUpdateRegistry_get_instance_m862315367
wDi:_PatternCompiler_EmitFastRepeat_m1175707353
Yle:_Array_InternalArray__get_Item_TisKeyValuePair_2_t3716250094_m3120861630_gshared
jPc:_cff_driver_class_pic_free
hwc:__ZNK9rapidjson12GenericValueINS_4UTF8IcEE13JSONAllocatorE6AcceptINS_6WriterI16TempBufferWriterS2_S2_S3_EEEEbRT_
QUj:dynCall_vif
RUj:dynCall_vid
cwe:_List_1_System_Collections_IList_get_Item_m3989815218_gshared
TUj:dynCall_vii
fDd:_DateTime__ctor_m3604679583
mQb:__Z18Transfer_BlittableI18StreamedBinaryReadILb0EELb0EdEvRK29SerializationCommandArgumentsR31RuntimeSerializationCommandInfo
NCi:_Enumerator_System_Collections_IEnumerator_MoveNext_m3313126804
OVa:__ZNK17InstancedPropInfo14IsInstanceableERK19ShaderPropertySheet
Bcb:__ZN5Unity9Component16CheckConsistencyEv
vWd:_LayoutRebuilder_ValidController_m2595049322
ADa:__ZN7ApiGLES11CheckShaderERjb
xeh:_RectTransform_set_anchoredPosition_m2077229449
kMb:__ZL26Transfer_SimpleNativeClassI19StreamedBinaryWriteILb0EE10RectOffsetLb1EEvRK29SerializationCommandArgumentsR31RuntimeSerializationCommandInfo
Xle:_Array_InternalArray__get_Item_TisKeyValuePair_2_t1174980068_m964958642_gshared
hkj:__ZN15dense_hashtableINSt3__24pairIK10KeyWrapperIPK10Il2CppTypeEjEES6_N6il2cpp8metadata14Il2CppTypeHashEN14dense_hash_mapIS6_jSB_NS6_14EqualsComparerINSA_26Il2CppTypeEqualityComparerEEENS0_9allocatorIS8_EEE9SelectKeyESF_SH_E3endEv
w_a:__Z28GetNonInterpolatedLightProbeRK17LightProbeContextjR20SphericalHarmonicsL2
yee:_Array_InternalArray__ICollection_Add_TisDateTime_t693205669_m3559987213_gshared
Uwa:__ZN13GfxDeviceGLES17SetGpuProgramNameEP10GpuProgramPKc
Waj:__ZN6il2cpp2vm13MetadataCache28GetMethodDefinitionFromIndexEi
bxb:__Z14RecalculateUVs14StrideIteratorI8Vector2fES1_S_I8Vector3fER9Texture2DRKS0_RK5RectTIfERK8Vector4fSB_S7_21SpritePackingRotation
_ga:__ZN14SafeBinaryRead19TransferSTLStyleMapINSt3__23mapI39DeprecatedFastPropertyNameSerialization10ColorRGBAfNS1_4lessIS3_EENS1_9allocatorINS1_4pairIKS3_S4_EEEEEEEEvRT_17TransferMetaFlags
HBb:__ZN14CachingManager13WriteInfoFileERKN4core12basic_stringIcNS0_20StringStorageDefaultIcEEEERKNSt3__26vectorIS4_NS7_9allocatorIS4_EEEE
Oki:_Behaviour_get_enabled_m4079055610
yEa:__ZN7ApiGLES18CreateRenderbufferEiN2gl9TexFormatEii
wQi:_Vector3_Lerp_m2935648359
KRi:_NetFxCoreExtensions_GetMethodInfo_m2715372889
gh:_atexit
Bxd:_BitArrayEnumerator_Reset_m3218489242
Ssd:_Byte_System_IConvertible_ToUInt16_m2275325191
knj:__ZN6il2cpp2vmL31GetObjectForMissingDefaultValueEj
rQa:_UNITY_png_write_info_before_PLTE
gKe:_Collection_1__ctor_m824713192_gshared
STb:__ZN9ShaderLab14SerializedPassC2ERKS0_
kFh:_InternalEnumerator_1_System_Collections_IEnumerator_get_Current_m3088751576_AdjustorThunk
H3d:_InputField_get_text_m409351770
l:STACKTOP
hXc:_cff_get_name_index
X8e:_Math_Cos_m43596019
wpb:__ZN21EnlightenSceneMapping16BuildRemapTablesEv
_Eb:__ZNSt3__26vectorI4PPtrI10MonoScriptE13stl_allocatorIS3_L18MemLabelIdentifier76ELi16EEE8__appendEj
l6b:__ZN17TransformInternal27UpdateDeepChildCountUpwardsER18TransformHierarchyii
KLh:_InternalEnumerator_1_System_Collections_IEnumerator_get_Current_m1533037706_AdjustorThunk
rSj:__ZNK10__cxxabiv117__class_type_info16search_above_dstEPNS_19__dynamic_cast_infoEPKvS4_ib
A:tempBigIntD
jjd:_Single_Equals_m3359827399_AdjustorThunk
hSd:_EventTrigger_OnPointerClick_m413999043
z:tempBigIntI
pUi:_CachedInvokableCall_1__ctor_m127496184_gshared
Kof:_PrimalityTests_RabinMillerTest_m2029846965
y:tempBigIntR
x:tempBigIntS
un:FUNCTION_TABLE_viffi
lNc:_open_face_PS_from_sfnt_stream
zxg:_ServerIdentity_CreateObjRef_m1056204803
s5:__ZN6Object18RegisterInstanceIDEPS_
dKb:__Z18Transfer_BlittableI24GenerateTypeTreeTransferLb1EsEvRK29SerializationCommandArgumentsR31RuntimeSerializationCommandInfo
myj:__ZN15dense_hashtableINSt3__24pairIK10KeyWrapperIP12Il2CppObjectEN6il2cpp2gc9CachedCCWEEES5_NS7_5utils11PointerHashIS3_EEN14dense_hash_mapIS5_S9_SD_NS5_14EqualsComparerINS0_8equal_toIS4_EEEENS0_9allocatorISA_EEE9SelectKeyESI_SK_E11set_deletedER30dense_hashtable_const_iteratorISA_S5_SD_SM_SI_SK_E
tua:__ZNK9GfxDevice18GetWorldViewMatrixEv
nwe:_List_1_Contains_m3819542652_gshared
Ltf:_TlsServerKeyExchange__ctor_m247733406
$Pe:_ReadOnlyCollection_1_System_Collections_IList_Add_m3065652010_gshared
RFj:__ZN6il2cpp6icalls8mscorlib6System7Convert17Base64ToByteArrayEPDsib
OXi:_IndexedSet_1_Clear_m2776064367_gshared
F7g:_GUIUtility_set_systemCopyBuffer_m2040945785
k4h:__Z87RuntimeInvoker_Void_t1841601450_Int32_t2071877448_Single_t2076509932_Single_t2076509932PK10MethodInfoPvPS2_
oah:_Mesh_SetNormals_m3341225499
a8i:__ZNSt3__218__insertion_sort_3IRN6il2cpp5utils11collections13ArrayValueMapIPK10Il2CppType17Il2CppInteropData26InteropDataToTypeConverterNS1_8metadata14Il2CppTypeLessENSA_26Il2CppTypeEqualityComparerEE12SortComparerEPS8_EEvT0_SH_T_
G$c:__ZN2UI39SendIgnoreNextTransformChangedRecursiveEPK9TransformPKNS_6CanvasE
xua:__ZNK9GfxDevice25GetDeviceProjectionMatrixEv
RCf:_HttpWebRequest__ctor_m1248252412
na:invoke_iidiii
hKb:__Z18Transfer_BlittableI24GenerateTypeTreeTransferLb1EtEvRK29SerializationCommandArgumentsR31RuntimeSerializationCommandInfo
cQg:_RankException__ctor_m2119191472
owc:__ZN9rapidjson12PrettyWriterI16TempBufferWriterNS_4UTF8IcEES3_13JSONAllocatorE11WriteIndentEv
T9b:__ZN10systeminfo24GetRuntimePlatformStringEv
mtc:__ZN9JSONWrite8TransferI13dynamic_arrayI4AABBLj4EEEEvRT_PKc17TransferMetaFlags
LP:__ZN5physx14PxLightCpuTask15removeReferenceEv
fEf:_SPKey_Equals_m1112627532
m6e:_Stream_Close_m1499612649
RAi:_ArgInfo__ctor_m3787931268
aLi:_X509Chain_Build_m175470596
eca:__ZN9ShaderLab6TexEnvC2ERKNS_25SerializedTexturePropertyE
GZb:__Z28IntersectLineSegmentWithLineRK8Vector2fS1_S1_S1_RS_
tfa:__ZN19ShaderPropertySheet38CopyTextureWithAuxiliaryPropertiesFromERKN9ShaderLab16FastPropertyNameERKS_
fMc:__ZN20TextRenderingPrivate19NativeTextGeneratorD2Ev
xbj:__ZN6il2cpp2vm19SocketPollingThread14DequeueRequestEv
GDj:__ZL10RevealLinkPv
g2a:__ZNK6Camera26CalculateCullingParametersER17CullingParameters
Ji:___cxa_end_catch
MWg:_MethodBuilder_MakeGenericMethod_m303913412
ZQg:_AssemblyName_InternalGetPublicKeyToken_m3706025887
_Uj:dynCall_viffffii
uSd:_ExecuteEvents_Execute_m4235029535
cDf:_HttpWebRequest_GetObjectData_m1200570677
b3c:__Z43Register_UnityEngine_Canvas_set_scaleFactorv
A5g:_GUIStyle_set_onHover_m3908151335
GPc:_raccess_guess_linux_cap
aQi:_Vector2_GetHashCode_m2353429373
Txf:_ReceiveRecordAsyncResult_get_AsyncWaitHandle_m1602093076
xQb:__Z19TransferField_ArrayI18StreamedBinaryReadILb0EE27Converter_UnityEngineObjectEvRK23StaticTransferFieldInfoR31RuntimeSerializationCommandInfoRT0_
Z0:__Z33InitializeBuiltinShaderParamNamesv
kmf:_ActivationContext_System_Runtime_Serialization_ISerializable_GetObjectData_m775951299
Aeh:_RectTransform_INTERNAL_get_sizeDelta_m3975625099
Ida:__ZNK16TypeTreeIterator4TypeEv
PAi:_LeaseManager__ctor_m2166901364
tJa:__ZN10FileSystem25MountDataFolderFileSystemERKN4core12basic_stringIcNS0_20StringStorageDefaultIcEEEES6_
Qqg:__ZL67Selectable_t1490392188_CustomAttributesCacheGenerator_m_SpriteStateP21CustomAttributesCache
qj:_glGetUniformLocation
Hva:__ZN13GfxDeviceGLES32CreateColorRenderSurfacePlatformEP17RenderSurfaceBase19RenderTextureFormat
UG:__ZN12AudioManager24CreateFMODSoundFromMovieEP9AudioClip
qwc:__ZN9rapidjson6WriterI16TempBufferWriterNS_4UTF8IcEES3_13JSONAllocatorE8WriteIntEi
P9i:__ZN6il2cpp2vm13MetadataCache24GetGenericInstanceMethodEPK10MethodInfoPK20Il2CppGenericContext
adf:_MSCompatUnicodeTable_get_IsReady_m562849792
fdf:_SimpleCollator_SetCJKTable_m1356471502
nNb:__Z18Transfer_BlittableI18StreamedBinaryReadILb1EELb0E8Vector2fEvRK29SerializationCommandArgumentsR31RuntimeSerializationCommandInfo
R$e:_Int32_System_IConvertible_ToUInt64_m2888588559_AdjustorThunk
JX:__Z24ConvertSeparatorsToUnityPc
Fxb:__ZNSt3__213__vector_baseI9InputAxisNS_9allocatorIS1_EEED2Ev
Crj:__ZN6il2cpp2vm6Thread20FreeThreadStaticDataEP12Il2CppThread
kOd:_Exception_get_ClassName_m2189012117
K2e:_IOException__ctor_m613517077
bxi:_MarshalDirectiveException__ctor_m3894820706
uFc:__ZN16Physics2DManager12BatchOverlapER13dynamic_arrayI15BatchedOverlapsLj4EEPP10Collider2Dj
OVc:_cf2_glyphpath_finalize
hBd:_Stack__ctor_m521896492
CUa:__Z20LookRotationToMatrixRK8Vector3fS1_P10Matrix3x3f
vsi:_AnimatorControllerPlayable_INTERNAL_CALL_GetBoolID_m3610941922
oVj:dynCall_viififi
Szb:__ZNSt3__26vectorIN15ResourceManager10DependencyE13stl_allocatorIS2_L18MemLabelIdentifier51ELi16EEE6assignINS_11__wrap_iterIPS2_EEEENS_9enable_ifIXaasr21__is_forward_iteratorIT_EE5valuesr16is_constructibleIS2_NS_15iterator_traitsISC_E9referenceEEE5valueEvE4typeESC_SC_
LPc:_UNITY_FT_Stream_Free
tKg:_Type_GetTypeFromHandle_m432505302
CSh:__Z111RuntimeInvoker_Void_t1841601450_Il2CppObject_Int32_t2071877448_Il2CppObject_Int32_t2071877448_Int32_t2071877448PK10MethodInfoPvPS2_
prj:__ZN15dense_hashtableINSt3__24pairIK10KeyWrapperINS1_IP11Il2CppClassjEEES4_EES6_N6il2cpp8metadata14ArrayClassHashEN14dense_hash_mapIS6_S4_SB_NS6_14EqualsComparerINSA_17ArrayClassCompareEEENS0_9allocatorIS8_EEE9SelectKeyESF_SH_E12maybe_shrinkEv
Owi:_GCHandle_FreeHandle_m2466807271
s0d:_GraphicRegistry_get_instance_m2112667631
PQ:__ZN11UnityEngine15CloudWebService14DataDispatcher25OnDataBlockConsumedStaticEPv
zSd:_ExecuteEvents_Execute_m2476343313
sVf:__ZL54_MethodInfo_t3642518830_CustomAttributesCacheGeneratorP21CustomAttributesCache
RSh:__Z46RuntimeInvoker_Il2CppObject_Decimal_t724701077PK10MethodInfoPvPS2_
FXd:_CanvasUpdateRegistry_CleanInvalidItems_m1402635291
Ysi:_AnimatorControllerPlayable_ResetTrigger_m2216540396
u9i:__ZNK6il2cpp5utils11collections13ArrayValueMapIPK10Il2CppType17Il2CppInteropData26InteropDataToTypeConverterNS_8metadata14Il2CppTypeLessENS8_26Il2CppTypeEqualityComparerEE10find_firstERKS5_
q0e:_Int64_System_IConvertible_ToByte_m3027162116_AdjustorThunk
USd:_ExecuteEvents_get_endDragHandler_m56074740
H5d:_InputField_IsValidChar_m3929866302
Xud:_ArrayList__cctor_m2090802806
aSj:__ZNSt3__212basic_stringIcNS_11char_traitsIcEENS_9allocatorIcEEE6insertEjPKcj
irc:__Z44InitializeTransferFunctionScriptingTraitsForI8JSONReadEvR31TransferFunctionScriptingTraits
Y7a:__ZNSt3__26vectorINS_4pairIN4core12basic_stringIcNS2_20StringStorageDefaultIcEEEES6_EE13stl_allocatorIS7_L18MemLabelIdentifier37ELi16EEE6insertENS_11__wrap_iterIPKS7_EERSD_
Ssa:__ZNSt3__27__sort4IRNS_4lessIN22BuiltinResourceManager8ResourceEEEPS3_EEjT0_S7_S7_S7_T_
DSd:_ExecuteEvents_Execute_m171612015
xca:__ZN15dense_hashtableINSt3__24pairIKPK17RenderSurfaceBaseP13RenderTextureEES4_19PointerHashFunctionIS4_EN14dense_hash_mapIS4_S7_SA_NS0_8equal_toIS4_EE13stl_allocatorIS8_L18MemLabelIdentifier65ELi16EEE9SelectKeyESD_SG_E12resize_deltaEjj
ABa:__ZN4crnd12crn_unpacker11unpack_dxt5EPPhjjjjjj
gNg:_UInt32_System_IConvertible_ToUInt64_m4083788326_AdjustorThunk
gig:__ZL99GUIStyle_t1799908754_CustomAttributesCacheGenerator_GUIStyle_t1799908754____clipOffset_PropertyInfoP21CustomAttributesCache
DYc:_UNITY_tt_face_get_location
aDg:_DESTransform_Permutation_m4174035780
S2e:_Path_IsDsc_m1314465747
W3e:_MonoIO_Seek_m3461199288
bRb:__Z29Transfer_Blittable_ArrayFieldI18StreamedBinaryReadILb0EE4AABBEvRT_R9ArrayInfoRK23StaticTransferFieldInfo
y4a:__ZN10GameObject34AddFirstTransformComponentInternalEP9Transform
kec:__Z31Cursor_Get_Custom_PropLockStatev
o1:__ZNSt3__26__treeINS_12__value_typeINS_4pairIPcS3_EENS_3setIS3_15compare_tstringIPKcENS_9allocatorIS3_EEEEEENS_19__map_value_compareIS4_SD_20smaller_tstring_pairIS8_ELb1EEENSA_ISD_EEE7destroyEPNS_11__tree_nodeISD_PvEE
c$c:__ZNK2UI14CanvasRenderer26GetTypeInfoVirtualInternalEv
r$i:__ZN15dense_hashtableINSt3__24pairIK10KeyWrapperIPK22Il2CppGenericParameterEP11Il2CppClassEES6_N6il2cpp5utils11PointerHashIS4_EEN14dense_hash_mapIS6_S9_SE_NS6_14EqualsComparerINS0_8equal_toIS5_EEEENS0_9allocatorISA_EEE9SelectKeyESJ_SL_E15insert_noresizeERKSA_
lfc:__Z52Register_UnityEngine_GameObject_GetComponentInParentv
yyb:__ZN15SerializeTraitsINSt3__24pairIPKN5Unity4TypeE7Hash128EEE8TransferI14SafeBinaryReadEEvRS7_RT_
Zqc:__ZN9rapidjson13GenericReaderINS_4UTF8IcEES2_13JSONAllocatorE10ParseArrayILj1ENS_25GenericInsituStringStreamIS2_EENS_15GenericDocumentIS2_S3_S3_EEEEvRT0_RT1_
c1a:__Z37GenerateCombinedDynamicVisibleListJobP11CullResults
cEc:__ZN10ClipperLib7Clipper11BuildResultERNSt3__26vectorINS2_INS_8IntPointENS1_9allocatorIS3_EEEENS4_IS6_EEEE
nW:__ZNK13ScreenManager21GetCursorInsideWindowEv
dDj:__ZN6il2cpp2vmL22RaiseOverflowExceptionEv
Pee:_Array_InternalArray__ICollection_Add_TisSByte_t454417549_m46595441_gshared
vCi:_Match_get_Empty_m3581361913
b_a:__Z20IntersectAABBFrustumRK4AABBPK5Planej
ild:_String_Concat_m626692867
T3b:__ZN13RenderManager15InitializeClassEv
EHb:__ZN15SerializeTraitsI12PropertyNameE8TransferI14SafeBinaryReadEEvRS0_RT_
$T:__ZNSt3__23mapIN19CloudServiceHandler11ServiceTypeEPS1_NS_4lessIS2_EE13stl_allocatorINS_4pairIKS2_S3_EEL18MemLabelIdentifier85ELi16EEEixERS8_
yNi:_TextGenerationSettings_CompareVector2_m592645251_AdjustorThunk
KT:__ZN11UnityEngine15CloudWebService17WebFileDownloaderINS0_13WWWRestClientENS0_16WWWRestHeaderMapEED0Ev
$sc:__ZN9JSONWrite8TransferI11ColorRGBA32EEvRT_PKc17TransferMetaFlags
ivc:__Z22TransferField_NonArrayI8JSONRead27Converter_SimpleNativeClassI8GradientEEvRK23StaticTransferFieldInfoR31RuntimeSerializationCommandInfoRT0_
PRe:_ReadOnlyCollection_1_System_Collections_IList_RemoveAt_m2372993063_gshared
hDa:__ZNSt3__26vectorI15ComputeShaderCBNS_9allocatorIS1_EEE21__push_back_slow_pathIKS1_EEvRT_
uCb:__ZN10MonoScript13AwakeFromLoadE17AwakeFromLoadMode
n$b:__ZN13ProduceHelperI11MonoManagerLb0EE7ProduceE18MemLabelIdentifier18ObjectCreationMode
pFa:__ZNK18GfxFramebufferGLES15DiscardContentsER12ObjectHandleI17RenderSurface_TagP17RenderSurfaceBaseE
Khf:_KeyPairPersistence_IsUserProtected_m37342608
fsc:__Z18Transfer_BlittableI9JSONWriteLb1EdEvRK29SerializationCommandArgumentsR31RuntimeSerializationCommandInfo
xZj:_glGetIntegerv__wrapper
$Ve:_NumberFormatter_ResetCharBuf_m3823516989
H:Math_pow
I4a:__ZN10GameObject28FinalizeAddComponentInternalEPN5Unity9ComponentE
PE:__Z64AnimatorControllerPlayable_CUSTOM_INTERNAL_CALL_SetTriggerStringR9HPlayableP12Il2CppString
$5g:_GUIStyle_Internal_Draw_m3610093213
XMi:_StackTraceUtility_IsSystemStacktraceType_m506502194
Kob:__ZN9Texture2DD2Ev
MY:__GLOBAL__sub_I_runtime_geometry_lump_cpp
qvd:_ArrayList_Remove_m3941780739
Jbj:__ZN6il2cpp2vm21ThreadPoolCompartment12DetachThreadEP12Il2CppThread
LSg:_ConstructorBuilder_not_created_m2150488017
Ini:_Color_op_Multiply_m325555950
TDg:_HashAlgorithm_TransformBlock_m4190258810
ZD:__ZNSt3__26vectorIiNS_9allocatorIiEEE6insertENS_11__wrap_iterIPKiEERS5_
dIi:_Uri_AppendQueryAndFragment_m2358658590
W9g:_Mesh_GetIndicesImpl_m2398977086
Hq:__ZN13dynamic_arrayIhLj1EE18resize_initializedEjRKh12ResizePolicy
Hqi:_InvokableCallList_AddListener_m786891050
kra:__ZN17PersistentManager27GetLoadErrorMessageFromPathERKN4core12basic_stringIcNS0_20StringStorageDefaultIcEEEE
$md:_DecoderReplacementFallbackBuffer_Fallback_m1790184670
bm:_glGenRenderbuffers
Tuj:__ZN6il2cpp6icalls8mscorlib6System2IO6MonoIO19GetCurrentDirectoryEPi
pld:_String_GetHashCode_m931956593
Nyb:__ZN14PlayerSettings23VirtualRedirectTransferER17RemapPPtrTransfer
Web:__ZN14CachingManager7DisposeEv
YM:__ZN12AudioManager31GetCurrentSpatializerDefinitionEv
tvb:__ZN12MeshRenderer16UpdateCachedMeshEv
kHb:__Z19TransferField_ArrayI14SafeBinaryRead27Converter_SimpleNativeClassI8GradientEEvRK23StaticTransferFieldInfoR31RuntimeSerializationCommandInfoRT0_
fv:__ZNK27StateMachineBehaviourPlayer25FireStateMachineBehaviourEiiN7mecanim12statemachine19StateMachineMessageE
pwh:_ScrollRectEvent__ctor_m2283981448
Fqe:_Enumerator_VerifyState_m3913376581_AdjustorThunk
CBf:_NameObjectCollectionBase_System_Collections_ICollection_CopyTo_m810189168
X3a:__ZN6Camera15SetOrthographicEb
HCc:__ZN6b2Body13ResetMassDataEv
sRc:_UNITY_FT_Stream_GetUShort
Dua:__ZN13GfxDeviceGLES14DisableScissorEv
CUf:__ZL71ReliabilityContractAttribute_t1625655220_CustomAttributesCacheGeneratorP21CustomAttributesCache
SFd:_Decimal_op_Explicit_m1986696267
Hmh:_Dictionary_2_System_Collections_ICollection_CopyTo_m3578539931_gshared
AWe:_NumberFormatter_AppendDecimalString_m3532330813
Jc:_glVertexAttrib4f
cTg:_ILGenerator__ctor_m3365621387
WNd:_Environment_GetFolderPath_m1849163024
ina:__ZN13LoadOperationC2Ev
mgf:_ASN1_Add_m2540239672
IBc:__ZN12b2BroadPhase13QueryCallbackEi
A9d:_Array_InternalArray__ICollection_Remove_TisInt16_t4041245914_m3380378727_gshared
Q3c:__ZN21UnityAnalyticsManagerD0Ev
wyi:_SinkProviderData__ctor_m1828480392
SUd:_RaycastResult_ToString_m2233441736_AdjustorThunk
c9g:_Mathf_Sin_m831310046
sIj:_GC_set_hdr_marks
RRa:__Z17SetupObjectMatrixRK10Matrix4x4fi
oid:_SecurityFrame_ToString_m1282306399
bef:_SimpleCollator_MatchesBackwardCore_m1884994267
BJg:_TimeSpan_From_m1249538749
xdf:_SimpleCollator_GetSortKey_m1317491197
Ckc:__Z43Object_CUSTOM_DoesObjectWithInstanceIDExisti
l1:__ZN13RuntimeStaticINSt3__23mapINS0_4pairIPcS3_EEPFbPvR14SafeBinaryReadE20smaller_tstring_pairIPKcENS0_9allocatorINS2_IKS4_S9_EEEEEELb0EE13StaticDestroyES5_
TZg:_MonoEvent_GetCustomAttributes_m3899596098
D9c:__GLOBAL__sub_I_VRGfxHelpers_cpp
qFd:_Convert_ToSByte_m3295168715
sx:__ZN7mecanim9animation16CreateClipMemoryEPKNS0_4ClipEiRNS_6memory9AllocatorE
iNc:_open_face
C2b:__ZZL31RegisterOtherRendererPropertiesR22GenericPropertyBindingEN30Wrapper_RendererReceiveShadows13SetFloatValueEPvf
y1c:__Z17RegisterModule_UIv
$4h:__Z116RuntimeInvoker_Void_t1841601450_PlayableHandleU26_t3483893774_Int32_t2071877448_Single_t2076509932_Int32_t2071877448PK10MethodInfoPvPS2_
E8e:_UnmanagedMemoryStream_Flush_m3305300000
wIj:_GC_printf
Mli:_Camera_FireOnPreRender_m24116662
ILg:_TypeLoadException_GetObjectData_m2885802706
nva:__ZN9GfxDevice24CreateRenderDepthSurfaceE9TextureIDiiii16TextureDimension17DepthBufferFormat18SurfaceCreateFlags
Azg:_ObjectManager_DoFixups_m835924385
Xwg:_RemotingServices_CreateWellKnownServerIdentity_m3390048085
qM:__ZN11AudioSource16UpdateParametersE12SoundChannel
MG:__ZN4FMOD5Sound11setUserDataEPv
ZRb:__ZN14SafeBinaryRead21TransferSTLStyleArrayINSt3__26vectorIN9ShaderLab19SerializedSubShaderENS1_9allocatorIS4_EEEEEEvRT_17TransferMetaFlags
npf:_ARC4Managed_KeySetup_m73384687
fLa:__ZNK25SingleBlockMemoryFileData4SizeEv
uhb:__ZNK23ArchiveStorageConverter26GetUncompressedArchiveSizeEv
cId:_DateTime_Equals_m2562884703
jt:__ZN9BlobWrite8TransferIN7mecanim12statemachine18StateMachineMemoryEEEvRT_PKc17TransferMetaFlags
XQa:_UNITY_png_zfree
zK:__ZL50UnityAudioEffect_InternalSetFloatParameterCallbackP14FMOD_DSP_STATEif
Lxj:__ZNK15dense_hashtableINSt3__24pairIK10KeyWrapperIP12Il2CppObjectEN6il2cpp2gc9CachedCCWEEES5_NS7_5utils11PointerHashIS3_EEN14dense_hash_mapIS5_S9_SD_NS5_14EqualsComparerINS0_8equal_toIS4_EEEENS0_9allocatorISA_EEE9SelectKeyESI_SK_E3endEv
ncb:__ZN17LowLevelAllocator4FreeEPvj
Zzd:_KeyMarker__cctor_m2057880225
W_i:__ZN15dense_hashtableINSt3__24pairIK10KeyWrapperIPK22Il2CppGenericParameterEP11Il2CppClassEES6_N6il2cpp5utils11PointerHashIS4_EEN14dense_hash_mapIS6_S9_SE_NS6_14EqualsComparerINS0_8equal_toIS5_EEEENS0_9allocatorISA_EEE9SelectKeyESJ_SL_E9copy_fromERKSO_j
eZe:_TextInfo_get_ListSeparator_m3426465394
D4e:_FileStream_BeginWrite_m3895959548
ovf:_Context_set_RecordProtocol_m1968834768
yZ:__ZL19StaticCleanupPlayerPv
BHf:_X509Certificate2Enumerator_MoveNext_m1861665712
q5b:__ZN13PlayableGraph4StopEv
I9:__ZN15dense_hashtableINSt3__24pairIKN4core12basic_stringIcNS2_20StringStorageDefaultIcEEEEP11AssetBundleEES6_20StringHash32FunctionIS6_EN14dense_hash_mapIS6_S9_SC_NS0_8equal_toIS6_EENS0_9allocatorISA_EEE9SelectKeyESF_SH_ED2Ev
oHg:_Monitor_Monitor_wait_m3813798368
Nmd:_DecoderExceptionFallbackBuffer_Fallback_m3457210607
y8d:_Array_InternalArray__ICollection_Contains_TisDouble_t4078015681_m2262383923_gshared
RY:__GLOBAL__sub_I_runtime_graphics_billboard_lump_cpp
tpi:_Display_get_renderingWidth_m2127568366
uKe:_Collection_1_System_Collections_IList_get_Item_m2836259259_gshared
hpi:_Debug_LogWarning_m2503577968
Vpa:__ZN13StreamingInfo8TransferI14SafeBinaryReadEEvRT_
wSb:__ZN15dense_hashtableINSt3__24pairIKiN4core17string_with_labelILi1EEEEEi18SInt32HashFunctionN14dense_hash_mapIiS5_S7_NS0_8equal_toIiEE13stl_allocatorIS6_L18MemLabelIdentifier1ELi16EEE9SelectKeyESA_SD_E15insert_noresizeERKS6_
pAb:__ZN14SafeBinaryRead21TransferSTLStyleArrayINSt3__26vectorIN4core12basic_stringIcNS3_20StringStorageDefaultIcEEEE13stl_allocatorIS7_L18MemLabelIdentifier12ELi16EEEEEEvRT_17TransferMetaFlags
XWh:__Z87RuntimeInvoker_Boolean_t3825574718_IntPtr_t_Int64_t909078037_MonoIOErrorU26_t1029615899PK10MethodInfoPvPS2_
cKc:__GLOBAL__sub_I_runtime_dynamics_lump_cpp
pD:__Z23CalculateGlobalRotation23TransformAccessReadOnly
FHf:_X509Store_Close_m2412711366
Qme:_AttributeHelperEngine_GetCustomAttributeOfType_TisIl2CppObject_m581732473_gshared
l3g:_GUILayoutGroup_ResetCursor_m3160916532
z2b:__Z43InitializeRendererAnimationBindingInterfacev
D5:__ZL26DestroyGameObjectRecursiveR10GameObjectR11BatchDelete
dth:_CullStateChangedEvent__ctor_m4025397477
JIj:_GC_allochblk_nth
tHg:_Mutex_ReleaseMutex_m2143813124
ZMg:_UInt32_System_IConvertible_ToSByte_m604037412_AdjustorThunk
O1b:__Z7HaloTexP9Texture2DPhiiii
bWj:dynCall_i
sfe:_Array_InternalArray__ICollection_CopyTo_TisKeyValuePair_2_t3749587448_m2750720485_gshared
pO:__ZN17AudioCustomFilter4InitEv
aKi:_X509Certificate__cctor_m2984068893
UHb:__ZN14SafeBinaryRead21TransferSTLStyleArrayI13dynamic_arrayIxLj8EEEEvRT_17TransferMetaFlags
lVj:dynCall_f
DUj:dynCall_v
e6e:_Path__cctor_m3685888661
JJd:_Decimal_System_IConvertible_ToDateTime_m4247760250_AdjustorThunk
Igf:_BitConverterLE_ULongFromBytes_m2583105400
Wab:__ZNSt3__26__treeINS_12__value_typeIN4core12basic_stringIcNS2_20StringStorageDefaultIcEEEEPN16MemoryFileSystem4NodeEEENS_19__map_value_compareIS6_SA_NS_4lessIS6_EELb1EEE13stl_allocatorISA_L18MemLabelIdentifier54ELi16EEE7destroyEPNS_11__tree_nodeISA_PvEE
ylh:_Dictionary_2_ToTKey_m965425080_gshared
ijb:__ZN6Camera23VirtualRedirectTransferER14SafeBinaryRead
Xve:_List_1_System_Collections_IList_Insert_m2838947798_gshared
jNj:__ZNSt3__26vectorINS_12basic_stringIDsNS_11char_traitsIDsEENS_9allocatorIDsEEEENS4_IS6_EEE8__appendEj
AJg:_TimeSpan_FromDays_m2859053398
M6c:__ZN11UnityEngine7Connect13ConnectConfig11ConfigValueD2Ev
wya:__ZNSt3__26__treeINS_12__value_typeIjP14DataBufferGLESEENS_19__map_value_compareIjS4_NS_4lessIjEELb1EEENS_9allocatorIS4_EEE7destroyEPNS_11__tree_nodeIS4_PvEE
v5b:__ZN13PlayableGraph15SetPrepareStageE13DirectorStage
Bb:invoke_viiiiiiii
i9e:_MissingMemberException__ctor_m2869542203
u$h:__Z61RuntimeInvoker_Boolean_t3825574718_DateTimeOffset_t1362988906PK10MethodInfoPvPS2_
tUi:_CachedInvokableCall_1__ctor_m3238306320_gshared
B1a:__ZNK6Camera16GetCullingMatrixEv
Lce:_Array_IndexOf_TisIl2CppObject_m1815604637_gshared
ZBe:_List_1_Find_m160737912_gshared
CHi:_Uri_EnsureAbsoluteUri_m1892758054
dpb:__ZN16LightmapSettings5ResetEv
cKa:__ZN12FileAccessor4ReadEyPvPy
unc:__Z42Register_UnityEngine_Event_get_commandNamev
QOa:__Z12IsFirstFramev
Vud:_ArrayList_ThrowNewArgumentOutOfRangeException_m3795973535
WDi:_Regex_Init_m1873144192
Mgf:_BitConverterLE_ToDouble_m516016818
MX:__ZNK15FileSystemEntry6ExistsEv
Xvb:__ZNK9Transform21GetLocalToWorldMatrixER10Matrix4x4f
Lz:__ZN26AnimatorControllerPlayable12ResetTriggerEi
FH:__ZN13AudioListener23VirtualRedirectTransferER19StreamedBinaryWriteILb0EE
_va:__ZN13GfxDeviceGLES11CopyTextureE9TextureIDS0_
Ccc:__Z72Register_UnityEngine_AssetBundleCreateRequest_DisableCompatibilityChecksv
HYj:_emscripten_glViewport__wrapper
wFc:__ZN16Physics2DManager20IsRigidBodyKinematicERK11Rigidbody2D
lzi:_Context__cctor_m3895126354
DXc:_tt_size_select
LEc:__ZN19CollisionListener2D10EndContactEP9b2Contact
fR:__ZN11UnityEngine15CloudWebService17SessionEventQueue15RestoreFromFileER12FileAccessorPvy
Eyb:__ZN14PlayerSettingsD2Ev
b4e:_FileStream_get_Length_m2265080501
QKg:_Type_type_is_assignable_from_m1620694099
xHj:_GC_reclaim_all
FDc:__ZN10ClipperLib15FirstIsBottomPtEPKNS_5OutPtES2_
UZ:__ZN13PlayableGraph14DestroyOutputsEv
kAi:_ContextAttribute_GetPropertiesForNewContext_m4007241045
rf:___syscall122
cof:_Kernel_Subtract_m2224959291
Nvi:_ResourceSet__ctor_m2566914412
ECc:__ZN19CompositeCollider2D22AddColliderToCompositeEP10Collider2DRK13dynamic_arrayIP7b2ShapeLj4EE
gpf:_ASN1Convert_ToDateTime_m2305963290
Jed:_SymmetricAlgorithm_Finalize_m1665128997
mnf:_BigInteger__ctor_m2991182310
bji:_AnimatorStateInfo_IsName_m4069203550
Odc:__Z52Register_UnityEngine_Camera_INTERNAL_CALL_RaycastTryv
W7a:__ZN13sorted_vectorINSt3__24pairIN4core12basic_stringIcNS2_20StringStorageDefaultIcEEEES6_EEN10vector_mapIS6_S6_27compare_tstring_insensitiveIS6_E13stl_allocatorIS7_L18MemLabelIdentifier37ELi16EEE13value_compareESD_E10insert_oneERKS7_
RQj:_mkdir
vCd:_Convert_ToByte_m791636053
UMh:_InternalEnumerator_1_get_Current_m2986222582_AdjustorThunk
o8a:__ZNSt3__26__treeIN4core12basic_stringIcNS1_20StringStorageDefaultIcEEEENS_4lessIS5_EE13stl_allocatorIS5_L18MemLabelIdentifier37ELi16EEE7destroyEPNS_11__tree_nodeIS5_PvEE
FVj:dynCall_iifi
jbc:__ZN18ScriptingArguments13CopyFromOtherERKS_
i9g:_Mathf_Ceil_m3621406599
LTc:_ps_hints_close
b4b:__Z16CreateRenderLoopR6Camera
FV:_tlsf_create
YNh:_DefaultComparer_Compare_m4039941311_gshared
Hih:_Enumerator_MoveNext_m2534596951_AdjustorThunk
YCc:__ZN10ClipperLib7ClipperC1Ei
gDb:__ZN13MonoBehaviour23VirtualRedirectTransferER18StreamedBinaryReadILb0EE
BTb:__ZN9ShaderLab20SerializedSubProgramC2ERKS0_
j1j:_emscripten_glCompileShader__wrapper
Vdd:_SHA256Managed_ProcessBlock_m1064908669
TT:__ZN11UnityEngine15CloudWebService17WebFileDownloaderINS0_13WWWRestClientENS0_16WWWRestHeaderMapEE24ExtractResponseEtagValueEv
USj:__ZNK10__cxxabiv121__vmi_class_type_info27has_unambiguous_public_baseEPNS_19__dynamic_cast_infoEPvi
qGd:_Convert_ToUInt64_m2215781574
vKi:_X509Certificate_VerifySignature_m4020723406
FLg:_TypeInitializationException_GetObjectData_m2244451030
wPd:_CompareInfo_LastIndexOf_m2978196696
ghf:_DSAManaged_Generate_m3166917081
kQh:_Enumerator_VerifyCurrent_m3330382363_AdjustorThunk
qxh:_ScrollRect_StopMovement_m1824352159
sl:_emscripten_glGetActiveUniform
JXa:__Z20RenderFullScreenQuadR9GfxDeviceRK6Camera17ShaderChannelMaskRK5RectTIfEf21MonoOrStereoscopicEye
nNe:_ReadOnlyCollection_1_System_Collections_IList_Contains_m2320811592_gshared
Kea:__ZN16RenderTextureMap5QueryEPK17RenderSurfaceBase
q8e:_UnexceptionalStreamWriter_Write_m186237617
dxh:_ScrollRect_UpdateScrollbars_m3921404746
m0j:_emscripten_glUniform4iv__wrapper
Yrd:_Boolean_CompareTo_m1086129598_AdjustorThunk
N2b:__ZN8Material8GetFloatEN9ShaderLab16FastPropertyNameE
hPc:_psnames_module_class_pic_free
wlc:__Z11GetGUIStatev
qg:_pthread_key_create
ivd:_ArrayList_Clear_m3834604134
xg:_emscripten_glGetObjectParameterivARB
hha:__ZN15SerializeTraitsI10ColorRGBAfE8TransferI14SafeBinaryReadEEvRS0_RT_
Qaj:__ZN6il2cpp2vm13MetadataCache27GetEventDefinitionFromIndexEi
M6:__ZN22BuiltinResourceManager13StaticDestroyEPv
Wie:_Array_Resize_TisCustomAttributeTypedArgument_t1498197914_m3055365808_gshared
Hxc:__ZNK14b2CapsuleShape11ComputeMassEP10b2MassDataf
w5:__ZN10GameObject17GetComponentIndexEPN5Unity9ComponentE
dsb:__ZN14SafeBinaryRead21TransferSTLStyleArrayI13dynamic_arrayI7SubMeshLj4EEEEvRT_17TransferMetaFlags
bjd:_Single_IsNegativeInfinity_m2615809279
m0e:_Int32_GetTypeCode_m3811463295_AdjustorThunk
itf:_CipherSuiteFactory_GetSsl3SupportedCiphers_m2476597368
mDf:_IPv6Address_Fill_m1824197512
pOc:__ZNK13TextRendering4Font11GetMaterialEv
Awb:__Z24ExtractSpriteMeshBuffersP19SpriteRenderingData17ShaderChannelMaskR11MeshBuffers
gZc:_UNITY_tt_face_vary_cvt
e_h:__Z52RuntimeInvoker_Double_t4078015681_Double_t4078015681PK10MethodInfoPvPS2_
Ilc:__Z28DidLoadAllAssembliesCallbackv
A7a:__ZN35RegisterRuntimeInitializeAndCleanup22ExecuteInitializationsEv
DFc:__Z14b2TimeOfImpactP11b2TOIOutputPK10b2TOIInput
NJj:_GC_set_no_dls
uF:__Z97Register_UnityEngine_Experimental_Director_AnimatorControllerPlayable_INTERNAL_CALL_SetBoolStringv
lma:__ZN23PreloadManagerOperation14SetFinalTimingEffff
i:DYNAMICTOP_PTR
L_d:_Dropdown_SetupTemplate_m1416189897
lSa:__Z11CopyTextureP7TextureiiS0_ii
Ayb:__ZN13BuildSettings8TransferI18StreamedBinaryReadILb0EEEEvRT_
juh:_PositionAsUV1__ctor_m412270210
m_b:__ZN10GameObject15InitializeClassEv
qAg:_SerializationInfo_GetInt16_m3549836657
Cfc:__Z38Renderer_Get_Custom_PropSortingLayerIDP12Il2CppObject
org:__ZL90StencilMaterial_t1630303189_CustomAttributesCacheGenerator_StencilMaterial_Add_m1745413071P21CustomAttributesCache
GMd:_Double_Equals_m920556135_AdjustorThunk
Cza:__Z29TextureIdMapGLES_QueryOrAlloc9TextureID
dsf:_CipherSuite_get_ExpandedKeyMaterialSize_m296573450
vBd:_Stack_Push_m284336154
c4d:_InputField_set_caretBlinkRate_m3521089516
PHd:_DateTime_Add_m4237489122
mXi:__ZL11decimalLog2P19il2cpp_decimal_repr
Mzb:__ZN15ResourceManager10Dependency8TransferI14SafeBinaryReadEEvRT_
JU:__ZN3WWWD2Ev
$Gj:_GC_extend_size_map
bPh:_Comparer_1_System_Collections_IComparer_Compare_m637596782_gshared
RK:__ZN4FMOD6System9setDriverEi
nYb:__Z24tessMeshMergeConvexFacesP8TESSmeshi
ixj:__ZN6il2cpp8metadataL24RecursiveGenericDepthForEPK17Il2CppGenericInst
h4b:__ZNK9Transform11GetRotationEv
sGf:_X509Certificate2_Find_m833446211
BO:__ZN12AudioManager15DidReloadDomainEv
iUc:_pshinter_get_globals_funcs
EKb:__Z18Transfer_BlittableI24GenerateTypeTreeTransferLb0EyEvRK29SerializationCommandArgumentsR31RuntimeSerializationCommandInfo
Eba:__ZN8Material14CreateMaterialER6ShaderN6Object9HideFlagsEb
Thf:_KeyPairPersistence_FromXml_m2310151202
Rcc:__Z60Register_UnityEngine_AsyncOperation_get_allowSceneActivationv
mJd:_DBNull_System_IConvertible_ToUInt64_m2919804476
$Qj:_fread
Nnj:__ZN15dense_hashtableINSt3__24pairIK10KeyWrapperIPK14Il2CppAssemblyEPK16MonoAssemblyNameEES6_N6il2cpp5utils11PointerHashIS4_EEN14dense_hash_mapIS6_SA_SF_NS6_14EqualsComparerINS0_8equal_toIS5_EEEENS0_9allocatorISB_EEE9SelectKeyESK_SM_E15set_deleted_keyERKSB_
qoc:__Z31GUIStyle_CUSTOM_GetFontInternalP12Il2CppObject
VSc:_tt_cmap12_char_map_binary
RWd:_Button_OnPointerClick_m2524861687
Hba:__Z25GetBuiltinResourceManagerv
IJh:_InternalEnumerator_1_System_Collections_IEnumerator_get_Current_m439366097_AdjustorThunk
txj:__ZN6il2cpp2gc8GCHandle15GetTargetHandleEP12Il2CppObjectii
Oh:_llvm_trap
c1:__ZNSt3__27__sort5IRNS_6__lessIN12_GLOBAL__N_114ParamNameIndexES3_EEPS3_EEjT0_S7_S7_S7_S7_T_
C2e:_Directory_CreateDirectory_m3561886598
wHj:_get_index
mFc:__ZN16Physics2DManagerD0Ev
OM:__ZN11AudioSource7SetMuteEb
uuf:_ClientSessionInfo_get_Valid_m3589823308
Sif:_PKCS1_Sign_v15_m2137018891
d8b:__ZN17CollisionMeshData20VertexDataHasChangedEv
Dva:__ZN13GfxDeviceGLES30SetBackBufferColorDepthSurfaceEP17RenderSurfaceBaseS1_
_Dg:_Latin1Encoding_GetBytes_m1067304501
aqc:__Z52Register_UnityEngine_GUIUtility_get_systemCopyBufferv
Q5b:__ZN16StreamedResource8TransferI18StreamedBinaryReadILb0EEEEvRT_
lgc:__Z49Register_UnityEngine_Input_get_imeCompositionModev
vSb:__ZN15dense_hashtableINSt3__24pairIKiN4core17string_with_labelILi1EEEEEi18SInt32HashFunctionN14dense_hash_mapIiS5_S7_NS0_8equal_toIiEE13stl_allocatorIS6_L18MemLabelIdentifier1ELi16EEE9SelectKeyESA_SD_E12resize_deltaEjj
o2a:__ZNK20OcclusionCullingData22GetStaticRendererCountEv
fRc:_UNITY_tt_face_free_ps_names
aYa:__ZNK6Camera17GetSkyboxMaterialEv
v1j:_emscripten_glDisableVertexAttribArray__wrapper
uGh:_InternalEnumerator_1_get_Current_m3259181373_AdjustorThunk
wOc:__ZZ29InitializeTextRenderingModulevEN16cleanupAfterLoad7ForwardEv
lOc:__ZNSt3__26vectorIN20TextRenderingPrivate8FontImpl13CharacterInfoE13stl_allocatorIS3_L18MemLabelIdentifier34ELi16EEE6insertENS_11__wrap_iterIPKS3_EERS9_
Lme:_Array_InternalArray__get_Item_TisUILineInfo_t3621277874_m1432166059_gshared
vvb:__ZN12MeshRenderer18CalculateLocalAABBER4AABBRKS_RK4Mesh
vJi:_X509CertificateCollection_GetEnumerator_m3994741635
ZZe:_Guid_ToString_m3927110175
hcb:__ZN21UnityDefaultAllocatorI17LowLevelAllocatorE8AllocateEji
lMh:_InternalEnumerator_1_get_Current_m889125315_gshared
r3d:_Image_get_preferredHeight_m1045199335
j3h:__Z88RuntimeInvoker_Void_t1841601450_Single_t2076509932_Single_t2076509932_Single_t2076509932PK10MethodInfoPvPS2_
E0c:__ZL28InitializeUIScriptingClassesv
Acc:__Z43AssetBundleRequest_Get_Custom_PropAllAssetsP12Il2CppObject
Tla:__ZN10UnityScene10ClearRootsEv
SLa:__ZN12HandlerChain10AtomicMoveER13FileEntryDataS1_
qae:_SetPropertyUtility_SetStruct_TisBoolean_t3825574718_m752301298_gshared
DWg:_MethodBuilder_GetCustomAttributes_m923430117
t0:__ZN20SpeedTreeWindManager6UpdateEf
gIa:__ZN9GfxDevice19CreateSparseTextureE9TextureIDii13TextureFormati17TextureColorSpace
EGi:_Literal_GetWidth_m1285678191
NDd:_Decimal_ThrowAtPos_m3318712794
sjf:_RSAManaged_GetPaddedValue_m4394397
zA:__ZN7mecanim9animation20CreateAvatarConstantEPNS_8skeleton8SkeletonEPNS1_13SkeletonPoseTIN4math4trsXEEES8_PNS_5human5HumanES3_iRKS6_RNS_6memory9AllocatorE
o8e:_UnexceptionalStreamWriter__ctor_m2209699189
jye:_List_1_Find_m970100220_gshared
gPi:_Transform_INTERNAL_get_rotation_m2427701365
hae:_Array_InternalArray__ICollection_Remove_TisVector2_t2243707579_m3881494282_gshared
Qub:__ZN14CompressedMesh8TransferI19StreamedBinaryWriteILb0EEEEvRT_
SQg:_AssemblyFileVersionAttribute__ctor_m2026149866
ycc:__Z58AssetBundleCreateRequest_CUSTOM_DisableCompatibilityChecksP12Il2CppObject
hge:_Array_InternalArray__ICollection_CopyTo_TisUILineInfo_t3621277874_m2142954044_gshared
_Wg:_TypeBuilder_SetParent_m387557893
fXh:__Z101RuntimeInvoker_Void_t1841601450_Il2CppObject_Il2CppObject_Int32_t2071877448_Il2CppObject_Il2CppObjectPK10MethodInfoPvPS2_
Vsf:_CipherSuiteCollection_cultureAwareCompare_m1825407448
TVe:_DateTimeFormatInfo_GetEraName_m1437894363
Lge:_Array_InternalArray__Insert_TisLabelFixup_t4090909514_m3927736182_gshared
RIf:_X509KeyUsageExtension_Encode_m3100824560
Dnh:_DefaultComparer_GetHashCode_m1728348656_gshared
u5d:_InputField_MouseDragOutsideRect_m3758282095
cuh:_Outline_ModifyMesh_m3796381413
YKc:__ZN13TextRendering4Font23VirtualRedirectTransferER24GenerateTypeTreeTransfer
B8i:__ZN15dense_hashtableINSt3__24pairIK10KeyWrapperI13dynamic_arrayIPK10Il2CppTypeLj4EEEPFvvEEES8_N6il2cpp8metadata19Il2CppSignatureHashEN14dense_hash_mapIS8_SB_SF_NS8_14EqualsComparerINSE_22Il2CppSignatureCompareEEENS0_9allocatorISC_EEE9SelectKeyESJ_SL_E15destroy_bucketsEjj
rEc:__ZN19CollisionListener2D20SendContactCallbacksER13dynamic_arrayI11Collision2DLj4EE
XJf:_Interpreter_PopulateGroup_m4098755954
Mqf:_PrivateKeyInfo_DecodeRSA_m919734506
tgc:__ZNSt3__27__sort4IRNS_6__lessI11KeyframeTplIfES3_EEPS3_EEjT0_S7_S7_S7_T_
_ab:__ZL16MouseMoveHandleriPK20EmscriptenMouseEventPv
sZe:_GuidParser_Reset_m3389485794
pP:__ZN11AudioSource15InitializeClassEv
$Mi:_StateMachineBehaviour__ctor_m153194
tDe:_Enumerator_System_Collections_IEnumerator_get_Current_m1270503615_gshared
y3g:_GUILayoutGroup_CalcHeight_m1454440153
MFh:_InternalEnumerator_1_System_Collections_IEnumerator_get_Current_m3315293493_gshared
KUa:__ZN11HaloManager17RenderGeometryJobEP25DynamicVBOGeometryJobDataj
a1e:_Int64_Parse_m4214159959
AIh:_InternalEnumerator_1_System_Collections_IEnumerator_get_Current_m4023948615_gshared
zC:__ZNSt3__227__insertion_sort_incompleteIRPFbN7mecanim9animation13MuscleIndexIdES3_EPS3_EEbT0_S8_T_
HQd:_BaseInput_get_mousePresent_m3571192771
H1j:_emscripten_glBlendEquation__wrapper
Kqj:__ZN15dense_hashtableINSt3__24pairIK10KeyWrapperIP11Il2CppClassES4_EES5_N6il2cpp8metadata16SZArrayClassHashEN14dense_hash_mapIS5_S4_SA_NS5_14EqualsComparerINS9_19SZArrayClassCompareEEENS0_9allocatorIS7_EEE9SelectKeyESE_SG_E13set_empty_keyERKS7_
NRj:__ZNSt3__212basic_stringIcNS_11char_traitsIcEENS_9allocatorIcEEE6__initEPKcj
Rj:_emscripten_set_fullscreenchange_callback
Dif:_KeyPairPersistence__IsUserProtected_m3417764903
sJf:_CategoryUtils_CategoryFromName_m226887453
MKd:_Decimal_op_Division_m1099836590
uT:__ZN11UnityEngine15CloudWebService14DataDispatcher22ResetNetworkRetryIndexEv
w9g:_Matrix4x4_get_Item_m3317262185
Wj:_emscripten_glDrawArrays
US:__ZN11UnityEngine15CloudWebService19SessionEventManagerC2Ev
v3e:_File_Open_m1543461971
OSa:__ZNK22RenderingCommandBuffer10FindTempRTERKN9ShaderLab16FastPropertyNameE
PBi:_LogicalCallContext_GetObjectData_m104142736
Fzd:_Hashtable_KeyEquals_m1433874944
kFg:_UnicodeEncoding_Equals_m4105324537
RDi:_QuickSearch_GetShiftDistance_m2364008966
IOi:_TouchScreenKeyboard_get_text_m538529702
B9c:__ZN13RuntimeStaticI14dynamic_bitsetLb0EE16StaticInitializeEPv
Ddc:__Z41Register_UnityEngine_Camera_get_eventMaskv
cch:_Physics2D_Internal_RaycastNonAlloc_m1874107548
xP:__ZL19CleanupModule_Audiov
fZi:_GenericComparer_1_Compare_m2516380588_gshared
nhj:__ZN6il2cpp2os4File10DeleteFileERKNSt3__212basic_stringIcNS2_11char_traitsIcEENS2_9allocatorIcEEEEPi
D2e:_File_Exists_m1685968367
oIb:__Z29Transfer_Blittable_ArrayFieldI14SafeBinaryReadiEvRT_R9ArrayInfoRK23StaticTransferFieldInfo
Hdj:__ZN6il2cpp6icalls8mscorlib6System8MonoType8GetFieldEP20Il2CppReflectionTypeP12Il2CppStringi
b_j:_emscripten_glVertexAttrib3fv__wrapper
AUe:_Comparison_1_BeginInvoke_m1549337842_gshared
OZj:_emscripten_glGetIntegerv__wrapper
vLi:_X509Crl_VerifySignature_m25189948
y$b:__ZNK28MonoBehaviourPropertyBinding13GetFloatValueERKN11UnityEngine9Animation10BoundCurveE
KAg:_RuntimeFieldHandle_Equals_m1202966418_AdjustorThunk
Nzb:__ZN14SafeBinaryRead21TransferSTLStyleArrayINSt3__26vectorI4PPtrI6ObjectE13stl_allocatorIS5_L18MemLabelIdentifier51ELi16EEEEEEvRT_17TransferMetaFlags
mJj:_GC_generic_malloc
_dh:_Rect_op_Equality_m2793663577
pZb:__ZNSt3__26vectorI16MessageForwarder13stl_allocatorIS1_L18MemLabelIdentifier6ELi8EEE6resizeEj
Iva:__ZN13GfxDeviceGLES32CreateDepthRenderSurfacePlatformEP17RenderSurfaceBase17DepthBufferFormat
aq:__ZN14SafeBinaryRead21TransferSTLStyleArrayI13dynamic_arrayIiLj4EEEEvRT_17TransferMetaFlags
zma:__ZL30RegisterFilteredObjectCallbackPP12Il2CppObjectiPv
ECi:_MatchCollection_TryToGet_m2938913145
Y1j:_emscripten_glIsTexture__wrapper
Tch:_Ray_ToString_m2019179238_AdjustorThunk
Q9c:_KeyedHashAlgorithm_get_Key_m3672929432
hva:__ZN9GfxDevice25ReleaseAsyncCommandHeaderEPN21GfxDeviceAsyncCommand3ArgE
XCb:__ZN9TextAsset8TransferI24GenerateTypeTreeTransferEEvRT_
Z6h:__Z66RuntimeInvoker_Boolean_t3825574718_Il2CppObject_Double_t4078015681PK10MethodInfoPvPS2_
Opf:_MD2Managed_HashCore_m248147901
tJc:__ZN17Physics2DSettings15InitializeClassEv
UFa:__ZN21UniformBufferTFMethod20IsBoneCountSupportedEi
Yvh:_Selectable_FindSelectableOnLeft_m3706572906
k5e:_MemoryStream__ctor_m4073175573
Xfa:__ZN6Shader27MarkShaderStateNotSupportedEPKS_
eke:_Array_Sort_TisVector4_t2243707581_TisVector4_t2243707581_m917148421_gshared
KLg:_UInt16_System_IConvertible_ToBoolean_m887616848_AdjustorThunk
Eng:__ZL81AnimationTriggers_t3244928895_CustomAttributesCacheGenerator_m_HighlightedTriggerP21CustomAttributesCache
M5a:__ZN10GameObject21EnsureUniqueTransformEbb
sFa:__ZN25TransformFeedbackSkinning8SkinMeshERK18VertexStreamSourceP9GfxBufferP17GPUSkinPoseBufferS4_ii17ShaderChannelMaskb
Rvj:__ZN15dense_hashtableINSt3__24pairIK10KeyWrapperIP14Il2CppIUnknownEjEES5_N6il2cpp5utils11PointerHashIS3_EEN14dense_hash_mapIS5_jSB_NS5_14EqualsComparerINS0_8equal_toIS4_EEEENS0_9allocatorIS7_EEE9SelectKeyESG_SI_E12resize_deltaEjj
bFg:_UnicodeEncoding_GetCharCount_m3719064538
Urd:_Boolean_CompareTo_m3691698947
Enh:_DefaultComparer_Equals_m3262686272_gshared
oYb:__Z18tessMeshDeleteMeshP9TESSallocP8TESSmesh
HMb:__Z22TransferField_NonArrayI19StreamedBinaryWriteILb0EE27Converter_SimpleNativeClassI8GUIStyleEEvRK23StaticTransferFieldInfoR31RuntimeSerializationCommandInfoRT0_
O6e:_StreamReader_ReadToEnd_m3871366821
myh:_Selectable_set_interactable_m63718297
SIc:__ZZN10Collider2D15InitializeClassEvEN28FunctorImpl_100kLayerChanged4CallEPviR11MessageData
gge:_Array_InternalArray__ICollection_CopyTo_TisUICharInfo_t3056636800_m2132994790_gshared
qD:__Z17CalculateGlobalSM23TransformAccessReadOnlyRKN4math7_float4E
Ul:_emscripten_glLoadIdentity
O7a:__ZNSt3__26vectorINS_4pairIN4core12basic_stringIcNS2_20StringStorageDefaultIcEEEEPK17MessageIdentifierEENS_9allocatorISA_EEE26__swap_out_circular_bufferERNS_14__split_bufferISA_RSC_EEPSA_
eCd:_Decimal_op_GreaterThan_m1625379433
R0a:__Z29CullShadowCastersWithoutUmbraR9IndexListRK17CullingParametersPK4AABBjj
TQi:_Vector3_get_down_m2372302126
Yp:__ZN4AABB8TransferI14SafeBinaryReadEEvRT_
OQa:_UNITY_png_destroy_info_struct
bbh:_PlayerConnection_ConnectedCallbackInternal_m2685675347
q_e:_Int16_System_IConvertible_ToDecimal_m2010889121_AdjustorThunk
Evb:__ZN12MeshRenderer23VirtualRedirectTransferER19StreamedBinaryWriteILb0EE
Spb:__ZN18StreamedBinaryReadILb0EE21TransferSTLStyleArrayI13dynamic_arrayI12LightmapDataLj4EEEEvRT_17TransferMetaFlags
Ehc:__Z49Register_UnityEngine_MonoBehaviour_StartCoroutinev
W9a:__Z11MD5ToStringPh
Gpe:_Enumerator_MoveNext_m2625246500_AdjustorThunk
Zfc:__Z38Input_Get_Custom_PropCompositionStringv
Yti:_AnimatorControllerPlayable_INTERNAL_CALL_GetParameterCountInternal_m3593070209
AGg:_UTF8Encoding_GetPreamble_m4179999478
wYh:__Z117RuntimeInvoker_Void_t1841601450_Int64_t909078037_Il2CppObject_Il2CppObject_Int64_t909078037_Il2CppObject_Il2CppObjectPK10MethodInfoPvPS2_
Wah:_ConnectionChangeEvent__ctor_m616483304
qsi:_AnimatorControllerPlayable_SetFloatID_m2632606700
J0i:__ZN6il2cpp2vm5Class19GetArrayElementSizeEPK11Il2CppClass
jPg:_ValueType_InternalEquals_m4068150072
BR:__ZN9JSONWrite8TransferIN4core12basic_stringIcNS1_20StringStorageDefaultIcEEEEEEvRT_PKc17TransferMetaFlags
NFg:_UTF7Encoding_GetByteCount_m253528135
lUd:_PointerInputModule_CopyFromTo_m2185451090
vBc:__ZN24b2ChainAndPolygonContact6CreateEP9b2FixtureiS1_iP16b2BlockAllocator
R3e:_FileNotFoundException_GetObjectData_m3405690481
WRj:__ZNSt3__212basic_stringIcNS_11char_traitsIcEENS_9allocatorIcEEE6resizeEjc
Hyb:__ZN14PlayerSettings16CheckConsistencyEv
$O:__ZN11AudioModule30GetOrCreateDSPFromCustomFilterEP17AudioCustomFilter
LRa:__ZN19AtomicPageAllocatorD2Ev
zn:FUNCTION_TABLE_viiiiiiiiiiiiii
rwj:__ZN6il2cpp6icalls8mscorlib6System13GlobalizationL20culture_lcid_locatorEPKvS5_
wxa:__ZN13GfxDeviceGLES20DestroyComputeBufferE15ComputeBufferID
tu:__Z30AnimationPlayableEvaluateBeginP35AnimationPlayableEvaluationConstantP32AnimationPlayableEvaluationInputP33AnimationPlayableEvaluationOutput
FHe:_Collection_1_Add_m3182287887_gshared
AGb:__Z33TransferPPtrToMonoObjectUnCheckedi24TransferInstructionFlags
Enb:__ZNK12CubemapArray16ExtractImageImplEP14ImageReferenceNS0_8BlitModeEbi
Dhc:__Z63Register_UnityEngine_MonoBehaviour_StartCoroutine_Auto_Internalv
Y9b:__ZN10systeminfo24GetSystemLanguageCultureEi
FEg:_StringBuilder_Append_m3618697540
Cxh:_ScrollRect_get_normalizedPosition_m1640825682
qgd:_SecurityElement_IsValidAttributeName_m2201790420
Tyb:__ZN10VRSettings8TransferI14SafeBinaryReadEEvRT_
SLg:_UInt16_System_IConvertible_ToDecimal_m984067306_AdjustorThunk
gfb:__Z22GetFolderSizeRecursiveRKN4core12basic_stringIcNS_20StringStorageDefaultIcEEEE
qOi:_Texture2D_INTERNAL_CALL_GetPixelBilinear_m570286059
ZPc:_UNITY_FT_Outline_Get_CBox
Uee:_Array_InternalArray__ICollection_Add_TisUInt16_t986882611_m2791161149_gshared
ka:invoke_viifiiii
UPh:_Enumerator_Reset_m3115320746_gshared
kWe:_NumberFormatter_FormatDecimal_m1435371940
pdf:_SimpleCollator_GetTailContraction_m1037943844
ubd:_RC2CryptoServiceProvider_CreateEncryptor_m252199767
$Xi:_U3CStartU3Ec__Iterator0_MoveNext_m2339115502_gshared
vF:__Z93Register_UnityEngine_Experimental_Director_AnimatorControllerPlayable_INTERNAL_CALL_SetBoolIDv
URa:__ZN22PerThreadPageAllocator14AcquireNewPageEj
CO:__ZN24AudioScriptBufferManager15DidReloadDomainEv
Csi:_AnimatorControllerPlayable_SetBoolID_m1141253014
PYa:__ZN6Camera13ClearNoSkyboxEb
E0e:_Int64_System_IConvertible_ToInt64_m989981560_AdjustorThunk
sxe:_List_1_CheckIndex_m2576265846_gshared
$dh:_Rect_GetHashCode_m559954498
Cji:_Application_CallLowMemory_m626389230
V7i:__ZNK15dense_hashtableI10KeyWrapperIPK17Il2CppGenericInstES4_N6il2cpp8metadata21Il2CppGenericInstHashEN14dense_hash_setIS4_S7_NS4_14EqualsComparerINS6_24Il2CppGenericInstCompareEEENSt3__29allocatorIS4_EEE8IdentityESB_SE_E12test_deletedEj
Kpd:_Array_combsort_m2486643569
b8:__ZNSt3__27__sort5IR17CompareInstanceIDPP6ObjectEEjT0_S6_S6_S6_S6_T_
oib:__ZNSt3__26vectorI17SortingLayerEntryNS_9allocatorIS1_EEE12__move_rangeEPS1_S5_S5_
Tnh:_DefaultComparer_Equals_m145577182_gshared
kya:__ZN18GfxFramebufferGLES10InvalidateEv
_lf:_SmallXmlParser_SkipWhitespaces_m2923234398
WJd:_Decimal_System_IConvertible_ToSingle_m1736019752_AdjustorThunk
xBa:__ZN4crnd11crnd_deleteINS_13prefix_coding14decoder_tablesEEEvPT_
FOi:_TouchScreenKeyboard_Open_m2760130151
b0:__ZN10MemoryPoolD2Ev
Hwi:_GCHandle__ctor_m2952050298_AdjustorThunk
nmc:__ZNSt3__26__treeINS_12__value_typeIN4core12basic_stringIcNS2_20StringStorageDefaultIcEEEEN5IMGUI12NamedControlEEENS_19__map_value_compareIS6_S9_NS_4lessIS6_EELb1EEENS_9allocatorIS9_EEE7destroyEPNS_11__tree_nodeIS9_PvEE
Cyf:_SslClientStream_get_SelectedClientCertificate_m1580018944
ZCd:_DateTime_FromTicks_m75527956
jhf:_KeyGeneratedEventHandler_Invoke_m4220935979
l7b:__ZN19SpriteMeshGenerator4path3decEi
Jdb:__ZN15dense_hashtableINSt3__24pairIKiPKN11AssetBundle9AssetInfoEEEi21InstanceIDHashFunctorN14dense_hash_mapIiS6_S8_NS0_8equal_toIiEE13stl_allocatorIS7_L18MemLabelIdentifier65ELi16EEE9SelectKeyESB_SE_E12resize_deltaEjj
yLd:_DebuggerTypeProxyAttribute__ctor_m3082078467
iae:_Array_InternalArray__ICollection_Remove_TisVector3_t2243707580_m3881497481_gshared
EQj:___mmap
qbc:__ZN9Scripting26RaiseArgumentNullExceptionEPKc
NV:__ZL18InternalLogConsolePKcz
yPj:_lseek
axe:_List_1_System_Collections_IList_set_Item_m2267202349_gshared
Zqe:_Enumerator_System_Collections_IEnumerator_get_Current_m3866069145_AdjustorThunk
ile:_Component_GetComponentsInChildren_TisIl2CppObject_m1992201622_gshared
XHe:_Collection_1_ConvertItem_m2972284337_gshared
D3:__Z37scripting_method_get_nth_argumenttype18ScriptingMethodPtri
aN:__ZN11AudioSource16UpdatePauseStateEv
I7:__ZL52StaticUnregisterSceneLoadedCallback_LightmapSettingsPv
Lu:__ZN7mecanim5human25HumanPoseAddAdditiveLayerERNS0_9HumanPoseERKS1_fRKNS_6bitsetILj70EEE
Fhc:__Z48Register_UnityEngine_MonoBehaviour_StopCoroutinev
LCf:_RemoteCertificateValidationCallback_Invoke_m2237177542
m2d:_HorizontalOrVerticalLayoutGroup_set_childForceExpandWidth_m1140293254
KBf:_NameObjectCollectionBase_BaseAdd_m964300824
q8d:_Array_InternalArray__ICollection_Contains_TisKeyValuePair_2_t1174980068_m650645929_gshared
ZXa:__ZN27DeviceViewProjMatricesStateD2Ev
rZh:__Z189RuntimeInvoker_Int32_t2071877448_Il2CppObject_Int32_t2071877448_Int32_t2071877448_Il2CppObject_Int32_t2071877448_SByte_t454417549_Int32U26_t455636984_BooleanU26_t3168250738_SByte_t454417549PK10MethodInfoPvPS2_
zcd:_RNGCryptoServiceProvider_RngOpen_m2238023214
QRg:_CustomAttributeData_GetCustomAttributes_m4124612360
UJb:__Z18Transfer_BlittableI24GenerateTypeTreeTransferLb0E8Vector3fEvRK29SerializationCommandArgumentsR31RuntimeSerializationCommandInfo
Ezj:__ZN15dense_hashtableINSt3__24pairIK10KeyWrapperINS1_IPKcS4_EEEiEES6_24NamespaceAndNamePairHashN14dense_hash_mapIS6_iS9_NS6_14EqualsComparerI26NamespaceAndNamePairEqualsEENS0_9allocatorIS8_EEE9SelectKeyESD_SF_E14squash_deletedEv
fug:_MethodDictionary_CopyTo_m1721788774
Krj:__ZN6il2cpp2vm6Thread16RequestInterruptEP12Il2CppThread
rAf:_TlsStream_get_Position_m3551173234
fzi:_LeaseManager_SetPollTime_m3137304074
pU:__ZNK3WWW6IsDoneEv
Oyd:_Hashtable_CalcPrime_m1835281409
tLc:__ZNSt3__26vectorINS_4pairINS1_IttEEfEENS_9allocatorIS3_EEE8__appendEj
g6a:__ZN6prcoreL10inner_flipILj2EEEvPhS1_j
aXg:_TypeBuilder_has_ctor_method_m3449702467
oQa:_UNITY_png_text_compress
Bsc:__ZN9JSONWrite8TransferIbEEvRT_PKc17TransferMetaFlags
epd:_Array_CreateInstance_m679102425
Ebb:__ZN12TLSAllocatorI14StackAllocatorED0Ev
Kwi:_GCHandle_GetTarget_m2056570211
Rxb:__ZN11TimeManager16CheckConsistencyEv
e4h:__Z67RuntimeInvoker_Void_t1841601450_Scene_t1684909666_Scene_t1684909666PK10MethodInfoPvPS2_
hVa:__ZN21GfxDeviceAsyncCommand10ArgScratch15ThreadedCleanupEv
YDc:__ZN10ClipperLib14IntersectPointERNS_5TEdgeES1_RNS_8IntPointE
$cf:_MSCompatUnicodeTable_IsJapaneseSmallLetter_m2541532635
unf:_BigInteger_GenerateRandom_m1878468830
wJb:__ZN12NativeBufferI27Converter_UnityEngineObjectE15SetupForWritingER9ArrayInfo
FYb:__ZL19CheckForRightSpliceP14TESStesselatorP12ActiveRegion
M0d:_Graphic_UpdateGeometry_m2431537946
mcf:_ObsoleteAttribute__ctor_m834417715
we:_glTexImage3D
uP:__Z20RegisterModule_Audiov
ctf:_TlsCipherSuite__ctor_m2983563913
Uga:__ZNSt3__26vectorINS_4pairI11ShaderTagIDS2_EENS_9allocatorIS3_EEE6insertENS_11__wrap_iterIPKS3_EERS8_
Xya:__ZNK13TranslateGLES13BlendEquationE7BlendOp
Dbi:__Z55RuntimeInvoker_Boolean_t3825574718_UIVertex_t1204258818PK10MethodInfoPvPS2_
pAj:__ZN6il2cpp2vm6Object13UnboxNullableEP12Il2CppObjectP11Il2CppClassPv
Fe:_JS_SystemInfo_GetCurrentCanvasWidth
CPe:_ReadOnlyCollection_1_System_Collections_IList_Remove_m2668898250_gshared
Mac:__ZL34GetComponentsImplementationRecurseILb1ELi0ELi1EEbR10GameObjectbRK17CompareParametersRK39GetComponentsImplementation_ReturnValue
qah:_Mesh_SetColors_m3438776703
Ztj:__ZN6il2cpp2vm14PlatformInvoke30MarshalCSharpStringToCppStringEP12Il2CppString
Myj:__ZN6il2cpp2vm5Field10IsInstanceEP9FieldInfo
PKg:_Type_GetTypeHandle_m2405042843
kzb:__ZN10VRSettings8TransferI18StreamedBinaryReadILb0EEEEvRT_
mHh:_InternalEnumerator_1_System_Collections_IEnumerator_get_Current_m1322273508_AdjustorThunk
Umd:_DecoderFallbackException__ctor_m3081822699
d1e:_Int64_TryParse_m3093198325
ecj:__ZN6il2cpp2vm10ThreadPool5QueueEP14Il2CppDelegatePPvS3_P12Il2CppObject
NMb:__Z19TransferField_ArrayI19StreamedBinaryWriteILb0EE27Converter_SimpleNativeClassI8GradientEEvRK23StaticTransferFieldInfoR31RuntimeSerializationCommandInfoRT0_
M3e:_FileLoadException_ToString_m319701103
a6e:_NullStream_Seek_m1809916110
NAc:__ZNK12b2WheelJoint16GetReactionForceEf
Q7b:__Z13GetImagePixelI10ColorRGBAfET_PKhii13TextureFormat15TextureWrapModeii
RKd:_Delegate_SetMulticastInvoke_m361277268
JQd:_BaseInput_GetMouseButtonUp_m32571233
And:_EncoderReplacementFallbackBuffer_get_Remaining_m2777488845
Gsb:__ZN7SubMesh8TransferI18StreamedBinaryReadILb0EEEEvRT_
jgb:__ZN21AssetBundleFileSystem4NameEv
sGg:_UTF8Encoding_GetCharCount_m3557355060
SGh:_InternalEnumerator_1_System_Collections_IEnumerator_get_Current_m127456009_gshared
x9g:_Matrix4x4_get_Item_m312280350_AdjustorThunk
kf:_emscripten_glIsEnabled
uOb:__ZN18StreamedBinaryReadILb1EE21TransferSTLStyleArrayI13dynamic_arrayIdLj8EEEEvRT_17TransferMetaFlags
nfc:__Z45Register_UnityEngine_GameObject_get_transformv
K2:__Z29scripting_class_instance_size17ScriptingClassPtr
bBc:__ZN7b2World12DestroyJointEP7b2Joint
czf:_SslHandshakeHash_initializePad_m4132246594
QHf:_X509CertificateCollection_get_Item_m848456018
xT:__ZN11UnityEngine15CloudWebService19SessionEventManager26ProcessEventQueueJobStaticEPv
tFi:_AnchorInfo_get_IsUnknownWidth_m3747592836
rle:_GameObject_GetComponents_TisIl2CppObject_m374334104_gshared
ST:__ZN11UnityEngine15CloudWebService19SessionEventManager37OnTimerExpiredPerformArchiveJobStaticEPv
Q1h:__Z101RuntimeInvoker_OpFlags_t378191910_SByte_t454417549_SByte_t454417549_SByte_t454417549_SByte_t454417549PK10MethodInfoPvPS2_
lA:__ZN23AnimationPlayableOutputC2EjP13PlayableGraph
pOi:_Texture2D_GetPixelBilinear_m3063031185
oOj:__ZN6il2cpp6icalls8mscorlib6System10Reflection4Emit11DerivedType21create_unmanaged_typeEP20Il2CppReflectionType
iD:__ZN7mecanim12statemachine13GetStateIndexEPKNS0_20StateMachineConstantEj
nyg:_FormatterConverter_ToInt32_m1004171952
Z8:__Z29GetOcclusionPortalManagerListv
jod:_Array_System_Collections_IList_set_Item_m4290470392
Twg:_RemotingConfiguration_RegisterActivatedServiceType_m4003543022
Vic:__Z39Register_UnityEngine_Sprite_get_texturev
_yi:_ConfigHandler_GetNotNull_m2454680251
bXi:__ZL10rescale128PyS_Piiiii
mH:__ZN9AudioClip7WWWSeekEPvjS0_
T8d:_Array_InternalArray__ICollection_Contains_TisUInt32_t2149682021_m672455245_gshared
zOg:_UIntPtr_System_Runtime_Serialization_ISerializable_GetObjectData_m3481735378
p6:__ZL32StaticInitializeIUnityInterfacesPv
HUa:__Z13CameraProjectRK8Vector3fRK10Matrix4x4fS4_RK5RectTIiERS_b
YAb:__ZN30RuntimeInitializeOnLoadManager15ClassMethodInfo8TransferI19StreamedBinaryWriteILb0EEEEvRT_
o$:__Z22CreateMutexLockedStackv
nHd:_DateTime_System_IConvertible_ToType_m3821835592
kLf:_IntervalCollection_get_Item_m1667788970
Tsa:__ZNSt3__27__sort5IRNS_4lessIN22BuiltinResourceManager8ResourceEEEPS3_EEjT0_S7_S7_S7_S7_T_
WDg:_Latin1Encoding_GetByteCount_m2812921286
DOa:__ZN9ShaderLab11ShaderStateD2Ev
EJd:_Decimal_System_IConvertible_ToByte_m3432160840
HFg:_UTF7Encoding__ctor_m1941256679
uEb:__Z23TransferScriptingObjectI24GenerateTypeTreeTransferEvRT_18ScriptingObjectPtr17ScriptingClassPtrPK15MonoScriptCache
qyg:_BinaryCommon__cctor_m3619690968
MZj:_emscripten_longjmp__wrapper
cLi:_X509Chain_FindCertificateRoot_m589250107
kQa:_UNITY_png_write_iTXt
tMb:__ZL17Transfer_GUIStyleI19StreamedBinaryWriteILb0EELb0EEvRK29SerializationCommandArgumentsR31RuntimeSerializationCommandInfo
BZh:__Z248RuntimeInvoker_Int32_t2071877448_Il2CppObject_Int32_t2071877448_Int32_t2071877448_Il2CppObject_Int32_t2071877448_UInt32U26_t2197289955_UInt32U26_t2197289955_Il2CppObject_DecoderFallbackBufferU26_t3597875002_ByteU5BU5DU26_t790777611_SByte_t454417549PK10MethodInfoPvPS2_
SPi:_UnityString_Format_m2949645127
uyd:_Comparer_GetObjectData_m3370677985
DXi:_UnityEvent_4_GetDelegate_m2704961864_gshared
PLa:__ZNK12HandlerChain6TargetERK13FileEntryDataR15FileSystemEntry
Jld:_Encoding__ctor_m3985582722
kzg:_ObjectManager_RaiseOnDeserializingEvent_m1841526046
sld:_String_CreateString_m560359261
LQc:_UNITY_FT_Init_Class_tt_service_get_cmap_info
jDg:_DSA_ToXmlString_m1014346120
KOj:___shlim
Tdd:_SHA256Managed__ctor_m1410575277
HBc:__ZN16b2BlockAllocator4FreeEPvi
rPd:_CompareInfo_internal_index_managed_m859405335
ord:_Boolean_System_IConvertible_ToDateTime_m2613818037_AdjustorThunk
hbj:__ZNSt3__211__tree_nextIPNS_16__tree_node_baseIPvEEEET_S5_
gRe:_ReadOnlyCollection_1_System_Collections_IList_Clear_m2240307498_gshared
Fwj:__ZN15dense_hashtableI10KeyWrapperIP18Il2CppGenericClassES3_N6il2cpp8metadata22Il2CppGenericClassHashEN14dense_hash_setIS3_S6_NS3_14EqualsComparerINS5_25Il2CppGenericClassCompareEEENSt3__29allocatorIS3_EEE8IdentityESA_SD_E14squash_deletedEv
jla:__ZN6prcoreL17RemapGenericFloatI17TexFormatRGBAHalf17TexFormatRGBFloatEEvPKNS_9InnerInfoE
Cyg:_BinaryFormatter_NoCheckDeserialize_m1968202401
c1d:_Graphic_CrossFadeAlpha_m4067047552
Jic:__Z35Sprite_Get_Custom_PropPixelsPerUnitP12Il2CppObject
h$j:_pthread_cond_wait__wrapper
pwc:__ZN9rapidjson12PrettyWriterI16TempBufferWriterNS_4UTF8IcEES3_13JSONAllocatorE10StartArrayEv
X7i:__ZNSt3__26__sortIRN6il2cpp5utils11collections13ArrayValueMapIPK10Il2CppType17Il2CppInteropData26InteropDataToTypeConverterNS1_8metadata14Il2CppTypeLessENSA_26Il2CppTypeEqualityComparerEE12SortComparerEPS8_EEvT0_SH_T_
EEb:__ZN11PreloadDataD2Ev
WIc:__ZZN10Collider2D15InitializeClassEvEN38FunctorImpl_104kCompositeColliderAdded4CallEPviR11MessageData
bc:invoke_iifi
TIc:__ZZN10Collider2D15InitializeClassEvEN31FunctorImpl_101kDidAddComponent4CallEPviR11MessageData
NQf:__ZL79Hashtable_t909839986_CustomAttributesCacheGenerator_Hashtable__ctor_m3742489710P21CustomAttributesCache
Rzc:__ZNK16b2PrismaticJoint16GetReactionForceEf
J9g:_Mesh__ctor_m2975981674
IBh:_VertexHelper_AddUIVertexStream_m3599763288
f9g:_Mathf_Abs_m1942863256
rph:_EqualityComparer_1_System_Collections_IEqualityComparer_Equals_m1565968086_gshared
zhe:_Array_InternalArray__set_Item_TisSlot_t2022531261_m3811041838_gshared
Qbd:_RijndaelTransform__cctor_m1393306207
z0d:_Graphic_get_defaultMaterial_m1022773737
oUc:_UNITY_FT_Init_Class_pscmaps_interface
vzh:_Slider_OnDidApplyAnimationProperties_m3202463395
iF:__Z109Register_UnityEngine_Experimental_Director_AnimatorControllerPlayable_INTERNAL_CALL_GetParameterCountInternalv
D3f:__ZL64TypeConverterAttribute_t252469870_CustomAttributesCacheGeneratorP21CustomAttributesCache
_1d:_GridLayoutGroup_SetLayoutVertical_m3233681648
Uec:__Z44Register_UnityEngine_RectOffset_get_verticalv
sLg:_Type_MakeGenericType_m973683242
YMj:__ZN6il2cpp2vm9LastError31InitializeLastErrorThreadStaticEv
q1b:__ZN13ProduceHelperI13RenderTextureLb0EE7ProduceE18MemLabelIdentifier18ObjectCreationMode
m1e:_Int64_ToString_m2785525583
IK:__ZN4FMOD6System17setSoftwareFormatEi17FMOD_SOUND_FORMATii18FMOD_DSP_RESAMPLER
kI:__ZN11AudioSource31UpdateEffectVirtualizationStateEb
r_g:_MonoGenericCMethod__ctor_m2520666358
lh:_JS_SystemInfo_GetCurrentCanvasHeight
Yug:_ReturnMessage_get_OutArgs_m299904174
foc:__Z34GUIStyle_Get_Custom_PropFixedWidthP12Il2CppObject
qjf:_RSAManaged_get_PublicOnly_m2603845138
UJd:_Decimal_System_IConvertible_ToSByte_m3745141000_AdjustorThunk
FDj:__ZN6il2cpp2gc16GarbageCollector11GetWeakLinkEPPv
zaf:_MonoType_GetMethods_m353342170
wU:__ZN13EmscriptenWWW23HasDownloadedOrMayBlockEv
NBj:__GLOBAL__sub_I_Console_cpp
$ka:__ZN6prcoreL17RemapGenericFloatI14TexFormatRHalf17TexFormatRGBAHalfEEvPKNS_9InnerInfoE
Ecj:__ZN6il2cpp2vm7Runtime11InvokeArrayEPK10MethodInfoPvP11Il2CppArrayPP15Il2CppException
H4b:__ZNK10GameObject23QueryComponentTransformEv
AE:__Z71AnimatorControllerPlayable_CUSTOM_INTERNAL_CALL_PlayInFixedTimeInternalR9HPlayableiif
LXe:_GregorianCalendar_get_Eras_m4010603022
qNd:_Enum_System_IConvertible_ToUInt16_m1001858842
klh:_Dictionary_2_make_pair_m394533803_gshared
uYc:_Dual_Project
gZ:__GLOBAL__sub_I_runtime_utilities3_lump_cpp
kG:__ZN9AudioClip23VirtualRedirectTransferER14SafeBinaryRead
vEa:__ZN4gles20EnsureTextureCreatedEP7ApiGLESP17RenderSurfaceGLES
S7d:_LayoutRebuilder_U3CRebuildU3Em__2_m3239837417
zVa:__ZN15ReplacementPass13PrepareSubsetEjRK10RenderNodeifRK17ShaderReplaceData
VJd:_Decimal_System_IConvertible_ToSingle_m1736019752
nL:__Z32AudioMeasurement_GetTimeConstantff
zPa:_UNITY_png_compress_IDAT
jEj:__ZN6il2cpp8metadata11FieldLayout12LayoutFieldsEjjjRKNSt3__26vectorIPK10Il2CppTypeNS2_9allocatorIS6_EEEERNS1_15FieldLayoutDataE
ajg:__ZL54ContextMenu_t2283362202_CustomAttributesCacheGeneratorP21CustomAttributesCache
q1a:__ZL27PrepareSceneNodesJobCombineP25ScheduleSceneNodesJobData
L4e:_Stream_EndWrite_m263497992
xud:_Char_Parse_m2121403806
Ota:__ZN13GfxDeviceGLESD2Ev
y8:__ZN18AsyncUploadManager13StaticDestroyEPv
qUg:_EnumBuilder_GetConstructorImpl_m331611313
rFc:__ZN16Physics2DManager26GetGameObjectForRaycastHitERK12RaycastHit2D
KRb:__ZN6Shader7SetNameEPKc
HZd:_DefaultControls_SetParentAndAlign_m3048898502
Fs:__ZN11UnityEngine9Animation35SetTransformPropertyApplyMainThreadER9TransformRKNS0_30AnimatorGenericBindingConstantERKNS0_21AvatarBindingConstantEb
U6a:__ZN19CustomRenderTexture22HandleBoundaryWrappingERKNS_14UpdateZoneInfoEj
dbj:__ZN6il2cpp2vm13MetadataCache32GenerateCustomAttributeTypeCacheEi
dIf:_X509Chain__cctor_m826131835
FKe:_Collection_1_InsertItem_m1073626529_gshared
rw:__ZNK11UnityEngine9Animation30GenericBindingValueArrayUniqueclERKNS0_14GenericBindingES4_
hqd:_ArrayTypeMismatchException__ctor_m1923871345
GCg:_CspParameters__ctor_m3051314030
zYc:_Direct_Move_Y
xYc:_Direct_Move_X
mHf:_X509ChainElement_Set_m2634474339
$pi:_Event_get_isKey_m1145918225
krd:_Boolean_System_IConvertible_ToByte_m1443044213_AdjustorThunk
Fi:_glClearDepthf
c1b:__ZN19SkinnedMeshRenderer7GetMeshEv
SXb:__ZN19RuntimeSceneManager14GetActiveSceneEv
v$h:__Z81RuntimeInvoker_Int32_t2071877448_Il2CppObject_Int32_t2071877448_Int16_t4041245914PK10MethodInfoPvPS2_
Iej:__ZN6il2cpp6icalls8mscorlib6SystemL8IsStaticEPK9EventInfo
Dec:__Z29RectOffset_Set_Custom_PropTopP12Il2CppObjecti
Vjc:__Z57Register_UnityEngine_Transform_INTERNAL_get_localPositionv
N$a:__ZNSt3__27__sort4IR15ReflProbeSorterPP15ReflectionProbeEEjT0_S6_S6_S6_T_
$ef:_BigInteger_op_Equality_m366854173
_jb:__ZN16GraphicsSettings10SmartResetEv
O4c:__Z55Register_UnityEngine_Analytics_CustomEventData_AddInt16v
jth:_MaskableGraphic_Cull_m3130802047
Smi:_CanvasRenderer_Clear_m2419751129
Nxf:_RecordProtocol_MapV2CipherCode_m4064211604
YVh:__Z63RuntimeInvoker_Int16_t4041245914_Il2CppObject_Int32_t2071877448PK10MethodInfoPvPS2_
imd:_ASCIIEncoding_GetByteCount_m2696039881
Axf:_ReceiveRecordAsyncResult_SetComplete_m2441107665
Mlb:__ZN20SphericalHarmonicsL28TransferI19StreamedBinaryWriteILb0EEEEvRT_
TXd:_CanvasUpdateRegistry_InternalUnRegisterCanvasElementForLayoutRebuild_m3740187734
R$b:__ZNK28RectTransformPropertyBinding9BindValueER6ObjectRKN11UnityEngine9Animation14GenericBindingERNS3_10BoundCurveE
MTg:_DerivedType_get_AssemblyQualifiedName_m2010127631
sz:__ZN26AnimatorControllerPlayable11DerivesFromE17ScriptingClassPtr
q4g:_GUISkin_set_button_m412653849
avb:__ZN4Mesh14UploadMeshDataEb
CIh:_InternalEnumerator_1_System_Collections_IEnumerator_get_Current_m4023948615_AdjustorThunk
f0a:__ZN14qsort_internal5QSortIP16RenderObjectDatai25RenderPrePassObjectSorterEEvT_S4_T0_T1_
Umf:_ArgIterator_Equals_m2415994310
u1b:__ZN14RenderSettings12CleanupClassEv
Ric:__Z43DataUtility_CUSTOM_INTERNAL_CALL_GetPaddingP12Il2CppObjectR8Vector4f
vwa:__ZN9GfxDevice15ImmediateNormalEfff
End:_EncoderReplacementFallbackBuffer_GetNextChar_m1811006007
k3h:__Z69RuntimeInvoker_Void_t1841601450_Single_t2076509932_Single_t2076509932PK10MethodInfoPvPS2_
TPi:_Vector2__ctor_m3067419446
A5a:__ZN15SerializeTraitsI13dynamic_arrayIN10GameObject13ComponentPairELj4EEE19ResizeSTLStyleArrayERS3_i18MemLabelIdentifier
WKb:__ZN13GUIStyleState8TransferI24GenerateTypeTreeTransferEEvRT_
D4:__ZN20dynamic_block_vectorI14FileIdentifierE22push_back_no_constructEv
apa:__ZN9Texture3D23VirtualRedirectTransferER14SafeBinaryRead
HEg:_StringBuilder_Append_m1462406979
mTb:__ZNSt3__26vectorIN9ShaderLab20SerializedSubProgram16TextureParameterENS_9allocatorIS3_EEE8__appendEj
Vob:__ZN9Texture2D13UploadTextureEi
KKg:_Type_GetType_m773255995
dXc:_cff_get_cid_from_glyph_index
ouh:_RawImage__ctor_m527845386
JK:__ZN4FMOD6System19setSoftwareChannelsEi
Phe:_Array_InternalArray__set_Item_TisResourceCacheItem_t333236149_m2074358118_gshared
ygh:_Enumerator_MoveNext_m3349738440_gshared
QFf:_X500DistinguishedName_DecodeRawData_m3640767187
Rrd:_Boolean_System_IConvertible_ToUInt64_m3594533761
pgc:__Z60Register_UnityEngine_Input_INTERNAL_set_compositionCursorPosv
NM:__ZN11AudioSource7SetLoopEb
Gbg:__ZL51Collider_t3497673348_CustomAttributesCacheGeneratorP21CustomAttributesCache
Q3g:_GUISettings_Internal_GetCursorFlashSpeed_m3799968572
Fef:_BigInteger_get_Rng_m1268152318
HQi:_Vector3_op_Division_m3315615850
Ecb:__ZN9Behaviour10DeactivateE19DeactivateOperation
RZg:_MonoEvent_IsDefined_m3151861274
vTc:_Cubic_To
Htf:_TlsStream_WriteInt24_m1660453494
Adc:__Z44Register_UnityEngine_Camera_get_farClipPlanev
jti:_AnimatorControllerPlayable_INTERNAL_CALL_GetLayerNameInternal_m2049776925
eBb:__ZNK17IAnimationBinding30CurveAttributeToSerializedPathERKN11UnityEngine9Animation10BoundCurveE
eyj:__ZN6il2cpp2gc16GarbageCollector14GetOrCreateCCWEP12Il2CppObjectRK10Il2CppGuid
Mzj:__ZN6il2cpp2vm5Image21FromTypeNameParseInfoEPK11Il2CppImageRKNS0_17TypeNameParseInfoEb
Mza:__ZN17BufferManagerGLES13AcquireBufferEjN14DataBufferGLES11BufferUsageEb
CBd:_Console_OpenStandardError_m3676373108
D8e:_UnmanagedMemoryStream_SetLength_m1805321486
Ndj:__ZNK6il2cpp5utils10functional6FilterINSt3__212basic_stringIcNS3_11char_traitsIcEENS3_9allocatorIcEEEENS0_11StringUtils23CaseInsensitiveComparerEEclIPKcEEbRKT_
Luf:_Context_get_ProtocolNegotiated_m624488778
Zue:_List_1_System_Collections_IList_IndexOf_m1671340024_gshared
bqd:_SimpleEnumerator_MoveNext_m1696906961
q8c:__ZN16UnityAdsSettingsD0Ev
yvf:_Context_StartSwitchingSecurityParameters_m373522596
HAa:__ZNK7ApiGLES10DebugLabelEN2gl10ObjectTypeEjPKc
ode:_Array_InternalArray__IndexOf_TisInt16_t4041245914_m1619355230_gshared
TSj:__ZNK10__cxxabiv121__vmi_class_type_info16search_below_dstEPNS_19__dynamic_cast_infoEPKvib
t0e:_Int64_System_IConvertible_ToDateTime_m1002280174
wCd:_Convert_ToByte_m9159597
Sic:__Z38DataUtility_CUSTOM_Internal_GetMinSizeP12Il2CppObjectP13Vector2fIcall
h5b:__ZN8PlayableC2E17ScriptingClassPtr18DirectorPlayerType
kCj:__ZN6il2cpp2os6Thread19DetachCurrentThreadEv
Evi:_ResourceEnumerator_get_Key_m1012797265
pWe:_NumberFormatter_FormatPercent_m776769918
N3g:_GUISettings__ctor_m2453724887
xIg:_Scheduler_ShrinkIfNeeded_m2186823111
Arf:_Alert_get_IsCloseNotify_m577852330
h3:__Z27FindOrCreateMonoScriptCache17ScriptingClassPtr22InitScriptingCacheTypeP6Objecti
BPb:__Z18Transfer_BlittableI18StreamedBinaryReadILb0EELb1E8Vector3fEvRK29SerializationCommandArgumentsR31RuntimeSerializationCommandInfo
G7g:_GUIUtility__cctor_m46116445
l0c:__ZN2UI14CanvasRenderer13SyncVertexPtrER8JobFenceNS0_8SyncFlagE
x3:__Z35scripting_method_get_argument_count18ScriptingMethodPtr
Jra:__ZN18AssetBundleManager18SortPreloadObjectsER13dynamic_arrayIiLj4EEb
OLg:_UInt16_System_IConvertible_ToChar_m4055364664_AdjustorThunk
yfc:__Z20Gradient_CUSTOM_InitP12Il2CppObject
ihb:__ZN21ArchiveStorageCreator11StoreStreamEb
fzg:_ObjectReader_BlockRead_m2374879830
dqc:__Z48Register_UnityEngine_GUIUtility_Internal_ExitGUIv
tpj:__ZN14dense_hash_mapI10KeyWrapperINSt3__24pairIPK9FieldInfoP11Il2CppClassEEEj17ReflectionMapHashIS8_ENS9_14EqualsComparerINS1_8equal_toIS8_EEEENS1_9allocatorINS2_IKS9_jEEEEE15set_deleted_keyERSH_
Asd:_Byte_System_IConvertible_ToDouble_m4224320007
u1a:__ZL21CullDynamicObjectsJobP14CullingJobDataj
I_c:__ZN2UI15ClearCanvasDataER8JobFenceRNS_10CanvasDataE
aFc:__ZN15dense_hashtableINSt3__24pairIKNS1_IPK10Collider2DS4_EE11Collision2DEES5_NS2_23ColliderPairHashFunctorEN14dense_hash_mapIS5_S7_S9_NS0_8equal_toIS5_EE13stl_allocatorIS8_L18MemLabelIdentifier65ELi16EEE9SelectKeyESC_SF_ED2Ev
yDf:_IPAddress_ToString_m1462985652
HCd:_Convert_ToDateTime_m261774113
vPe:_ReadOnlyCollection_1_System_Collections_ICollection_CopyTo_m318855319_gshared
FYg:_MethodBase_GetMethodFromHandleNoGenericCheck_m4274264088
cgh:_Enumerator_get_CurrentKey_m1408186928_AdjustorThunk
F7a:__ZN14ManagerContext17InitializeClassesEv
Fth:_MaskUtilities_GetRectMasksForClip_m1540508301
eeb:__ZN19StreamedBinaryWriteILb0EE21TransferSTLStyleArrayINSt3__26vectorI14ConstantStringNS2_9allocatorIS4_EEEEEEvRT_17TransferMetaFlags
Ou:__ZN7mecanim5human20MaskHasRightFootGoalERKNS_6bitsetILj70EEE
hOb:__ZN18StreamedBinaryReadILb1EE21TransferSTLStyleArrayI31ArrayOfManagedObjectsTransfererEEvRT_17TransferMetaFlags
hse:_List_1_System_Collections_IList_IndexOf_m406088260_gshared
OPg:_WeakReference_get_Target_m1672141897
kff:_Kernel_DwordDivMod_m4066997639
aUc:_t1_hints_open
yQj:_access
Dfd:_X509Certificate_GetCertHash_m2299453268
Uad:_MD5CryptoServiceProvider__ctor_m457716966
fPi:_Transform_get_rotation_m1033555130
CEd:_Decimal_s64_m2965457432
q8b:__Z18TransformPoints3x4RK10Matrix4x4fPK8Vector3fjPS2_ji
Soc:__Z38Register_UnityEngine_GUIStyle_InitCopyv
CJ:__ZN4FMOD7Channel11getUserDataEPPv
aRc:_UNITY_tt_face_load_gasp
HQe:_ReadOnlyCollection_1_System_Collections_IList_Insert_m3650067527_gshared
QNc:_ft_ansi_stream_close
gm:_JS_Sound_SetPitch
hpg:__ZL69InputField_t1631627530_CustomAttributesCacheGenerator_m_TextComponentP21CustomAttributesCache
Qgj:_il2cpp_runtime_invoke_convert_args
dvc:__Z19TransferField_ArrayI8JSONRead27Converter_SimpleNativeClassI10RectOffsetEEvRK23StaticTransferFieldInfoR31RuntimeSerializationCommandInfoRT0_
GPh:_Enumerator_get_CurrentKey_m447338908_AdjustorThunk
Itf:_Context_get_SecurityProtocol_m1600902905
Vuj:__ZN6il2cpp6icalls8mscorlib6System2IO6MonoIO11GetFileStatEP12Il2CppStringPNS3_8FileStatEPi
BVa:__ZNK9ShaderLab9IntShader6GetTagE11ShaderTagIDb
U_a:__Z25CalculateShadowCasterCullbPK5PlaneRK10Matrix4x4fRK8Vector3fff9LightTypeS7_R16ShadowCasterCullPKb
xfj:_il2cpp_get_corlib
bad:_HMAC_HashCore_m1869699062
tQg:_Assembly_GetTypes_m1317253146
E_e:_Int16_System_IConvertible_ToType_m2901377575_AdjustorThunk
G0e:_Int64_System_IConvertible_ToSByte_m253213816_AdjustorThunk
f1c:__ZN2UI14CanvasRenderer11SetMaterialEP8Materiali
qUd:_MouseState_SetButtonState_m2329922363
x3e:_FileStream__ctor_m3815606687
nHj:_GC_freehblk
VVe:_NumberFormatter_NumberToString_m668979517
_Te:_ReadOnlyCollection_1_System_Collections_IList_Remove_m2507730234_gshared
oJa:__Z36GiveDebuggerChanceToAttachIfRequiredv
Oih:_Enumerator_System_Collections_IEnumerator_Reset_m2482663638_gshared
Xac:__ZN9Scripting35DestroyObjectFromScriptingImmediateEP6Objectb
Z0h:__Z93RuntimeInvoker_Il2CppObject_Byte_t3683104436_Il2CppObject_Int32_t2071877448_Int32_t2071877448PK10MethodInfoPvPS2_
ccg:__ZL53Rigidbody2D_t502193897_CustomAttributesCacheGeneratorP21CustomAttributesCache
iwg:_RemotingServices_GetRemoteObject_m3663391550
vZc:__ZN20TextRenderingPrivate22ScriptingTextGenerator9InitVertsEi
CUb:__ZN24GenerateTypeTreeTransfer8TransferINSt3__26vectorIN9ShaderLab20SerializedSubProgram12UAVParameterENS1_9allocatorIS5_EEEEEEvRT_PKc17TransferMetaFlags
xc:invoke_iiiiiiiiiiiiiii
nCj:__ZN6il2cpp2os6Thread33UnregisterCurrentThreadForCleanupEv
_1j:_emscripten_glIsRenderbuffer__wrapper
nMd:_Double_System_IConvertible_ToInt32_m549769450_AdjustorThunk
Y_c:__ZN2UI11CanvasGroup8TransferI19StreamedBinaryWriteILb0EEEEvRT_
llb:__ZNK20IntermediateRenderer8GetLayerEv
vcj:__ZN6il2cpp5utils9PathUtils7CombineIcEENSt3__212basic_stringIT_NS3_11char_traitsIS5_EENS3_9allocatorIS5_EEEERKSA_RKNS0_10StringViewIS5_EE
wrb:__ZN15QualitySettings8TransferI14SafeBinaryReadEEvRT_
H5i:__ZN14dense_hash_mapI10KeyWrapperIPK11Il2CppClassEPKcN6il2cpp5utils11PointerHashIS1_EENS4_14EqualsComparerINSt3__28equal_toIS3_EEEENSC_9allocatorINSC_4pairIKS4_S6_EEEEE13set_empty_keyERSI_
aZe:_TextInfo__ctor_m2782608694
GT:__ZN11UnityEngine15CloudWebService17WebFileDownloaderINS0_13WWWRestClientENS0_16WWWRestHeaderMapEE10InitializeERKN4core12basic_stringIcNS5_20StringStorageDefaultIcEEEESB_SB_
_Ki:_X509Store_LoadCertificate_m1082475046
o7e:_StringReader_CheckObjectDisposedException_m3099453260
aBf:_ListDictionary_System_Collections_IEnumerable_GetEnumerator_m2244736244
Xzj:__ZNSt3__26vectorIN6il2cpp2vm5Image20EmbeddedResourceDataENS_9allocatorIS4_EEE21__push_back_slow_pathIS4_EEvOT_
EMj:__ZN6il2cpp2os9FastMutexD2Ev
Oce:_Array_IndexOf_TisCustomAttributeTypedArgument_t1498197914_m3666284377_gshared
Mff:_Kernel_AddSameSign_m2332657679
t2:__ZN14SerializedFile10ReadObjectEx18ObjectCreationModebPPK8TypeTreePbR6Object
BEe:_Collection_1_System_Collections_IList_IndexOf_m3460849589_gshared
o8b:__ZN4Mesh12SetIndexDataEiiPKv16GfxPrimitiveTypei
Xsa:__ZN14dynamic_bitset6resizeEjb
bRd:_BaseInputModule_FindCommonRoot_m2696088443
st:__ZN7mecanim8skeleton16SkeletonPoseCopyIN4math4trsXES3_EEvPKNS0_13SkeletonPoseTIT_EEPNS4_IT0_EE
I5i:__ZN14dense_hash_mapI10KeyWrapperIPK11Il2CppClassEPKcN6il2cpp5utils11PointerHashIS1_EENS4_14EqualsComparerINSt3__28equal_toIS3_EEEENSC_9allocatorINSC_4pairIKS4_S6_EEEEE15set_deleted_keyERSI_
hua:__ZN9GfxDevice34SetStencilRefWhenStencilWasSkippedEi
F6c:__ZN11UnityEngine7Connect13ConnectConfig20RestoreTimeoutConfigERK13dynamic_arrayIiLj4EEjRS3_
wc:invoke_fi
cme:_Array_InternalArray__get_Item_TisDecimal_t724701077_m4156246600_gshared
MV:__ZL21InternalAssertConsolePKcz
uc:invoke_ff
Gd:_emscripten_glVertexAttrib3f
Olj:__ZN30dense_hashtable_const_iteratorINSt3__24pairIK10KeyWrapperINS1_IPK11Il2CppImageP11Il2CppClassEEEjEES9_17ReflectionMapHashIS8_EN14dense_hash_mapIS9_jSD_NS9_14EqualsComparerINS0_8equal_toIS8_EEEENS0_9allocatorISB_EEE9SelectKeyESI_SK_EppEv
eud:_Char_CompareTo_m3044885427
Maa:__Z11UpdateInputv
Qxe:_List_1_System_Collections_IList_IndexOf_m2887559165_gshared
hjh:_ValueCollection__ctor_m1825701219_gshared
YLc:__ZN20TextRenderingPrivate8TextMesh11ApplyToMeshEv
cAf:_SslStreamBase_get_CanRead_m3061866682
oXj:_emscripten_glDrawRangeElements__wrapper
B9i:__ZN15dense_hashtableINSt3__24pairIK10KeyWrapperIPK11Il2CppClassEPKcEES6_N6il2cpp5utils11PointerHashIS3_EEN14dense_hash_mapIS6_S9_SE_NS6_14EqualsComparerINS0_8equal_toIS5_EEEENS0_9allocatorISA_EEE9SelectKeyESJ_SL_E15insert_noresizeERKSA_
VDb:__Z28scripting_class_is_valuetype17ScriptingClassPtr
gbb:__ZNSt3__25dequeI10InputEventNS_9allocatorIS1_EEE19__add_back_capacityEv
Lpe:_Enumerator_System_Collections_IEnumerator_Reset_m336811426_AdjustorThunk
bSa:__ZN13ComputeShader13SetValueParamERKN9ShaderLab16FastPropertyNameEiPKv
hvb:__ZN14BlendShapeDataD2Ev
_aj:__ZN6il2cpp2vm13MetadataCache25GetIndexForTypeDefinitionEPK11Il2CppClass
LCa:__ZL18ProgramUniform3uivPK7ApiGLESjiihPKv
zqd:_Attribute_IsDefined_m1350918959
Q1c:__Z47CanvasRenderer_Set_Custom_PropHasPopInstructionP12Il2CppObjecth
k$g:_MonoProperty_get_DeclaringType_m4236036432
X3c:__ZN21UnityAnalyticsManager15ThreadedCleanupEv
pCa:__ZN5Image8SetImageEii13TextureFormatb
EDb:__ZN17MessageIdentifier21GetRegisteredMessagesEv
$Bh:_U3CGetEnumeratorU3Ec__Iterator0_System_Collections_IEnumerator_get_Current_m480171694_gshared
c9d:_Array_InternalArray__ICollection_Contains_TisContentType_t1028629049_m2321684690_gshared
aU:__Z13RegisterClassI23CloudWebServicesManagerEvv
bDj:__ZN6il2cpp2vm5Array3NewEP11Il2CppClassi
Pyj:__GLOBAL__sub_I_Image_cpp
W8e:_Math_Sin_m2320256962
jTe:_ReadOnlyCollection_1_System_Collections_Generic_IListU3CTU3E_Insert_m2409570138_gshared
bxe:_List_1_Add_m2123823603_gshared
via:__ZNSt3__27__sort5IRPFbRKNS_4pairIN9ShaderLab16FastPropertyNameEfEES6_EPS4_EEjT0_SB_SB_SB_SB_T_
hIc:__ZNK11Rigidbody2D26GetTypeInfoVirtualInternalEv
kp:establishStackSpace
AWd:_CanvasUpdateRegistry__ctor_m4037208045
Obc:__ZN8Material25DidModifyShaderKeywordSetEv
tEj:__ZN14dense_hash_mapI10KeyWrapperIPK19Il2CppGenericMethodEP10MethodInfoN6il2cpp8metadata23Il2CppGenericMethodHashENS4_14EqualsComparerINS8_26Il2CppGenericMethodCompareEEENSt3__29allocatorINSD_4pairIKS4_S6_EEEEE15set_deleted_keyERSG_
ZHb:__Z29Transfer_Blittable_ArrayFieldI14SafeBinaryRead4AABBEvRT_R9ArrayInfoRK23StaticTransferFieldInfo
JQe:_ReadOnlyCollection_1_System_Collections_IList_RemoveAt_m2396335261_gshared
K6g:_GUIStyle_CalcHeight_m1685124037
q_d:_Dropdown_set_captionImage_m1952025570
llg:__ZL56g_UnityEngine_UI_Assembly_CustomAttributesCacheGeneratorP21CustomAttributesCache
ljf:_RSAManaged_remove_KeyGenerated_m452989252
Tec:__Z46Register_UnityEngine_RectOffset_get_horizontalv
gnb:__ZN18DelayedCallManager8ClearAllEv
d$:__ZZN15DirectorManager15InitializeClassEvEN47FixedUpdateDirectorFixedUpdatePostPhysicsstruct7ForwardEv
n0a:__ZNK25RenderPrePassObjectSorterclERK16RenderObjectDataS2_
sOb:__Z22TransferField_NonArrayI18StreamedBinaryReadILb1EE27Converter_SimpleNativeClassI8GUIStyleEEvRK23StaticTransferFieldInfoR31RuntimeSerializationCommandInfoRT0_
te:_Mix_LoadWAV_RW
g5b:__ZN15DirectorManager14ConnectionPool8AllocateEi
GPi:_Enumerator__ctor_m147705785
br:__ZNSt3__27__sort4IRNS_6__lessIN11UnityEngine9Animation13CachedBindingES4_EEPS4_EEjT0_S8_S8_S8_T_
oxj:__ZN6il2cpp2gcL12alloc_handleEPNS0_10HandleDataEP12Il2CppObjectb
k$j:_emscripten_glGetAttribLocation__wrapper
DXd:_CanvasScaler_HandleConstantPhysicalSize_m687057631
Lgj:_il2cpp_object_get_virtual_method
G0j:b98
APa:_UNITY_png_write_flush
flf:_PKCS12_Encrypt_m1401341763
L4:__ZL16ReadTypeTreeImplILb1EEbR8TypeTreeRK16TypeTreeIteratorRPKhS6_i
mEc:__ZN19CollisionListener2D15DestroyContactsEP10Collider2D
C0j:b96
Le:_glBlendEquationSeparate
$dd:_SHA384_Create_m1970724783
qm:_emscripten_glDeleteVertexArrays
xxa:__ZN13GfxDeviceGLES17SetComputeUniformE12ObjectHandleI18ComputeProgram_TagPvER18ComputeShaderParamjPKv
Muj:__ZN6il2cpp6icalls8mscorlib6System2IO6MonoIO5CloseE12Il2CppIntPtrPi
n1j:_emscripten_glValidateProgram__wrapper
jif:_SmallXmlParser_ReadComment_m1117342068
Se:_emscripten_glUniform3fv
_Bb:__ZN20ArchiveStorageHeader41GetSizeRequiredToParseHeaderAndBlocksInfoERKNS_6HeaderE
Xeb:__Z39GetDefaultApplicationIdentifierForCachev
jhc:__Z35MonoBehaviour_CUSTOM_StartCoroutineP12Il2CppObjectP12Il2CppStringS0_
hga:__ZN9ShaderLab7Program14RemoveVariantsERK13dynamic_arrayI16ShaderKeywordSetLj4EE
Etj:__ZN6il2cpp2vm9Exception20GetArgumentExceptionEPKcS3_
Y8d:_Array_InternalArray__ICollection_Contains_TisContactPoint2D_t3659330976_m474619266_gshared
dwc:__Z29Transfer_Blittable_ArrayFieldI8JSONReadiEvRT_R9ArrayInfoRK23StaticTransferFieldInfo
t8h:__Z114RuntimeInvoker_Boolean_t3825574718_Il2CppObject_Il2CppObject_Single_t2076509932_SByte_t454417549_Int32_t2071877448PK10MethodInfoPvPS2_
x$j:_glDrawArrays__wrapper
jO:__ZN9AudioClip27IsFormatSupportedByPlatformERKN4core12basic_stringIcNS0_20StringStorageDefaultIcEEEE
qUb:__ZN9ShaderLab26SerializedShaderDependency8TransferI24GenerateTypeTreeTransferEEvRT_
uRc:_UNITY_FT_Match_Size
sYd:_ColorBlock_Equals_m738243050
Qv:__ZN7mecanim20CreateValueArrayMaskEPKNS_18ValueArrayConstantERNS_6memory9AllocatorE
sRj:_free
FBf:_NameObjectCollectionBase_GetEnumerator_m646294968
A5c:__ZN11UnityEngine7Connect14AppUpdateEventC2Ev
n5a:__ZNK10GameObject26GetTypeInfoVirtualInternalEv
Cjb:__ZN12ImageFilters17RemoveImageFilterERK11ImageFilter
k8i:__ZN15dense_hashtableINSt3__24pairIK10KeyWrapperI13dynamic_arrayIPK10Il2CppTypeLj4EEEPFvvEEES8_N6il2cpp8metadata19Il2CppSignatureHashEN14dense_hash_mapIS8_SB_SF_NS8_14EqualsComparerINSE_22Il2CppSignatureCompareEEENS0_9allocatorISC_EEE9SelectKeyESJ_SL_E4findERS9_
rJa:__Z32AddPathRemapsForBuiltinResourcesRKN4core12basic_stringIcNS_20StringStorageDefaultIcEEEE
O7g:_IL2CPPStructAlignmentAttribute__ctor_m2555798229
MNi:_TextGenerator_GetCharacters_m2554471692
fBb:__ZN3WWW6CreateEPKcS1_iRKNSt3__23mapIN4core12basic_stringIcNS4_20StringStorageDefaultIcEEEES8_NS2_4lessIS8_EENS2_9allocatorINS2_4pairIKS8_S8_EEEEEEb7Hash128j
ehf:_DSAManaged_remove_KeyGenerated_m61544860
h$:__ZZN15DirectorManager15InitializeClassEvEN39PostLateUpdateDirectorRenderImagestruct7ForwardEv
_Ib:__ZL26Transfer_SimpleNativeClassI17RemapPPtrTransfer17AnimationCurveTplIfELb0EEvRK29SerializationCommandArgumentsR31RuntimeSerializationCommandInfo
KIi:_KeyUsageExtension_Decode_m4115739726
sm:_glDeleteTransformFeedbacks
xf:_JS_WebRequest_Send
rGj:__ZN6il2cpp2os4Time31GetTicks100NanosecondsMonotonicEv
pDj:__ZNSt3__26__treeINS_12basic_stringIcNS_11char_traitsIcEENS_9allocatorIcEEEENS_4lessIS6_EENS4_IS6_EEE16__construct_nodeIJRKS6_EEENS_10unique_ptrINS_11__tree_nodeIS6_PvEENS_22__tree_node_destructorINS4_ISH_EEEEEEDpOT_
oBd:_Stack_Clear_m771767447
L0e:_Int64_System_IConvertible_ToUInt16_m2638682734
GVf:__ZL102ChannelServices_t2007814595_CustomAttributesCacheGenerator_ChannelServices_RegisterChannel_m3832858065P21CustomAttributesCache
WZj:_emscripten_glGenRenderbuffers__wrapper
uSj:__ZNK10__cxxabiv117__class_type_info24process_found_base_classEPNS_19__dynamic_cast_infoEPvi
cTi:_Nullable_1_Equals_m1889119397_AdjustorThunk
c6g:_GUIStyle_Draw_m3134455812
fbj:__ZN6il2cpp2vm13MetadataCache21GetFieldInfoFromIndexEj
fai:__Z98RuntimeInvoker_Void_t1841601450_Int32_t2071877448_Int32_t2071877448_Int32_t2071877448_Il2CppObjectPK10MethodInfoPvPS2_
Tuh:_Raycast2DCallback_BeginInvoke_m4219004388
CYh:__Z57RuntimeInvoker_Il2CppObject_Int64_t909078037_Il2CppObjectPK10MethodInfoPvPS2_
sQa:_UNITY_png_write_PLTE
cFj:__GLOBAL__sub_I_String_cpp
IP:__ZN5physx14PxLightCpuTaskD2Ev
Dq:__ZNSt3__26vectorIN4core12basic_stringIcNS1_20StringStorageDefaultIcEEEENS_9allocatorIS5_EEE6assignINS_11__wrap_iterIPS5_EEEENS_9enable_ifIXaasr21__is_forward_iteratorIT_EE5valuesr16is_constructibleIS5_NS_15iterator_traitsISE_E9referenceEEE5valueEvE4typeESE_SE_
Dki:_AudioSettings_InvokeOnAudioConfigurationChanged_m3225073778
tfj:_il2cpp_init
m_c:__ZNSt3__26__treeIPN2UI14CanvasRendererENS_4lessIS3_EENS_9allocatorIS3_EEE7destroyEPNS_11__tree_nodeIS3_PvEE
yxc:__Z20b2TestSegmentSegmentRK6b2Vec2S1_S1_S1_RS_Rf
UHc:__ZN10ClipperLib13CleanPolygonsERNSt3__26vectorINS1_INS_8IntPointENS0_9allocatorIS2_EEEENS3_IS5_EEEEd
N3:__ZNK15dense_hashtableINSt3__24pairIKPKcPK4RTTIEES3_N11TypeManager23ConstCharPtrHashFunctorEN14dense_hash_mapIS3_S7_SA_NS9_19ConstCharPtrEqualToE13stl_allocatorIS8_L18MemLabelIdentifier6ELi16EEE9SelectKeyESC_SF_E23find_position_with_hashERS4_j
Lfc:__Z35Register_UnityEngine_Screen_get_dpiv
gah:_Mesh_get_normals_m1837187359
Iuc:__ZN8JSONRead8TransferIxEEvRT_PKc17TransferMetaFlagsb
w0:__ZN13SpeedTreeWind7AdvanceEbd
e0e:_Int32_TryParse_m2941352213
uza:__ZN18GlslGpuProgramGLES19ApplyGpuProgramGLESERK20GpuProgramParametersPKh
Ybc:__ZN9Transform16SetLocalPositionERK8Vector3f
w2d:_LayoutGroup_GetTotalMinSize_m2600700952
yPb:__Z15Transfer_StringI18StreamedBinaryReadILb0EELb0EEvRK29SerializationCommandArgumentsR31RuntimeSerializationCommandInfo
qK:__ZN12SoundManagerC2Ev
_Qc:_UNITY_tt_face_free_name
I2j:_emscripten_glSampleCoverage__wrapper
Tje:_Array_Sort_TisUICharInfo_t3056636800_m37864585_gshared
Qri:_AnimationOffsetPlayable_get_position_m1047192220
d0j:_emscripten_glGetUniformfv__wrapper
EDa:__ZN14DataBufferGLES3MapEjjj
iKh:_InternalEnumerator_1_System_Collections_IEnumerator_get_Current_m771161214_gshared
Mo:FUNCTION_TABLE_fidi
gwb:__ZN14SpriteRenderer23VirtualRedirectTransferER19StreamedBinaryWriteILb0EE
S_b:__Z13RegisterClassI9TransformEvv
F9h:__Z132RuntimeInvoker_Il2CppObject_Ray_t2469606224_RaycastHitU26_t1969197280_Single_t2076509932_Int32_t2071877448_Il2CppObject_Il2CppObjectPK10MethodInfoPvPS2_
gia:__ZN18UnityPropertySheet11UnityTexEnv8TransferI19StreamedBinaryWriteILb0EEEEvRT_
Kvi:_ResourceInfo_t3933049236_marshal_pinvoke_back
GJj:_GC_make_descriptor
Mlj:__ZNK15dense_hashtableINSt3__24pairIK10KeyWrapperINS1_IPK11Il2CppImageP11Il2CppClassEEEjEES9_17ReflectionMapHashIS8_EN14dense_hash_mapIS9_jSD_NS9_14EqualsComparerINS0_8equal_toIS8_EEEENS0_9allocatorISB_EEE9SelectKeyESI_SK_E5beginEv
Cfj:_il2cpp_array_new
pee:_Array_InternalArray__ICollection_Add_TisDictionaryEntry_t3048875398_m279246399_gshared
Xxi:_ChannelServices_GetCurrentChannelInfo_m4080942430
HI:__ZN4FMOD3DSP8getInputEiPPS0_PPNS_13DSPConnectionE
j4:__ZN20dynamic_block_vectorI14FileIdentifierE5clearEv
pvb:__ZN10MeshFilter23VirtualRedirectTransferER17RemapPPtrTransfer
XPc:_ft_outline_glyph_bbox
YXi:_IndexedSet_1_RemoveAll_m2736534958_gshared
ROc:_UNITY_FT_Done_Library
KDg:_HashAlgorithm__ctor_m3777008390
JBh:_VertexHelper__cctor_m1150948588
B0c:__ZN2UI13CanvasManager17EmitDataForCameraEP6Camera
Gyc:__Z16b2CollideCirclesP10b2ManifoldPK13b2CircleShapeRK11b2TransformS3_S6_
z9h:__Z70RuntimeInvoker_Single_t2076509932_Int32_t2071877448_Single_t2076509932PK10MethodInfoPvPS2_
Bki:_PCMSetPositionCallback_BeginInvoke_m2507142524
_ee:_Array_InternalArray__ICollection_Add_TisContactPoint2D_t3659330976_m1781705858_gshared
Aic:__Z44Register_UnityEngine_Material_GetTextureImplv
SLc:__ZN13sorted_vectorIN20TextRenderingPrivate8FontImpl13CharacterInfoENSt3__24lessIS2_EE13stl_allocatorIS2_L18MemLabelIdentifier34ELi16EEE10insert_oneERKS2_
dPi:_Transform_INTERNAL_set_localPosition_m432504087
N$j:_glUniform3uiv__wrapper
Eaa:__ZL8MainLoopv
pRg:_Binder_ConvertArgs_m2999223281
XUg:_TypeBuilder_IsDefined_m3186251655
m2c:__Z47Register_UnityEngine_CanvasRenderer_SetMaterialv
Hyi:_ConfigHandler_ValidatePath_m3188987489
kxc:__ZN11UnityEngine9Analytics16StartupTimeEvent23SetAssembliesTimingInfoEyy
DCc:__ZN19CompositeCollider2D22QueryCompositeColliderEPK10Collider2DPK11Rigidbody2D
HOc:__Z26CleanupTextRenderingModulev
Hbf:_NumberFormatter_get_IntegerDigits_m3972411141
Mvb:__ZThn32_N12MeshRendererD1Ev
$ca:__ZN13RenderTexture23VirtualRedirectTransferER19StreamedBinaryWriteILb0EE
Wgh:_ShimEnumerator_MoveNext_m2728191736_gshared
ONg:_UInt64_System_IConvertible_ToInt32_m930227577_AdjustorThunk
zFj:__ZN6il2cpp2vm13ComObjectBase17GetMarshalSizeMaxERK10Il2CppGuidPvjS5_jPj
x2b:__ZN9TransformC2E18MemLabelIdentifier18ObjectCreationMode
qRj:_truncate
aVb:__ZN9ShaderLab27SerializedShaderVectorValue8TransferI18StreamedBinaryReadILb0EEEEvRT_
nqb:__ZN8Renderer21RendererBecameVisibleEv
cSe:_ReadOnlyCollection_1_System_Collections_Generic_ICollectionU3CTU3E_Clear_m2503787861_gshared
MQj:___stpncpy
sHe:_Collection_1_System_Collections_IList_Add_m669232520_gshared
oAe:_List_1_RemoveAt_m1843849279_gshared
W$:__ZN10MemoryPool16StaticInitializeEPv
q9:__ZN11TypeManager21CleanupGlobalInstanceEv
DLg:_TypedReference_GetHashCode_m3498861551_AdjustorThunk
B3c:__ZN11UnityEngine9Analytics15UserCustomEvent3AddEPKcRKN4core12basic_stringIcNS4_20StringStorageDefaultIcEEEE
N:Math_atan
yij:__ZNSt3__212basic_stringIcNS_11char_traitsIcEENS_9allocatorIcEEE6__initIPKcEENS_9enable_ifIXsr21__is_forward_iteratorIT_EE5valueEvE4typeESA_SA_
oH:__ZNK10SampleClip11GetResourceEv
kKa:__ZN4core12basic_stringIcNS_20StringStorageDefaultIcEEE6resizeEj
xnc:__Z43Register_UnityEngine_Event_set_displayIndexv
wMh:_InternalEnumerator_1_System_Collections_IEnumerator_get_Current_m2821735692_AdjustorThunk
bKc:__GLOBAL__sub_I_CmEventProfiler_cpp
Jof:_PrimalityTests_GetSPPRounds_m873706010
NTe:_ReadOnlyCollection_1_System_Collections_Generic_IListU3CTU3E_Insert_m584948331_gshared
uih:_Enumerator_Dispose_m1323464986_AdjustorThunk
Xhb:__ZN17GlobalGameManager23VirtualRedirectTransferER24GenerateTypeTreeTransfer
C5e:_MemoryStream_ToArray_m547789004
q7c:__ZN19UnityConnectServiceD0Ev
P4e:_MonoIO_SetLength_m1019790894
HOg:_UIntPtr_ToString_m387842486
Wjb:__ZNSt3__26vectorIfNS_9allocatorIfEEE8__appendEjRKf
j6c:__ZN11UnityEngine15PlatformWrapper21GetCopyTextureSupportEv
x0d:_Graphic_get_depth_m3526566553
ZCj:__ZN6il2cpp2vm6Method11GetFullNameEPK10MethodInfo
_O:__ZN11AudioModule27IsFormatSupportedByPlatformEPKc
Rxd:_CollectionBase_get_InnerList_m44314156
rNd:_Enum_System_IConvertible_ToUInt32_m3575456858
bpg:__ZL61Image_t2042527209_CustomAttributesCacheGenerator_m_FillAmountP21CustomAttributesCache
i2g:_WindowFunction_BeginInvoke_m322627481
tib:__ZNSt3__26vectorI17SortingLayerEntryNS_9allocatorIS1_EEE6assignINS_11__wrap_iterIPS1_EEEENS_9enable_ifIXaasr21__is_forward_iteratorIT_EE5valuesr16is_constructibleIS1_NS_15iterator_traitsISA_E9referenceEEE5valueEvE4typeESA_SA_
eBc:__Z14b2PairLessThanRK6b2PairS1_
Qcc:__Z48Register_UnityEngine_AsyncOperation_set_priorityv
Qnb:__ZN9Texture2D5ResetEv
Yvc:__Z19TransferField_ArrayI8JSONRead16Converter_StringEvRK23StaticTransferFieldInfoR31RuntimeSerializationCommandInfoRT0_
QCc:__ZN15b2WheelJointDef10InitializeEP6b2BodyS1_RK6b2Vec2S4_
bcb:__ZNK25ThreadsafeLinearAllocator22GetAllocatedMemorySizeEv
KUc:_cff_size_request
Qmb:__ZN15DirectorManager14ConnectionPool12SwitchBucketEP14ConnectionList
HKg:_Type_EqualsInternal_m266086934
A_c:__ZN2UI11CompareFuncEPNS_6CanvasES1_
vJ:__ZN4FMOD7Channel11set3DSpreadEf
TMj:__ZN6il2cpp2os6Memory14AlignedReAllocEPvjj
W:Math_fround
jUc:_pshinter_get_t1_funcs
Zpa:__ZN24GenerateTypeTreeTransfer16TransferTypelessEPjPKc17TransferMetaFlags
kJg:_TimeSpan_get_TotalMinutes_m1645177229
Qjf:_SymmetricTransform_InternalTransformBlock_m55428483
MCa:__ZL18ProgramUniform4uivPK7ApiGLESjiihPKv
daf:_LongComparer_Compare_m398047722
Lph:_EqualityComparer_1_System_Collections_IEqualityComparer_Equals_m2170611288_gshared
sqd:_Attribute_CheckParameters_m1754681684
WEg:_UnicodeEncoding_GetByteCount_m2761661599
TYa:__ZN10builtintex21GetAttenuationTextureEv
kn:FUNCTION_TABLE_viiiiiiiiiiiiiii
Eyh:_Selectable_TriggerAnimation_m3096883407
I8b:__ZNK4Mesh19CanAccessFromScriptEv
CW:__Z15GetGraphicsCapsv
lya:__ZN7ApiGLES15BindVertexArrayEN2gl6HandleILNS0_10ObjectTypeE3EEE
ay:__ZN17AnimationPlayable17GetAnimationClipsER13dynamic_arrayIP13AnimationClipLj4EE
g$h:__Z153RuntimeInvoker_Int32_t2071877448_Il2CppObject_Int32_t2071877448_Int32_t2071877448_Int32_t2071877448_SByte_t454417549_SByte_t454417549_Int32U26_t455636984PK10MethodInfoPvPS2_
CZa:__Z20IntersectionAABBAABBRK10MinMaxAABBS1_PS_
_mj:__ZN30dense_hashtable_const_iteratorINSt3__24pairIK10KeyWrapperINS1_IPK9EventInfoP11Il2CppClassEEEjEES9_17ReflectionMapHashIS8_EN14dense_hash_mapIS9_jSD_NS9_14EqualsComparerINS0_8equal_toIS8_EEEENS0_9allocatorISB_EEE9SelectKeyESI_SK_EppEv
QJg:_TimeSpan_op_GreaterThan_m2202243191
NZb:__ZN18BackgroundJobQueue29ScheduleMainThreadJobInternalEPFvPvES0_
QGf:_X509Chain_IsSelfIssued_m2009755967
R_c:__ZN2UI11CanvasGroup23VirtualRedirectTransferER24GenerateTypeTreeTransfer
rFb:__Z18Transfer_BlittableI14SafeBinaryReadLb1EhEvRK29SerializationCommandArgumentsR31RuntimeSerializationCommandInfo
IHd:_DateTime_GetTimeMonotonic_m4135038456
BEg:_StringBuilder_Append_m3636508479
Spf:_MD4_Create_m3565183915
hc:invoke_viifff
O1:__Z22DestroyObjectHighLevelP6Objectb
Gzc:__ZNK12b2MouseJoint10GetAnchorBEv
PWa:__Z26BeginRenderQueueExtractionR15RenderNodeQueuePK16RendererCullDataRK13CullingOutputPK12LODDataArray15ExtractionFlagsP18JobBatchDispatcher
_ti:_AnimatorControllerPlayable_GetParametersArrayInternal_m851504719
RLc:__ZNK13TextRendering4Font10GetTextureEv
obd:_SymmetricAlgorithm_set_KeySize_m270664177
pj:_emscripten_glVertexAttrib3fv
jtg:__ZL49Shadow_t4269599528_CustomAttributesCacheGeneratorP21CustomAttributesCache
usj:__ZN6il2cpp6icalls8mscorlib6System9Threading6Thread16SetName_internalEP12Il2CppThreadP12Il2CppString
tj:_glBeginTransformFeedback
qvf:_Context_ClearKeyInfo_m205678623
Sqa:__ZN18JobBatchDispatcherC2E11JobPriorityi
RHc:__ZN23ColliderTilingExtension10IsTilingOnEv
qlc:__ZN8GUIStyle14GetBuiltinFontEv
Lwa:__ZN9GfxDevice13EndFrameStatsEv
V1b:__Z7Empty2DP9Texture2DPhiiii
L1e:_IntPtr_ToString_m1500137303_AdjustorThunk
JUd:_RaycasterManager__cctor_m3713028899
xwe:_List_1_CheckCollection_m1228076404_gshared
Xmi:_CanvasRenderer_CreateUIVertexStreamInternal_m2886336395
jSi:_SymmetricTransform_ThrowBadPaddingException_m2553969731
TL:__ZL34StaticDestroyAudioCustomFilterRootPv
LSa:__ZN19ComputeShaderKernelD2Ev
nZb:__ZN10systeminfo21GetTemporaryCachePathEv
y2b:__ZZN8Renderer15InitializeClassEvEN28FunctorImpl_138kLayerChanged4CallEPviR11MessageData
bKe:_Collection_1_IsValidItem_m2164075061_gshared
exd:_SynchronizedArrayListWrapper_Sort_m494386848
jwc:__ZN9rapidjson12PrettyWriterI16TempBufferWriterNS_4UTF8IcEES3_13JSONAllocatorE12PrettyPrefixENS_4TypeE
rvf:_Context_DecodeProtocolCode_m4051353560
T$h:__Z81RuntimeInvoker_Void_t1841601450_Il2CppObject_Double_t4078015681_Int32_t2071877448PK10MethodInfoPvPS2_
PWb:__ZN12ScriptMapper8TransferI14SafeBinaryReadEEvRT_
jvf:_Context_set_ClientWriteKey_m1137238126
nKb:__Z18Transfer_BlittableI24GenerateTypeTreeTransferLb1E10Matrix4x4fEvRK29SerializationCommandArgumentsR31RuntimeSerializationCommandInfo
YFi:_Expression_GetFixedWidth_m2900825908
tD:__Z10SetLocalTR15TransformAccessRKN4math7_float3ERKNS0_7_float4E
OZi:_GenericEqualityComparer_1_Equals_m1663005117_gshared
Cni:_Color_ToString_m4028093047_AdjustorThunk
kTg:_ILGenerator_Mono_GetCurrentOffset_m3553856682
ctc:__ZN9JSONWrite8TransferI10Matrix4x4fEEvRT_PKc17TransferMetaFlags
PMf:__ZL58Decimal_t724701077_CustomAttributesCacheGenerator_MinValueP21CustomAttributesCache
cWc:_cf2_hintmap_map
Qqe:_Enumerator_VerifyState_m3639069574_AdjustorThunk
tVf:__ZL50_Module_t2144668161_CustomAttributesCacheGeneratorP21CustomAttributesCache
PHb:__ZN15SerializeTraitsI5RectTIfEE8TransferI14SafeBinaryReadEEvRS1_RT_
l9g:_Mathf_CeilToInt_m2672598779
Tra:__ZNK14SerializedFile15GetTypeIfExistsEx
mjc:__Z41Register_UnityEngine_Texture_get_wrapModev
DNc:_UNITY_FT_Raccess_Get_DataOffsets
IIf:_X509Extension_CopyFrom_m2644634650
x5b:__ZN14PlayableOutputC2EjP13PlayableGraph
zqb:__ZThn32_NK8Renderer11GetMaterialEi
lVb:__ZN9ShaderLab20SerializedSubProgram8TransferI19StreamedBinaryWriteILb0EEEEvRT_
l4c:__Z13RegisterClassI21UnityAnalyticsManagerEvv
wZf:__ZL118SecurityManager_t3191249573_CustomAttributesCacheGenerator_SecurityManager_t3191249573____SecurityEnabled_PropertyInfoP21CustomAttributesCache
bue:_List_1_System_Collections_IList_Insert_m813883425_gshared
mxi:_SafeHandle_Dispose_m3871883741
mk:_unsetenv
_ta:__ZN9GfxDevice29GetMinimumNodesPerGraphicsJobEv
yub:__ZN17BlendShapeChannel8TransferI24GenerateTypeTreeTransferEEvRT_
l1g:_GameObject_SendMessage_m71956653
Mdh:_Rect_set_yMin_m734445288_AdjustorThunk
aJj:_GC_init_size_map
rVh:__Z131RuntimeInvoker_Void_t1841601450_Int32_t2071877448_Il2CppObject_Il2CppObject_Il2CppObject_Il2CppObject_Il2CppObject_SByte_t454417549PK10MethodInfoPvPS2_
D$:__ZN15DirectorManager17OnSampleFixedTimeEv
M1a:__ZNK13RendererScene21GetDynamicObjectCountEv
Cih:_Enumerator_System_Collections_IEnumerator_get_Current_m1805365227_AdjustorThunk
UGj:_GC_is_black_listed
Q4d:_InputField_set_caretSelectPositionInternal_m2063243072
RKb:__ZN24GenerateTypeTreeTransfer32TransferSTLStyleArrayWithElementI23ManagedObjectTransfererEEvRT_17TransferMetaFlags
ALh:_InternalEnumerator_1_System_Collections_IEnumerator_get_Current_m3043347404_AdjustorThunk
H4e:_WriteDelegate_BeginInvoke_m2985235908
VId:_DateTimeOffset_get_Offset_m2335492074_AdjustorThunk
Bsi:_AnimatorControllerPlayable_INTERNAL_CALL_SetBoolID_m2987425503
ieh:_RectOffset_Cleanup_m3198970074
dpc:__Z42Register_UnityEngine_GUIStyle_set_wordWrapv
WOc:_UNITY_FT_Destroy_Class_tt_driver_class
zXh:__Z56RuntimeInvoker_Il2CppObject_StreamingContext_t1417235061PK10MethodInfoPvPS2_
u$e:_Int32_System_IConvertible_ToChar_m719315943_AdjustorThunk
dNj:__ZN6il2cpp6icalls8mscorlib6System7Runtime8Remoting16RemotingServices16GetVirtualMethodEP20Il2CppReflectionTypeP22Il2CppReflectionMethod
qCi:_Match__ctor_m478172746
edc:__Z42Register_UnityEngine_Behaviour_get_enabledv
Z8e:_Math_Pow_m3099781906
X5g:_GUIStyle_set_font_m312124587
Ahj:__ZN6il2cpp2vm14TypeNameParser23ParseNestedTypeOptionalERi
Kaf:_MonoType_ReorderParamArrayArguments_m979187413
Cnf:_BigInteger_ToString_m1842353154
DMj:__ZN6il2cpp2os13FastMutexImplC2Ev
g5c:__ZN22BaseUnityConnectClient14QueueCoreEventERN11UnityEngine15CloudWebService17CloudServiceEventEb
REh:_InternalEnumerator_1_get_Current_m2882946014_gshared
DAb:__ZN30RuntimeInitializeOnLoadManager9ClassInfo8TransferI14SafeBinaryReadEEvRT_
Rwi:_GCHandle_Equals_m170815541_AdjustorThunk
a_a:__ZL13RenderCastersiRK8Vector3fS1_RK13ShadowJobDataR17ShaderPassContextRKNSt3__26vectorI16ShadowCasterData13stl_allocatorIS9_L18MemLabelIdentifier2ELi16EEEERKNS8_I20ShadowCasterPartDataSA_ISG_LSB_2ELi16EEEERK15RenderNodeQueuebPKj
ll:_emscripten_glGetShaderInfoLog
mij:__ZNSt3__26vectorIiNS_9allocatorIiEEE8allocateEj
p_f:__ZL100CompressedStack_t1568001503_CustomAttributesCacheGenerator_CompressedStack_GetObjectData_m2387204186P21CustomAttributesCache
bcd:_RIPEMD160Managed_Compress_m3844168032
fJd:_DBNull_System_IConvertible_ToInt32_m3596596664
h$e:_Int16_ToString_m1247017262_AdjustorThunk
reh:_RectTransform_get_anchorMax_m3816015142
CRc:_UNITY_ft_glyphslot_set_bitmap
yCc:__ZN14b2PolygonShape3SetEPK6b2Vec2i
L2:__ZN24GenerateTypeTreeTransfer18SetScriptingObjectE18ScriptingObjectPtri
Eeh:_RectTransform_INTERNAL_get_pivot_m3003734630
L$e:_Int32_System_IConvertible_ToType_m573330549_AdjustorThunk
YRg:_CustomAttributeTypedArgument_Equals_m1555989603
WBj:__ZN6il2cpp2os6ThreadC2EPNS0_10ThreadImplE
jZe:_TextInfo_ToUpper_m299550697
Wib:__Z29FindReflectionProbeFromAnchorP9TransformRK4AABBRS1_RsS5_
eQd:_CultureInfo_insert_into_shared_tables_m348522444
fLf:_Interval_Merge_m1170166798
Ptb:__ZN14SafeBinaryRead21TransferSTLStyleArrayI13dynamic_arrayI13BoneInfluenceLj16EEEEvRT_17TransferMetaFlags
_Xc:_Read_CVT_Stretched
gej:__ZN6il2cpp6icalls8mscorlib6System18CollectTypeMethodsINS_5utils10functional10TrueFilterEEEvP11Il2CppClassPKS7_jRKT_RNSt3__26vectorIPK10MethodInfoNSE_9allocatorISI_EEEERA65535_b
Oaa:__Z14SetPlayerPause11PlayerPauseb
ZQi:_Vector3_op_Equality_m305888255
y$d:_FontData_get_defaultFontData_m3296571046
i5d:_InputField_InPlaceEditing_m1040314765
l_:__Z30scripting_stack_trace_info_for21ScriptingExceptionPtrR14StackTraceInfo
lWj:_glCompressedTexSubImage3D__wrapper
oJg:_TimeSpan_Add_m3228293154_AdjustorThunk
kmj:__ZN15dense_hashtableINSt3__24pairIK10KeyWrapperINS1_IPK12PropertyInfoP11Il2CppClassEEEjEES9_17ReflectionMapHashIS8_EN14dense_hash_mapIS9_jSD_NS9_14EqualsComparerINS0_8equal_toIS8_EEEENS0_9allocatorISB_EEE9SelectKeyESI_SK_EC2ERKSN_j
QI:__ZN15AudioReverbZone7CleanupEv
HGa:__ZN10BufferGLESD0Ev
oLh:_InternalEnumerator_1_System_Collections_IEnumerator_get_Current_m790514740_gshared
xhd:__Z9NullCheckPv
W7c:__ZN22UnityAnalyticsSettings8TransferI14SafeBinaryReadEEvRT_
cyc:__ZNK14b2PolygonShape9TestPointERK11b2TransformRK6b2Vec2
eEb:__ZN9Scripting35ErrorMessageForUnsupportedEnumFieldE17ScriptingFieldPtr
kWc:_cf2_hintmask_isNew
uQa:_UNITY_png_write_bKGD
Gge:_Array_InternalArray__Insert_TisIntPtr_t_m3232864760_gshared
Jla:__ZN6prcoreL26RemapGenericIntegerToFloatI17TexFormatARGB888818TexFormatARGBFloatEEvPKNS_9InnerInfoE
SOa:__ZN15TextureSettings14GetAnisoLimitsERiS0_
i1i:__ZL24UnresolvedVirtualCall_10P12Il2CppObjectPK10MethodInfo
__j:_emscripten_glCompressedTexSubImage2D__wrapper
iDg:_DSA_FromXmlString_m2141326025
G6g:_GUIStyle_CalcSizeWithConstraints_m4117833199
pPi:_Transform_INTERNAL_set_localScale_m3680777866
RGc:__ZN16b2ContactManager7CollideEv
fcj:__ZN6il2cpp2vmL29SocketPollingThreadEntryPointEPv
JHd:_DateTime_GetNow_m1004310079
Cub:__ZN10Matrix4x4f8TransferI18StreamedBinaryReadILb0EEEEvRT_
fAf:_SslStreamBase_get_Length_m763159069
HUe:_Comparison_1_Invoke_m4190993814_gshared
DM:__ZN4FMOD7Channel19getReverbPropertiesEP29FMOD_REVERB_CHANNELPROPERTIES
ELd:_StackFrame_GetSecureFileName_m389986943
myg:_FormatterConverter_ToInt16_m2774942580
BXd:_CanvasScaler_HandleConstantPixelSize_m229625308
GXd:_CanvasUpdateRegistry_PerformUpdate_m2200492017
kZh:__Z88RuntimeInvoker_Boolean_t3825574718_Int16_t4041245914_Int16_t4041245914_Int32_t2071877448PK10MethodInfoPvPS2_
MLg:_UInt16_System_IConvertible_ToByte_m806893944_AdjustorThunk
sFg:_UTF32Encoding_GetCharCount_m3319809517
vac:__Z12CancelInvokeR13MonoBehaviourR11ICallString
L1g:_GUILayout_Height_m607115982
Ydj:__ZN6il2cpp6icalls8mscorlib6System8MonoType13GetInterfacesEP20Il2CppReflectionType
vhb:__ZN5Cache32GetCachingDiskSpaceFreeAndUsableEv
eO:__ZN9AudioClip16EnableLegacyModeEv
sAb:__ZN14SafeBinaryRead21TransferSTLStyleArrayINSt3__26vectorIi13stl_allocatorIiL18MemLabelIdentifier12ELi16EEEEEEvRT_17TransferMetaFlags
soe:_KeyValuePair_2_ToString_m2613351884_AdjustorThunk
Ype:_Enumerator_System_Collections_IEnumerator_get_Current_m3461301268_AdjustorThunk
fti:_AnimatorControllerPlayable_get_layerCount_m3541790599
lCj:__ZN6il2cpp2os6Thread22SetNativeThreadCleanupEPFvPvE
tcc:__Z35Application_Get_Custom_PropPlatformv
Hfj:_il2cpp_class_from_system_type
nS:__ZN11UnityEngine15CloudWebService13WWWRestClient6IsDoneEv
LPa:_unity_z_crc32
Ika:__ZN6prcoreL17RemapGenericFloatI18TexFormatRGBAFloat16TexFormatRGFloatEEvPKNS_9InnerInfoE
cdf:_MSCompatUnicodeTable_FillCJKCore_m1100372933
xdj:__ZN6il2cpp6icalls8mscorlib6System8MonoType8get_NameEP20Il2CppReflectionType
iHb:__ZNSt3__26vectorI10RectOffset13stl_allocatorIS1_L18MemLabelIdentifier1ELi16EEE8__appendEj
cDd:_DateTime_op_Inequality_m1607380213
fx:__ZN21AnimationClipPlayable22PrepareAnimationEventsEfR13dynamic_arrayI22AnimationClipEventInfoLj4EE
Q0i:__ZN6il2cpp2vm5Class12HasAttributeEP11Il2CppClassS3_
K8d:_Array_InternalArray__ICollection_Contains_TisResourceCacheItem_t333236149_m1769941464_gshared
Foi:_ContextMenu__ctor_m3931483141
_o:FUNCTION_TABLE_ff
ap:FUNCTION_TABLE_fi
wQd:_BaseEventData_set_selectedObject_m2198139983
Fw:__ZNSt3__227__insertion_sort_incompleteIRN11UnityEngine9Animation11BindingSortEPNS_4pairINS2_14GenericBindingEPNS2_10BoundIndexEEEEEbT0_SB_T_
GNj:__ZN6il2cpp2vm16GenericContainer19GetGenericParameterEPK22Il2CppGenericContainert
Wtd:_Char_System_IConvertible_ToSingle_m2547558725_AdjustorThunk
U2g:_GUILayoutEntry_ApplyOptions_m115321759
bAb:__ZN18StreamedBinaryReadILb0EE21TransferSTLStyleArrayINSt3__26vectorIN15ResourceManager10DependencyE13stl_allocatorIS5_L18MemLabelIdentifier51ELi16EEEEEEvRT_17TransferMetaFlags
zd:_emscripten_glGetAttribLocation
g4:__ZNSt3__26vectorINS_4pairIiiEE13stl_allocatorIS2_L18MemLabelIdentifier37ELi16EEE6insertENS_11__wrap_iterIPKS2_EERS8_
kL:__ZN4FMOD12ChannelGroup14getParentGroupEPPS0_
vyf:_SslClientStream_add_ServerCertValidation_m684653638
Dd:_emscripten_set_blur_callback
LNi:_TextGenerator_Invalidate_m3217235344
Mri:_AnimationClipPlayable_SetRemoveStartOffset_m495055486
wXj:___cxa_pure_virtual__wrapper
eCa:__ZNK14ImageReference9ClipImageEiiii
P_a:__ZN10Matrix4x4f30SetPositionAndOrthoNormalBasisERK8Vector3fS2_S2_S2_
qjb:__ZN5RectTIfE8TransferI24GenerateTypeTreeTransferEEvRT_
uyi:_CrossAppDomainSink__cctor_m1547233779
Acf:_TableRange__ctor_m1944319286_AdjustorThunk
xUa:__ZN12FlareManager6UpdateEv
VXj:_glColorMask__wrapper
kVf:__ZL59_ConstructorInfo_t3269099341_CustomAttributesCacheGeneratorP21CustomAttributesCache
qlh:_Dictionary_2_ContainsKey_m1385349577_gshared
Rkf:_X509CertificateEnumerator_MoveNext_m1031936092
euj:__ZN6il2cpp6icalls8mscorlib6System4Type29GetGenericTypeDefinition_implEP20Il2CppReflectionType
_ra:__ZN13LoadOperation7PerformEv
Ktf:_TlsStream__ctor_m2982031560
lFf:_X509EnhancedKeyUsageExtension__ctor_m4050164330
HIi:_GeneralNames_get_IPAddresses_m1712556836
dPb:__ZN18StreamedBinaryReadILb1EE8TransferI8Vector3fEEvRT_PKc17TransferMetaFlags
eKh:_InternalEnumerator_1_get_Current_m2198364332_AdjustorThunk
$ma:__ZN27GenericSlowGarbageCollector16ProcessReferenceEi
Ewg:_RealProxy_InternalGetProxyType_m858618403
uOd:_FieldAccessException__ctor_m1240495912
fIi:_Uri_HexUnescapeMultiByte_m25670899
tXd:_CanvasScaler_set_dynamicPixelsPerUnit_m742632820
fQj:_fopen
mOc:__ZN20TextRenderingPrivate8FontImplD2Ev
VT:__ZN19CloudServiceHandler8SaveFileERKN4core12basic_stringIcNS0_20StringStorageDefaultIcEEEEPKvj
GEd:_Convert_ToInt16_m2211588645
GIf:_X509EnhancedKeyUsageExtension_CopyFrom_m1426370958
Tqc:__ZN9rapidjson13GenericReaderINS_4UTF8IcEES2_13JSONAllocatorE10ParseValueILj1ENS_25GenericInsituStringStreamIS2_EENS_15GenericDocumentIS2_S3_S3_EEEEvRT0_RT1_
PYj:_glFramebufferTexture2D__wrapper
JNj:__ZN6il2cpp6icalls8mscorlib6System7Runtime8Remoting7Proxies9RealProxy27InternalGetTransparentProxyEP12Il2CppObjectP12Il2CppString
Yze:_List_1_AddEnumerable_m1000825969_gshared
QCj:__ZN6il2cpp2vm6Method10IsInflatedEPK10MethodInfo
rHj:_GC_remove_header
RYe:_RegionInfo_GetHashCode_m1038358761
L5i:__ZN15dense_hashtableINSt3__24pairIK10KeyWrapperIPK11Il2CppClassEPKcEES6_N6il2cpp5utils11PointerHashIS3_EEN14dense_hash_mapIS6_S9_SE_NS6_14EqualsComparerINS0_8equal_toIS5_EEEENS0_9allocatorISA_EEE9SelectKeyESJ_SL_E14squash_deletedEv
sib:__ZNSt3__26vectorI17SortingLayerEntryNS_9allocatorIS1_EEE7reserveEj
Guf:_Context_set_MasterSecret_m1422386411
CMb:__Z19TransferField_ArrayI19StreamedBinaryWriteILb0EE27Converter_UnityEngineObjectEvRK23StaticTransferFieldInfoR31RuntimeSerializationCommandInfoRT0_
jkj:__ZN15dense_hashtableINSt3__24pairIK10KeyWrapperIPK10Il2CppTypeEjEES6_N6il2cpp8metadata14Il2CppTypeHashEN14dense_hash_mapIS6_jSB_NS6_14EqualsComparerINSA_26Il2CppTypeEqualityComparerEEENS0_9allocatorIS8_EEE9SelectKeyESF_SH_E6insertERKS8_
PDc:__ZN10ClipperLib7Clipper15AddLocalMinPolyEPNS_5TEdgeES2_RKNS_8IntPointE
crf:_RSAManaged_ToXmlString_m2606223477
nEi:_CharacterClass__ctor_m1318163925
fRg:_AssemblyName_GetObjectData_m1221677827
QRa:__ZN8Renderer27EnsureTransformInfoUpToDateEv
Q9:__ZN15dense_hashtableINSt3__24pairIKN4core12basic_stringIcNS2_20StringStorageDefaultIcEEEEP11AssetBundleEES6_20StringHash32FunctionIS6_EN14dense_hash_mapIS6_S9_SC_NS0_8equal_toIS6_EENS0_9allocatorISA_EEE9SelectKeyESF_SH_E9copy_fromERKSK_j
z1j:_emscripten_glFrontFace__wrapper
upi:_Display_GetRenderingExtImpl_m3739199112
Na:invoke_fiffi
dMj:__ZN6il2cpp5utils6Memory6CallocEjj
A4:__ZN14SerializedFile14SerializedType8ReadTypeILb1EEEbibRPKhS3_Pi
h$h:__Z126RuntimeInvoker_Int32_t2071877448_Il2CppObject_Int32_t2071877448_Il2CppObject_Il2CppObject_SByte_t454417549_Int32U26_t455636984PK10MethodInfoPvPS2_
KYj:_emscripten_glRenderbufferStorage__wrapper
Emb:__ZN8Playable7SetTimeEd
e1:__ZN13RuntimeStaticI12GraphicsCapsLb0EE16StaticInitializeEPv
jpa:__ZN9Texture3D17UploadToGfxDeviceEv
Ytc:__Z18Transfer_BlittableI8JSONReadLb1E8Vector4fEvRK29SerializationCommandArgumentsR31RuntimeSerializationCommandInfo
aSc:_tt_cmap2_validate
mxf:_HttpsClientStream_U3CHttpsClientStreamU3Em__1_m4293802471
VWc:_cff_cmap_unicode_done
ZWe:_NumberFormatter_Init_m1515770916
DGi:_Literal_Compile_m3864266818
vcb:__ZN9Scripting20SendScriptingMessageER10GameObjectPKc18ScriptingObjectPtr
Kaa:__Z26IsSplashScreenFadeCompletev
evb:__Z17SendMessageDirectR6ObjectRK17MessageIdentifierR11MessageData
Yc:_glGenSamplers
k5d:_InputField_LateUpdate_m1045279070
Gdc:__Z42Register_UnityEngine_Camera_get_clearFlagsv
_dj:__ZNSt3__26__treeIP11Il2CppClassNS_4lessIS2_EENS_9allocatorIS2_EEED2Ev
M3g:_GUIScrollGroup_SetVertical_m3540700730
wEg:_StringBuilder_set_Chars_m1019094834
j7a:__ZN13RenderManager27UpdatePreviousFrameMatricesEv
p0a:__ZN6Camera10CustomCullERK23CameraCullingParametersR11CullResults
Ysd:_Byte_System_IConvertible_ToUInt64_m2667486567
o6:__Z22SetManagerPtrInContextiP6Object
Qti:_AnimatorControllerPlayable_GetNextAnimatorClipInfo_m962214430
mzb:__ZN14PlayerSettings8TransferI19StreamedBinaryWriteILb0EEEEvRT_
Ntc:__Z18Transfer_BlittableI8JSONReadLb0E10ColorRGBAfEvRK29SerializationCommandArgumentsR31RuntimeSerializationCommandInfo
HKe:_Collection_1_Remove_m2017992820_gshared
Dge:_Array_InternalArray__Insert_TisInt16_t4041245914_m371511339_gshared
CSg:_ConstructorBuilder_get_next_table_index_m932085784
Tjh:_ValueCollection_System_Collections_ICollection_get_SyncRoot_m919209341_gshared
J1h:__Z83RuntimeInvoker_Void_t1841601450_UInt16_t986882611_SByte_t454417549_SByte_t454417549PK10MethodInfoPvPS2_
Bzh:_Slider_UpdateDrag_m1963963631
JBg:_SByte_Equals_m755715567
GZ:__ZN15DirectorManagerD2Ev
Ddf:_SortKeyBuffer_AppendNormal_m2554296431
_0b:__ZNK30SpriteRendererAnimationBinding15GenerateBindingERKN4core12basic_stringIcNS0_20StringStorageDefaultIcEEEEbRN11UnityEngine9Animation14GenericBindingE
lwj:__ZN6il2cpp6icalls8mscorlib6System13Globalization11CultureInfo45construct_internal_locale_from_current_localeEP17Il2CppCultureInfo
ypg:__ZL70InputField_t1631627530_CustomAttributesCacheGenerator_m_CaretBlinkRateP21CustomAttributesCache
Nce:_Array_IndexOf_TisCustomAttributeNamedArgument_t94157543_m2205974312_gshared
Qce:_Array_IndexOf_TisAnimatorClipInfo_t3905751349_m4033344779_gshared
KFa:__ZN15TextureTFMethod16BindForRenderingEj
d9d:_Array_InternalArray__ICollection_Contains_TisUICharInfo_t3056636800_m2001435744_gshared
Gnh:_DefaultComparer_GetHashCode_m3250641461_gshared
CJf:_Key_ToString_m1129871742
Qpd:_Array_Sort_m1417611156
Xyj:__ZN15dense_hashtableINSt3__24pairIK10KeyWrapperINS1_IPKcS4_EEEiEES6_24NamespaceAndNamePairHashN14dense_hash_mapIS6_iS9_NS6_14EqualsComparerI26NamespaceAndNamePairEqualsEENS0_9allocatorIS8_EEE9SelectKeyESD_SF_E4findERS7_
NHi:_Uri_Merge_m2181117222
phi:_UnityAnalyticsHandler__ctor_m113083880
NLc:__ZN20TextRenderingPrivate8FontImpl13CharacterInfo8TransferI19StreamedBinaryWriteILb0EEEEvRT_
i0h:__Z74RuntimeInvoker_Int32_t2071877448_TimeSpan_t3430258949_TimeSpan_t3430258949PK10MethodInfoPvPS2_
jbj:__ZN6il2cpp2os19SocketHandleWrapper7ReleaseEv
RZd:_DefaultControls_CreateRawImage_m2572997170
hJg:_TimeSpan_get_TotalDays_m3496775483_AdjustorThunk
OO:__ZZL31InitializeAudioManagerCallbacksvEN31PostLateUpdateUpdateAudiostruct7ForwardEv
tyb:__ZNSt3__27__sort4IRNS_6__lessINS_4pairIPKN5Unity4TypeE7Hash128EES8_EEPS8_EEjT0_SC_SC_SC_T_
SHg:_Thread_Start_m1419497481
JTj:dynCall_fff
Ule:_Array_InternalArray__get_Item_TisDictionaryEntry_t3048875398_m2371191320_gshared
Bog:__ZL62FontData_t2614388407_CustomAttributesCacheGenerator_m_RichTextP21CustomAttributesCache
Rri:_AnimationOffsetPlayable_GetPosition_m58420556
pPb:__ZN18StreamedBinaryReadILb1EE21TransferSTLStyleArrayI13dynamic_arrayIhLj1EEEEvRT_17TransferMetaFlags
dEh:_InternalEnumerator_1_get_Current_m2351441486_gshared
_mc:__ZN11IMGUIModule21QueryGUIDisplayTargetE17ScriptingClassPtr
occ:__ZN11UTF16StringC2ERKS_18MemLabelIdentifier
m4g:_GUISkin_set_textField_m1154803040
LTj:dynCall_vidi
F2g:_GUIStyle_GetRectOffsetPtr_m4223228888
IQe:_ReadOnlyCollection_1_System_Collections_IList_Remove_m2350545199_gshared
W7g:_Input_get_mouseScrollDelta_m3430638853
vTj:___udivdi3
dZb:__ZN11PlayerPrefs9SetStringERKN4core12basic_stringIcNS0_20StringStorageDefaultIcEEEES6_
vKj:__ZN6il2cpp6icalls8mscorlib6System8Delegate18SetMulticastInvokeEP14Il2CppDelegate
syc:__ZL18b2FindIncidentEdgeP12b2ClipVertexPK14b2PolygonShapeRK11b2TransformiS3_S6_
i7d:_LayoutGroup_get_minHeight_m2270010946
Gya:__ZN4gles16CreateBlendStateER15DeviceStateGLESRK13GfxBlendState
rpf:_ARC4Managed_GenerateIV_m2815460576
$hd:_String_Substring_m2032624251
q3b:__ZN8Material12CleanupClassEv
EHd:_DateTime_get_DayOfWeek_m2345429939_AdjustorThunk
OKg:_Type_GetTypeCode_m1044483454
Vvi:_ResourceSet_GetObjectInternal_m3556256510
DJb:__Z22TransferField_NonArrayI17RemapPPtrTransfer27Converter_SimpleNativeClassI10RectOffsetEEvRK23StaticTransferFieldInfoR31RuntimeSerializationCommandInfoRT0_
eDd:_DateTimeOffset__ctor_m2870721395
FM:__ZN20SoundChannelInstance11set3DSpreadEf
sw:__ZNSt3__26__sortIRN11UnityEngine9Animation11BindingSortEPNS_4pairINS2_14GenericBindingEPNS2_10BoundIndexEEEEEvT0_SB_T_
Vkd:_String_ReplaceFallback_m64616664
K_g:_MonoMethod_GetCustomAttributes_m2493833930
ezb:__ZN24GenerateTypeTreeTransfer32TransferSTLStyleArrayWithElementI16SplashScreenLogoEEvRT_17TransferMetaFlags
Fjj:__ZN15dense_hashtableINSt3__24pairIK10KeyWrapperINS1_IPK9FieldInfoP11Il2CppClassEEEjEES9_17ReflectionMapHashIS8_EN14dense_hash_mapIS9_jSD_NS9_14EqualsComparerINS0_8equal_toIS8_EEEENS0_9allocatorISB_EEE9SelectKeyESI_SK_E6insertERKSB_
A$e:_Int32_System_IConvertible_ToDouble_m3322226667_AdjustorThunk
i_i:_Enumerator_CheckState_m1761755727_AdjustorThunk
tTj:_memmove
jdc:__Z27Camera_Get_Custom_PropDepthP12Il2CppObject
cCg:_CodeAccessPermission_ToString_m3345031296
oAj:__ZN6il2cpp2vm6Object5UnboxEP12Il2CppObject
FCf:_FtpWebRequest__ctor_m3003551676
$cc:__Z52Register_UnityEngine_ScriptableObject_CreateInstancev
Xif:_EncryptedPrivateKeyInfo__ctor_m832236482
K$:__ZN23DefaultMeshVertexFormatC2E17ShaderChannelMask
QNb:__ZL26Transfer_SimpleNativeClassI18StreamedBinaryReadILb1EE8GradientLb1EEvRK29SerializationCommandArgumentsR31RuntimeSerializationCommandInfo
ijd:_Single_Equals_m3359827399
CHg:_Thread_FreeLocalSlotValues_m2948667652
Z7a:__ZNSt3__26vectorINS_4pairIN4core12basic_stringIcNS2_20StringStorageDefaultIcEEEES6_EE13stl_allocatorIS7_L18MemLabelIdentifier37ELi16EEE12__move_rangeEPS7_SC_SC_
S4:__ZN14FileCacherReadC2ERKN4core12basic_stringIcNS0_20StringStorageDefaultIcEEEEjj
Iya:__ZN7ApiGLES10InvalidateERK14GfxContextGLES
eVi:_InvokableCall_2_Invoke_m1071013389_gshared
Egf:_ASN1Convert_ToOid_m2695991795
jZc:_UNITY_FT_Init_Class_tt_service_truetype_glyf
AMj:__ZN6il2cpp2os5Mutex7TryLockEjb
L$:__Z20IsVectorBuiltinParamPKcPi
Ayj:__ZN6il2cpp2vm5Field8GetFlagsEP9FieldInfo
sJh:_InternalEnumerator_1_get_Current_m727737343_AdjustorThunk
Usj:__ZN6il2cpp6icalls8mscorlib6System10ReflectionL16LoadResourceFileEP24Il2CppReflectionAssembly
pY:__Z13IsFileCreatedRKN4core12basic_stringIcNS_20StringStorageDefaultIcEEEE
Vcj:_BacteriaController_Update_m1018020021
CLj:__ZN6il2cpp6icalls8mscorlib6System21CurrentSystemTimeZone15GetTimeZoneDataEiPP11Il2CppArrayS6_
Pwb:__ZN8Renderer11SetMaterialE4PPtrI8MaterialEi
lyj:__ZN15dense_hashtableINSt3__24pairIK10KeyWrapperIP12Il2CppObjectEN6il2cpp2gc9CachedCCWEEES5_NS7_5utils11PointerHashIS3_EEN14dense_hash_mapIS5_S9_SD_NS5_14EqualsComparerINS0_8equal_toIS4_EEEENS0_9allocatorISA_EEE9SelectKeyESI_SK_E5eraseE30dense_hashtable_const_iteratorISA_S5_SD_SM_SI_SK_E
CQg:_Assembly_UnprotectedGetName_m3014607408
zjd:_String__cctor_m710226597
m8h:__Z90RuntimeInvoker_Void_t1841601450_Il2CppObject_Il2CppObject_Vector2_t2243707579_Il2CppObjectPK10MethodInfoPvPS2_
INh:_DefaultComparer_Compare_m3953592365_gshared
kMe:_Collection_1_IsValidItem_m404831699_gshared
JJg:_TimeSpan_Negate_m4198463235_AdjustorThunk
Ujb:__ZN12FlareManager9AddCameraER6Camera
tN:__ZN11AudioSource8TransferI14SafeBinaryReadEEvRT_
n8b:__ZN4Mesh17SetIndicesComplexEPKvjj16GfxPrimitiveTypei
SLj:__GLOBAL__sub_I_MemoryMappedFile_cpp
EKe:_Collection_1_Insert_m4010554762_gshared
d1b:__ZNK9Transform22GetPositionAndRotationER8Vector3fR11Quaternionf
Zr:__ZN8Animator16TransformChangedEi
E9g:_Matrix4x4_GetColumn_m1367096730_AdjustorThunk
Isa:__ZN17ShaderPassContext8CopyFromERKS_
wdf:_SimpleCollator_GetSortKey_m540875593
CVb:__ZN9ShaderLab9IntShader26CreateFromSerializedShaderERKNS_16SerializedShaderERNSt3__26vectorI4PPtrI6ShaderENS4_9allocatorIS8_EEEEbPS7_
sSa:__ZN19ShaderPropertySheet16SetComputeBufferEN9ShaderLab16FastPropertyNameE15ComputeBufferIDNS_8SetFlagsE
DEj:__ZNK15dense_hashtableINSt3__24pairIK10KeyWrapperIPK19Il2CppGenericMethodEP10MethodInfoEES6_N6il2cpp8metadata23Il2CppGenericMethodHashEN14dense_hash_mapIS6_S9_SD_NS6_14EqualsComparerINSC_26Il2CppGenericMethodCompareEEENS0_9allocatorISA_EEE9SelectKeyESH_SJ_E5beginEv
FHg:_Thread_GetCachedCurrentCulture_m450033007
$1a:__ZL12CullGroupJobP20CullingGroupsJobDataj
PHj:_GC_remove_dangling_disappearing_links
GS:__ZN11UnityEngine15CloudWebService14RestDownloader9IsAbortedEv
_z:__ZN7mecanim12statemachine28DestroyStateMachineWorkspaceEPNS0_21StateMachineWorkspaceERNS_6memory9AllocatorE
Pk:_emscripten_glNormalPointer
Eoc:__Z30GUIStyle_CUSTOM_SetDefaultFontP12Il2CppObject
NKf:_Interval_t2354235237_marshal_pinvoke_back
no:FUNCTION_TABLE_f
dp:FUNCTION_TABLE_i
DKd:_Decimal_ToString_m541380585_AdjustorThunk
v9:__ZN11TypeManager12RegisterTypeERK20TypeRegistrationDesc
En:FUNCTION_TABLE_v
mub:__ZNSt3__26vectorI17BlendShapeChannelNS_9allocatorIS1_EEE8__appendEj
C2d:_Image_get_preserveAspect_m2161836851
lq:__ZN18StreamedBinaryReadILb0EE21TransferSTLStyleArrayI13dynamic_arrayI8Vector3fLj4EEEEvRT_17TransferMetaFlags
koa:__ZN21LightProbeProxyVolume13GetRenderDataER27LightProbeProxyVolumeSample
Kcj:__ZN6il2cpp2vm7Runtime30CallUnhandledExceptionDelegateEP12Il2CppDomainP14Il2CppDelegateP15Il2CppException
OTi:_Predicate_1_Invoke_m577088274_gshared
Lwg:_RemotingProxy_get_TypeName_m1400928020
_xb:__ZN11TimeManager8TransferI24GenerateTypeTreeTransferEEvRT_
Bdf:_SortKeyBuffer_GetResult_m962852575
idf:_SimpleCollator_Category_m1504096908
Uq:__ZNK11UnityEngine9Animation28GenericAnimationBindingCache10BindCustomERKNS0_14GenericBindingER9TransformRNS0_10BoundCurveE
I7c:__ZN18UnityConnectClient17InitConnectClientEv
cDh:_ArrayReadOnlyList_1_ReadOnlyError_m2158247090_gshared
UOj:_memcmp
WHd:_DateTime_CompareTo_m3372173896
deh:_Rect_ToString_m2728794442
Nma:__ZN9Scripting32GetCachedPtrFromScriptingWrapperE18ScriptingObjectPtr
a0c:__ZN2UI29ScheduleUIJobsForInstructionsERNS_7BatchesEjPKNS_13UIInstructionEfjjPNS_13CanvasJobDataE
$K:__ZN5audio5mixer22CreateAudioMixerMemoryERKNS0_18AudioMixerConstantEPN4FMOD6SystemERN7mecanim6memory9AllocatorEib
YB:__ZZN8Animator15InitializeClassEvEN43FunctorImpl_425kDidModifyAnimatorController4CallEPviR11MessageData
eyf:_RSASslSignatureDeformatter_VerifySignature_m3138484348
Afe:_Array_InternalArray__ICollection_CopyTo_TisDecimal_t724701077_m1087621311_gshared
xgh:_Enumerator_System_Collections_IDictionaryEnumerator_get_Value_m2325383168_AdjustorThunk
iFd:_Convert_ToInt64_m4280008532
Lgc:__Z28Mesh_CUSTOM_SetTrianglesImplP12Il2CppObjectiP11Il2CppArrayih
eqg:__ZL61RawImage_t2749640213_CustomAttributesCacheGenerator_m_TextureP21CustomAttributesCache
Gsa:__ZL20ShaderWarmupFuncImplP6ShaderiPN9ShaderLab4PassERK16ShaderKeywordSetP10DynamicVBOPvR17ShaderPassContext
KGc:__ZN7b2World4StepEfii
rNi:_Vector2_get_zero_m3966848876
R7i:__ZN15dense_hashtableI10KeyWrapperIPK17Il2CppGenericInstES4_N6il2cpp8metadata21Il2CppGenericInstHashEN14dense_hash_setIS4_S7_NS4_14EqualsComparerINS6_24Il2CppGenericInstCompareEEENSt3__29allocatorIS4_EEE8IdentityESB_SE_E6insertERKS4_
Xij:__ZN15dense_hashtableINSt3__24pairIK10KeyWrapperINS1_IPK14Il2CppAssemblyP11Il2CppClassEEEjEES9_17ReflectionMapHashIS8_EN14dense_hash_mapIS9_jSD_NS9_14EqualsComparerINS0_8equal_toIS8_EEEENS0_9allocatorISB_EEE9SelectKeyESI_SK_E3endEv
rvh:_Scrollbar_set_numberOfSteps_m579707524
cPj:_fmt_u
Lza:__ZN14DataBufferGLES12RecordUpdateEv
YWh:__Z92RuntimeInvoker_Void_t1841601450_Il2CppObject_Il2CppObject_SByte_t454417549_Int32_t2071877448PK10MethodInfoPvPS2_
x0g:_ResourceManager__cctor_m2190112652
bNc:__ZN20TextRenderingPrivate15DynamicFontData28GetFaceForFontRefFromOSFontsERKNS_7FontRefE
mhc:__Z34MonoBehaviour_CUSTOM_StopCoroutineP12Il2CppObjectP12Il2CppString
i3a:__ZN10systeminfo19IsPlatformWebPlayerE15RuntimePlatform
qAj:__ZN6il2cpp2vm12GenericClass12SetupMethodsEP11Il2CppClass
rX:__ZNK20LocalFileSystemPosix18GetApplicationPathEv
IDd:_Decimal__ctor_m3876694886
SDb:__ZN9Scripting30IsSystemCollectionsGenericListE17ScriptingClassPtr
C8d:_Array_InternalArray__ICollection_Contains_TisIntPtr_t_m3256777387_gshared
Bqd:_AttributeUsageAttribute__ctor_m2873156923
s0c:__ZN2UI23InitializeCanvasManagerEv
l5a:__ZN10GameObject16CheckConsistencyEv
s1b:__ZN14RenderSettings15InitializeClassEv
TEf:_AsnEncodedData_set_Oid_m3568255745
rfc:__Z46Register_UnityEngine_GameObject_get_activeSelfv
TBb:__ZN20ArchiveStorageHeader11WriteHeaderER12FileAccessorRKNS_6HeaderE
Uyf:_SslClientStream_OnRemoteCertificateValidation2_m3416857045
cBg:_RuntimeTypeHandle_Equals_m452760426_AdjustorThunk
tli:_Camera_get_depth_m1329692468
jkd:_String_TrimStart_m710830036
_Mh:_InternalEnumerator_1_System_Collections_IEnumerator_get_Current_m762846484_AdjustorThunk
R0b:__ZN14SpriteRenderer13GetRenderDataEv
Lnj:__ZN14dense_hash_mapI10KeyWrapperIPK14Il2CppAssemblyEPK16MonoAssemblyNameN6il2cpp5utils11PointerHashIS2_EENS4_14EqualsComparerINSt3__28equal_toIS3_EEEENSD_9allocatorINSD_4pairIKS4_S7_EEEEE15set_deleted_keyERSJ_
$ej:_AnalyticsTracker_OnEnable_m1011291651
D$c:__ZN2UI16GetCanvasManagerEv
Emc:__ZNK8GUIStyle20GetCursorStringIndexERK5RectTIfER10GUIContentRK8Vector2f
N8b:__ZN15GUIEventManager8PopEventER10InputEvent
Aec:__Z31RectOffset_Get_Custom_PropRightP12Il2CppObject
SZc:__Z54Register_UnityEngine_TextGenerator_GetVerticesInternalv
tbd:__Z3BoxP11Il2CppClassPv
OPd:_CultureInfo_Clone_m2970753766
gKf:_IntStack_Push_m1259764820
OFa:__ZN21UniformBufferTFMethodD2Ev
B3e:_FileStream_InitBuffer_m2153931481
tLg:_Type_MakeGenericType_m2765875033
Eac:__ZL34GetComponentsImplementationRecurseILb1ELi1ELi2EEbR10GameObjectbRK17CompareParametersRK39GetComponentsImplementation_ReturnValue
Fja:__ZN6prcoreL12RemapGenericI15TexFormatRGB56515TexFormatRGB888EEvPKNS_9InnerInfoE
w5d:_InputField_OnEndDrag_m1818224847
XVe:_NumberFormatter_GetInstance_m2421260460
F1c:__Z41CanvasGroup_Get_Custom_PropBlocksRaycastsP12Il2CppObject
dSb:__ZNSt3__26vectorIN9ShaderLab26SerializedShaderDependencyENS_9allocatorIS2_EEE8__appendEj
E9h:__Z113RuntimeInvoker_Boolean_t3825574718_Ray_t2469606224_RaycastHitU26_t1969197280_Single_t2076509932_Int32_t2071877448PK10MethodInfoPvPS2_
EHh:_InternalEnumerator_1_System_Collections_IEnumerator_get_Current_m4242639349_gshared
K5:__ZN32TransformHierarchyChangeDispatch26DispatchSelfAndAllChildrenE15TransformAccessNS_12InterestTypeE
oFg:_UTF32Encoding__ctor_m3199945978
c7:__ZN13RuntimeStaticI22VirtualJoystickManagerLb0EE13StaticDestroyEPv
OH:__ZN13AudioListener12ApplyFiltersEv
_mi:_CanvasRenderer_set_cull_m1437892490
_Ye:_SortKey_GetHashCode_m2534654444
B8d:_Array_InternalArray__ICollection_Contains_TisInt64_t909078037_m1425723755_gshared
Gvf:_HandshakeMessage_Update_m1733566706
GVj:dynCall_viiif
wMj:__ZN6il2cpp8metadata27Il2CppGenericContextCompare7CompareEPK20Il2CppGenericContextS4_
NUj:dynCall_viiii
iwd:_ArrayListWrapper_ToArray_m235921330
lFc:__ZN16Physics2DManagerD2Ev
V5a:__ZN9Transform32SetLocalScaleWithoutNotificationERKN4math7_float3E
CYg:_MemberInfoSerializationHolder_Serialize_m4243060728
wth:_MaskableGraphic_OnDisable_m2605143092
aij:__ZNSt3__214__split_bufferIN6il2cpp2vm17TypeNameParseInfoERNS_9allocatorIS3_EEED2Ev
qni:_Collision2D_get_transform_m314016758
kLg:_Type_GetConstructor_m663514781
y0e:_Int64_System_IConvertible_ToDouble_m638786774_AdjustorThunk
H$:__ZN15DirectorManager14ConnectionPool16GrowEmptyBucketsEv
g$e:_Int16_ToString_m1247017262
X1:__ZN17PersistentManager32CopyToAwakeFromLoadQueueInternalER18AwakeFromLoadQueue
kLd:_Delegate_Combine_m1976351882
mCc:__ZN10Collider2D23VirtualRedirectTransferER24GenerateTypeTreeTransfer
wXa:__ZNK6Camera16SetActiveVRUsageEv
cNg:_UInt32_System_IConvertible_ToUInt16_m2798641702
bZj:_emscripten_glDrawElementsInstanced__wrapper
hOi:_Texture_Internal_GetWidth_m56137242
kuc:__ZL26Transfer_SimpleNativeClassI8JSONRead8GradientLb1EEvRK29SerializationCommandArgumentsR31RuntimeSerializationCommandInfo
wPj:_open
CIc:__ZN6b2Body7SetTypeE10b2BodyType
bsj:__ZN6il2cpp6icalls8mscorlib6System5Array5CloneEP11Il2CppArray
q7a:__Z30GetPlayerShouldRunInBackgroundv
PMh:_InternalEnumerator_1_get_Current_m2986222582_gshared
$Og:_UnitySerializationHolder__ctor_m2832165173
$Eg:_UnicodeEncoding_GetBytes_m4175529985
i$:__ZZN15DirectorManager15InitializeClassEvEN47PreLateUpdateDirectorUpdateAnimationBeginstruct7ForwardEv
Cvh:_Selectable_OnDisable_m2660228016
zja:__ZN6prcoreL12RemapGenericI11TexFormatI815TexFormatRGB565EEvPKNS_9InnerInfoE
Kta:__ZNK13TranslateGLES17FramebufferTargetEN2gl17FramebufferTargetE
uDj:__ZL11on_gc_event11GCEventType
Xqj:__ZNSt3__214__split_bufferIN6il2cpp8metadata18GenericArrayMethodERNS_9allocatorIS3_EEED2Ev
yid:_Single_System_IConvertible_ToBoolean_m2661548087_AdjustorThunk
$Fc:__ZNSt3__27__sort5IR31RayHitsByInverseDepthComparitorP12RaycastHit2DEEjT0_S5_S5_S5_S5_T_
EDg:_DSASignatureDeformatter_VerifySignature_m4078616251
QXj:b62
PXj:b61
OXj:b60
gZj:b67
Hde:_Array_InternalArray__IndexOf_TisUInt16_t986882611_m390127593_gshared
E3d:_InputField_set_shouldHideMobileInput_m2478534110
gld:_String_Concat_m3881798623
zYb:__ZL10SweepEventP14TESStesselatorP10TESSvertex
hVg:_FieldBuilder_IsDefined_m2730324893
t1f:__ZL56FlagsAttribute_t859561169_CustomAttributesCacheGeneratorP21CustomAttributesCache
Ugb:__ZN21ArchiveStorageCreator10BeginBlockEb15CompressionType16CompressionLevelj
ZTe:_ReadOnlyCollection_1_System_Collections_IList_Insert_m571902768_gshared
vwi:_ExternalException__ctor_m1618796018
PUj:dynCall_iifffi
c9b:__Z9SetIIMGUIP6IIMGUI
mba:__Z28SetupPixelCorrectCoordinatesv
sSc:_tt_cmap10_get_info
pah:_Mesh_SetTangents_m282399504
c6b:__ZNSt3__218__insertion_sort_3IRN10vector_mapIiiNS_4lessIiEE13stl_allocatorINS_4pairIiiEEL18MemLabelIdentifier1ELi16EEE13value_compareEPS6_EEvT0_SD_T_
nza:__Z5SplitRKN4core12basic_stringIcNS_20StringStorageDefaultIcEEEEcRNSt3__26vectorIS3_NS6_9allocatorIS3_EEEEi
G$i:__ZN6il2cpp2vmL10InitLockedEP11Il2CppClassRKNS_2os12FastAutoLockE
P1a:__ZN15LODGroupManager26CollectAllLODGroupManagersEPK6CameraR13dynamic_arrayIPS_Lj4EEb
b_:__ZN17ScriptingGCHandle28ResolveBackendNativeGCHandleEj
u5b:__ZN13PlayableGraph16DestroyRecursiveEP8Playable
ZLd:_Double_System_IConvertible_ToType_m4036266196_AdjustorThunk
VH:__ZN12AudioManagerD0Ev
aPj:___fwritex
NMj:__ZN6il2cpp5utils35RegisterRuntimeInitializeAndCleanupC2EPFvvES3_i
x4e:_Stream_EndRead_m2148943753
_Ab:__ZNK22GenericPropertyBinding13SetFloatValueERKN11UnityEngine9Animation10BoundCurveEf
Bfb:__ZN17ArchiveFileSystem14UnmountArchiveEP20ArchiveStorageReader
j1b:__ZN6ShaderC2E18MemLabelIdentifier18ObjectCreationMode
eSh:__Z99RuntimeInvoker_Int32_t2071877448_Int32_t2071877448_Int32_t2071877448_Int32_t2071877448_Il2CppObjectPK10MethodInfoPvPS2_
CPc:_raccess_guess_darwin_ufs_export
rNa:__ZN11TypeManager18InitializeAllTypesEv
bG:__ZN9AudioClipD0Ev
nfh:_Renderer_get_sortingOrder_m1544525007
l3h:__Z93RuntimeInvoker_Vector3_t2243707580_Vector3_t2243707580_Vector3_t2243707580_Single_t2076509932PK10MethodInfoPvPS2_
B0g:_RenderPipelineManager_DoRenderLoop_Internal_m2267530247
t9d:_Array_InternalArray__ICollection_Remove_TisKeyValuePair_2_t38854645_m3060436673_gshared
pwe:_List_1_Find_m3480386930_gshared
kph:_EqualityComparer_1__cctor_m51007461_gshared
r_b:__Z13RegisterClassI8GUILayerEvv
Ubb:__ZN25ThreadsafeLinearAllocatorC2EiiPKc
Wdf:_SimpleCollator_IsSuffix_m740049399
IDa:__ZN14GfxContextGLES11MakeCurrentER7ApiGLESN2gl13ContextHandleE
EJi:_PKCS12__cctor_m3312759338
TXc:_UNITY_tt_glyphzone_new
bPa:__ZN5Image13ReformatImageEii13TextureFormatN14ImageReference8BlitModeE
gaf:_ShortComparer_Compare_m1398180168
Q1g:_Screen_get_width_m41137238
pbh:_Object_Internal_InstantiateSingleWithParent_m509082884
JQa:_UNITY_png_check_IHDR
Bsa:__ZN16GraphicsSettings22WarmupPreloadedShadersEv
S2c:__Z34Canvas_Set_Custom_PropSortingOrderP12Il2CppObjecti
K5e:_MonoIO_get_ConsoleError_m592181393
a0h:__Z59RuntimeInvoker_Il2CppObject_Single_t2076509932_Il2CppObjectPK10MethodInfoPvPS2_
pyf:_SslCipherSuite_prf_m2084589217
bb:invoke_iiiiiiffiiiiiiiiiffffiii
r_c:__ZN2UI6Canvas8TransferI14SafeBinaryReadEEvRT_
Loi:_Coroutine_Finalize_m3953619693
Jbi:__Z83RuntimeInvoker_Int32_t2071877448_Color32_t874517518_Color32_t874517518_Il2CppObjectPK10MethodInfoPvPS2_
kQi:_Vector2_op_Division_m96580069
fkj:__ZN6il2cpp2gc19AppendOnlyGCHashMapIPK10Il2CppTypeP20Il2CppReflectionTypeNS_8metadata14Il2CppTypeHashENS7_26Il2CppTypeEqualityComparerEE3AddERKS4_S6_
lQ:__ZN11UnityEngine15CloudWebService17CloudJobScheduler11ScheduleJobEPFvPvES2_
PZe:_Guid_Equals_m2389236871_AdjustorThunk
uR:__ZN11UnityEngine15CloudWebService17CloudServiceEvent12ToJsonStringER9JSONWrite
A7:__ZNK18VertexChannelsInfoltERKS_
DZf:__ZL93ASCIIEncoding_t3022927988_CustomAttributesCacheGenerator_ASCIIEncoding_GetDecoder_m3693600923P21CustomAttributesCache
Vva:__ZN13GfxDeviceGLES15UploadTexture3DE9TextureIDPKhiiii13TextureFormati18TextureUploadFlags
O$h:__Z71RuntimeInvoker_Single_t2076509932_Single_t2076509932_Single_t2076509932PK10MethodInfoPvPS2_
qqc:__ZN9JSONWrite8TransferIfEEvRT_PKc17TransferMetaFlags
LYd:_ContentSizeFitter_SetLayoutHorizontal_m2830034151
WD:__Z92Register_UnityEngine_Experimental_Director_AnimationOffsetPlayable_INTERNAL_CALL_SetPositionv
I5b:__ZN10MonoScript27InitializeAndRegisterScriptERKN4core12basic_stringIcNS0_20StringStorageDefaultIcEEEES6_S6_S6_b
RCg:_DES_set_Key_m2689203108
Z2a:__Z23DrawSplashAndWatermarksv
Zcj:_GameController_SetPoints_m669819558
SQa:_UNITY_png_free_data
WIi:_SubjectAltNameExtension_ToString_m1300810903
vjf:_RSAManaged_ImportParameters_m2382611442
MGb:__ZN13GUIStyleState8TransferI14SafeBinaryReadEEvRT_
BOh:_Comparer_1_System_Collections_IComparer_Compare_m2490067344_gshared
eDi:_PatternCompiler_EmitSet_m866698437
Ud:_glDrawArrays
E1d:_GridLayoutGroup_set_startCorner_m1660251450
UGh:_InternalEnumerator_1_System_Collections_IEnumerator_get_Current_m127456009_AdjustorThunk
r_i:_HashSet_1_System_Collections_Generic_ICollectionU3CTU3E_CopyTo_m1933244740_gshared
g_f:__ZL54UTF8Encoding_t111055448_CustomAttributesCacheGeneratorP21CustomAttributesCache
L6b:__Z17InstantiateObjectR6ObjectR9TransformRK8Vector3fRK11Quaternionf
d0e:_Int32_TryParse_m656840904
n9d:_Array_InternalArray__ICollection_Remove_TisChar_t3454481338_m1562002771_gshared
u0e:_Int64_System_IConvertible_ToDateTime_m1002280174_AdjustorThunk
Bub:__ZN14BlendShapeData8TransferI18StreamedBinaryReadILb0EEEEvRT_
KNj:__ZN6il2cpp6icalls8mscorlib6System7Runtime8Remoting7Proxies9RealProxy20InternalGetProxyTypeEP12Il2CppObject
TSa:__ZN13sorted_vectorINSt3__24pairIiN17InstancedPropInfo12PropertyTypeEEEN10vector_mapIiS3_NS0_4lessIiEE13stl_allocatorIS4_L18MemLabelIdentifier1ELi16EEE13value_compareESA_E21sort_clear_duplicatesEv
fYc:_Round_To_Grid
jNc:_UNITY_FT_Stream_Close
IVh:__Z66RuntimeInvoker_Il2CppObject_Il2CppObject_DSAParameters_t1872138834PK10MethodInfoPvPS2_
HVh:__Z103RuntimeInvoker_Boolean_t3825574718_Il2CppObject_Il2CppObject_Il2CppObject_Il2CppObject_SByte_t454417549PK10MethodInfoPvPS2_
lwc:__ZN9rapidjson6WriterI16TempBufferWriterNS_4UTF8IcEES3_13JSONAllocatorE9WriteBoolEb
mec:__Z35DebugLogHandler_CUSTOM_Internal_Log7LogTypeP12Il2CppStringP12Il2CppObject
aZj:_emscripten_glShaderBinary__wrapper
PCa:__ZL17ProgramUniform3ivPK7ApiGLESjiihPKv
Bva:__ZN9GfxDevice25GetBackBufferColorSurfaceEv
eLa:__ZN25SingleBlockMemoryFileData9SetLengthEy
o6b:__Z29AwakeAndActivateClonedObjectsPP6ObjectRK10vector_mapIiiNSt3__24lessIiEE13stl_allocatorINS3_4pairIiiEEL18MemLabelIdentifier1ELi16EEE
n2h:__Z91RuntimeInvoker_Void_t1841601450_Il2CppObject_Il2CppObject_SByte_t454417549_SByte_t454417549PK10MethodInfoPvPS2_
Roj:__ZN15dense_hashtableINSt3__24pairIK10KeyWrapperINS1_IPK10MethodInfoP11Il2CppClassEEEjEES9_17ReflectionMapHashIS8_EN14dense_hash_mapIS9_jSD_NS9_14EqualsComparerINS0_8equal_toIS8_EEEENS0_9allocatorISB_EEE9SelectKeyESI_SK_E14squash_deletedEv
GYh:__Z117RuntimeInvoker_Void_t1841601450_Il2CppObject_Int64_t909078037_Il2CppObject_Int64_t909078037_Il2CppObject_Il2CppObjectPK10MethodInfoPvPS2_
I_b:__Z13RegisterClassI6ShaderEvv
H_e:_Int16_System_IConvertible_ToUInt32_m883204517
Bvi:_ResourceCacheItem_t333236149_marshal_pinvoke_cleanup
Cse:_List_1_CheckMatch_m1196994270_gshared
a0:__ZN13RuntimeStaticI11WindManagerLb0EE13StaticDestroyEPv
pGd:_Convert_ToUInt64_m3559662221
$rc:__Z18Transfer_BlittableI9JSONWriteLb1EaEvRK29SerializationCommandArgumentsR31RuntimeSerializationCommandInfo
Moj:__ZN13Il2CppHashMapINSt3__24pairIPK10MethodInfoP11Il2CppClassEEj17ReflectionMapHashIS7_ENS0_8equal_toIS7_EENS0_9allocatorINS1_IK10KeyWrapperIS7_EjEEEEEC2EjRKS9_RKSB_
Zud:_ArrayList_set_Item_m1858827078
Yoa:__ZN9Texture3D23VirtualRedirectTransferER19StreamedBinaryWriteILb0EE
kIj:_GC_reclaim_block
Apf:_HMAC__ctor_m2605930831
aO:__Z13RegisterClassI10SampleClipEvv
eS:__ZN11UnityEngine15CloudWebService10RestClientINS0_16WWWRestHeaderMapEE17GetResponseHeaderERKN4core12basic_stringIcNS4_20StringStorageDefaultIcEEEE
qyc:__Z23b2CollideRadialPolygonsP10b2ManifoldPK14b2PolygonShapeRK11b2TransformS3_S6_
p_a:__ZNK23ForwardShaderRenderLoop18RenderObjectSorterILb1EEclERK21ForwardRenderPassDataS4_
r9i:__ZN15dense_hashtableI10KeyWrapperIPK19Il2CppGenericMethodES4_N6il2cpp8metadata23Il2CppGenericMethodHashEN14dense_hash_setIS4_S7_NS4_14EqualsComparerINS6_26Il2CppGenericMethodCompareEEENSt3__29allocatorIS4_EEE8IdentityESB_SE_E12maybe_shrinkEv
DGa:__ZN10BufferGLES10BeginWriteEjj
q9i:__ZNK15dense_hashtableI10KeyWrapperIPK19Il2CppGenericMethodES4_N6il2cpp8metadata23Il2CppGenericMethodHashEN14dense_hash_setIS4_S7_NS4_14EqualsComparerINS6_26Il2CppGenericMethodCompareEEENSt3__29allocatorIS4_EEE8IdentityESB_SE_E12test_deletedEj
lt:__ZN7mecanim12statemachine18StateMachineMemory8TransferI9BlobWriteEEvRT_
Lpj:__GLOBAL__sub_I_ArrayMetadata_cpp
BNg:_UInt64_System_IConvertible_ToByte_m953298241
CGa:__ZN7ApiGLES11FlushBufferEjN2gl12BufferTargetEll
yGd:_Convert_ToUInt64_m1896191125
GHb:__ZN14SafeBinaryRead21TransferSTLStyleArrayI13dynamic_arrayI8BitFieldLj4EEEEvRT_17TransferMetaFlags
YDa:__ZN12_GLOBAL__N_127PrepareReadback_ResolveMSAAER18GfxFramebufferGLESR7ApiGLESP17RenderSurfaceGLESS5_
yu:__ZN7mecanim15InvertValueMaskEPNS_14ValueArrayMaskE
pUg:_EnumBuilder_GetAttributeFlagsImpl_m4263246832
_Rg:_CustomAttributeData_GetHashCode_m3989739430
IAh:_Text_AssignDefaultFont_m1295571657
U2b:__ZNK24RendererAnimationBinding9BindValueER6ObjectRKN11UnityEngine9Animation14GenericBindingERNS3_10BoundCurveE
Te:_glBindBuffer
zQb:__ZN8GUIStyle8TransferI18StreamedBinaryReadILb0EEEEvRT_
h8:__ZNSt3__213__stable_sortIRN10vector_mapIijNS_4lessIiEENS_9allocatorINS_4pairIijEEEEE13value_compareENS_11__wrap_iterIPS6_EEEEvT0_SE_T_NS_15iterator_traitsISE_E15difference_typeEPNSH_10value_typeEi
Gji:_Application_get_platform_m3989224144
Gee:_Array_InternalArray__ICollection_Add_TisCustomAttributeNamedArgument_t94157543_m1003067274_gshared
dXb:__ZNSt3__218__insertion_sort_3IRNS_6__lessIN4core12basic_stringIcNS2_20StringStorageDefaultIcEEEES6_EEPS6_EEvT0_SA_T_
dqe:_Enumerator_System_Collections_IEnumerator_Reset_m925111644_gshared
Dna:__ZN18LoadSceneOperation13CleanupMemoryEv
HOj:_isupper
VQg:_AssemblyName__ctor_m609734316
ty:__ZN7mecanim20ValueArrayBlendBeginERNS_14ValueArrayMaskE
kha:__ZNSt3__26__treeINS_12__value_typeIN9ShaderLab16FastPropertyNameEN18UnityPropertySheet11UnityTexEnvEEENS_19__map_value_compareIS3_S6_NS_4lessIS3_EELb1EEENS_9allocatorIS6_EEE7destroyEPNS_11__tree_nodeIS6_PvEE
vzf:_InternalAsyncResult_get_IsCompleted_m1463732458
yyh:_Selectable_IsInteractable_m3245596965
mRj:_getuid
e2d:_HorizontalLayoutGroup_CalculateLayoutInputVertical_m3516192138
mC:__ZN7mecanim5human8BoneNameEj
Y_b:__Z13RegisterClassI10MonoScriptEvv
wif:_AttrListImpl__ctor_m3211398293
cu:__ZN13dynamic_arrayIN8Animator11AnimatorJobELj4EE9push_backERKS1_
HLc:__ZN20TextRenderingPrivate8FontImpl8TransferI18StreamedBinaryReadILb0EEEEvRT_
vEg:_StringBuilder_get_Chars_m256627635
vdj:__ZN6il2cpp6icalls8mscorlib6System8MonoType22get_IsGenericParameterEP20Il2CppReflectionType
Su:__ZN7mecanim5human14HumanPoseClearERNS0_9HumanPoseE
J2e:_MonoIO_GetException_m957022672
Uha:__ZN18StreamedBinaryReadILb0EE19TransferSTLStyleMapINSt3__23mapIN9ShaderLab16FastPropertyNameE10ColorRGBAfNS2_4lessIS5_EENS2_9allocatorINS2_4pairIKS5_S6_EEEEEEEEvRT_17TransferMetaFlags
tGf:_X509Certificate2_GetValueAsString_m1286925493
Lsh:_Mask__ctor_m1716732261
yud:_Char_ToLower_m2719897546
gie:_Array_InternalArray__set_Item_TisHitInfo_t1761367055_m2693590376_gshared
Gaf:_MonoType_IsPointerImpl_m648213545
wXe:_InvalidOperationException__ctor_m2801133788
i7a:__ZN13RenderManager28AreCamerasUsingMotionVectorsEv
oeb:__Z24GetAssetBundleFileSystemv
n7:__Z25InitializeLODGroupManagerPv
wXd:_CanvasScaler_SetScaleFactor_m3305903109
Xee:_Array_InternalArray__ICollection_Add_TisUriScheme_t1876590943_m3218110478_gshared
HTa:__ZNK12ImageFilters28ApplyAfterTransparentFiltersEv
Q7d:_LayoutRebuilder_U3Cs_RebuildersU3Em__0_m3768099182
g7c:__ZN11UnityEngine7Connect15AppRunningEvent12ToJsonStringER9JSONWrite
g0:__ZN19ShaderPropertySheet5ClearEb
qwf:_TlsServerCertificate_ProcessAsTls1_m3083203628
XPe:_ReadOnlyCollection_1_System_Collections_Generic_IListU3CTU3E_set_Item_m1099846173_gshared
dYa:__ZNK6Camera11GetPositionEv
Cv:__ZN8Animator19CreatePlayableGraphEv
I0j:_emscripten_glClearDepth__wrapper
zFd:_Convert_ToSByte_m1880147062
wab:__ZNK16MemoryFileSystem8FilenameERK13FileEntryData
Xf:_glUniform1fv
Xme:_GameObject_GetComponent_TisIl2CppObject_m2812611596_gshared
$f:_JS_FileSystem_Sync
Zad:_MD5CryptoServiceProvider_HashCore_m2367253552
mya:__ZNSt3__26__treeINS_12__value_typeI21GLESRenderTargetSetupN2gl6HandleILNS3_10ObjectTypeE9EEEEENS_19__map_value_compareIS2_S7_NS_4lessIS2_EELb1EEENS_9allocatorIS7_EEE7destroyEPNS_11__tree_nodeIS7_PvEE
TKi:_X509StoreManager_get_TrustedRootCertificates_m122138510
sVi:_UnityAction_1_BeginInvoke_m530778538_gshared
vYc:_Direct_Move
Zf:__emscripten_sample_gamepad_data
e0b:__Z22DelayedDestroyCallbackP6ObjectPv
oZj:_glBlendEquationSeparate__wrapper
Z4g:_GUISkin_GetStyle_m3594137272
A1d:_GraphicRegistry__cctor_m4197769737
WAc:__ZN15b2ContactFilter13ShouldCollideEP9b2FixtureS1_
a_c:__ZNK2UI6Canvas26GetTypeInfoVirtualInternalEv
W3:__Z34scripting_class_get_declaring_type17ScriptingClassPtr
y7c:__ZN11UnityEngine7Connect20BasePersistentValues13RestoreValuesER8JSONRead
Vqf:_KeyGeneratedEventHandler_Invoke_m1298576133
V5d:_InputField_Rebuild_m3481959062
Pxb:__ZN11TimeManagerD0Ev
IS:__ZN11UnityEngine15CloudWebService18RestFileDownloader10InitializeERKN4core12basic_stringIcNS2_20StringStorageDefaultIcEEEE
yob:__ZN9Texture2D16DeleteGfxTextureEv
GW:__ZN20LocalFileSystemPosix4OpenER13FileEntryData14FilePermission16FileAutoBehavior
upf:_KeyBuilder_get_Rng_m2539978716
r6h:__Z82RuntimeInvoker_Vector2_t2243707579_Rect_t3681755626_Il2CppObject_Int32_t2071877448PK10MethodInfoPvPS2_
g_c:__ZN2UI6Canvas12AddToManagerEv
jRc:_UNITY_tt_face_load_sbit
V5b:__Z37GetTransformFromComponentOrGameObjectP6Object
Tgh:_ShimEnumerator_get_Current_m2516732679_gshared
$Vc:_cf2_hint_isTop
c5a:__ZN23ManagedAttributeManager21GetRequiredComponentsE17ScriptingClassPtr
Zta:__ZN9GfxDevice18GetNumGraphicsJobsEj
s8a:__Z23InitializeStdConvertersv
IHe:_Collection_1_Contains_m3292349561_gshared
$2d:_Image_SetNativeSize_m3580044470
nui:_AnimatorControllerPlayable_CrossFade_m2119841183
cOi:_TextGenerator_get_lines_m916366224
qUc:_ps_unicodes_init
v2b:__ZL33AllowIdentityTransformDestructionv
azj:__ZNK10KeyWrapperINSt3__24pairIPKcS3_EEE14EqualsComparerI26NamespaceAndNamePairEqualsEclERKS5_SA_
NLd:_StackTrace__ctor_m772333217
Rid:_Single_System_IConvertible_ToSingle_m2540530435
Tkf:_X509CertificateEnumerator__ctor_m1500464146
mYb:__Z15tessMeshNewMeshP9TESSalloc
wKg:_Type_get_IsPointer_m3832342327
Utj:__ZN6il2cpp2vm9Exception27GetExecutionEngineExceptionEPKc
alh:_Dictionary_2_System_Collections_ICollection_CopyTo_m2784181332_gshared
mh:_JS_WebRequest_GetResponseHeaders
m8a:__ZNSt3__26__treeINS_12__value_typeI26SerializedObjectIdentifieriEENS_19__map_value_compareIS2_S3_NS_4lessIS2_EELb1EEENS_9allocatorIS3_EEE7destroyEPNS_11__tree_nodeIS3_PvEE
JQc:_UNITY_FT_Create_Class_tt_cmap_classes
hjj:__ZN15dense_hashtableINSt3__24pairIK10KeyWrapperINS1_IPK14Il2CppAssemblyP11Il2CppClassEEEjEES9_17ReflectionMapHashIS8_EN14dense_hash_mapIS9_jSD_NS9_14EqualsComparerINS0_8equal_toIS8_EEEENS0_9allocatorISB_EEE9SelectKeyESI_SK_EC2ERKSN_j
C9b:__ZN9Scripting18RaiseNullExceptionEPKcz
dQe:_ReadOnlyCollection_1_System_Collections_IList_Insert_m2659121605_gshared
V8:__ZN13RuntimeStaticI13RendererSceneLb0EE16StaticInitializeEPv
avi:_PlayableHandle_GetHashCode_m1257452282_AdjustorThunk
uuh:_RawImage_SetNativeSize_m672994452
xh:_glCreateProgram
rnj:__ZN6il2cpp2vm10Reflection7IsFieldEP12Il2CppObject
fge:_Array_InternalArray__ICollection_CopyTo_TisContentType_t1028629049_m330597634_gshared
Gwd:_SimpleEnumerator_Reset_m3524591211
hQi:_Vector2_op_Addition_m1389598521
sNg:_UInt32_ToString_m554020223_AdjustorThunk
Aib:__ZN24GenerateTypeTreeTransfer32TransferSTLStyleArrayWithElementI17SortingLayerEntryEEvRT_17TransferMetaFlags
H1h:__Z70RuntimeInvoker_Boolean_t3825574718_Int32_t2071877448_Int16_t4041245914PK10MethodInfoPvPS2_
gYj:_glUniformMatrix3fv__wrapper
pkb:__ZN5Light9SetupHaloEv
MNb:__Z18Transfer_BlittableI18StreamedBinaryReadILb1EELb1E12PropertyNameEvRK29SerializationCommandArgumentsR31RuntimeSerializationCommandInfo
iid:_SecurityFrame__ctor_m3738328608_AdjustorThunk
moj:__ZN15dense_hashtableINSt3__24pairIK10KeyWrapperIPK22Il2CppGenericParameterEPK24MonoGenericParameterInfoEES6_N6il2cpp5utils11PointerHashIS4_EEN14dense_hash_mapIS6_SA_SF_NS6_14EqualsComparerINS0_8equal_toIS5_EEEENS0_9allocatorISB_EEE9SelectKeyESK_SM_EC2ERKSP_j
vGf:_X509Certificate2_Import_m3813388542
J2c:__Z33Canvas_Get_Custom_PropScaleFactorP12Il2CppObject
Iu:__ZNK26AnimatorControllerPlayable21GetStateMachineMemoryEi
w6:__ZNSt3__26__treeINS_12__value_typeI18UnityInterfaceGUIDP15IUnityInterfaceEENS_19__map_value_compareIS2_S5_NS_4lessIS2_EELb1EEE13stl_allocatorIS5_L18MemLabelIdentifier6ELi16EEE7destroyEPNS_11__tree_nodeIS5_PvEE
Vgd:_EvidenceEnumerator_get_Current_m632582639
F0a:__Z15CullLocalLightsR8JobFenceS0_RK22SceneCullingParametersiPK8Vector4fRK13dynamic_arrayIhLj1EER9IndexListSC_PfP5RectTIfEP13TargetEyeMaskPPK5LightRK14ShadowCullData
Kld:_DecoderFallback_get_ReplacementFallback_m2155645318
Hea:__ZNK6Camera16GetTargetTextureEv
BDd:_Convert_ToDateTime_m3528521877
ZGb:__Z35Transfer_Blittable_SingleValueFieldI14SafeBinaryReadyEvRT_R17GeneralMonoObjectRK23StaticTransferFieldInfo
Omb:__ZN8Playable20ClearInputConnectionEi
LVa:__ZN13BatchRenderer12EndLoopFlushEv
ZMd:_Enum_System_IConvertible_ToChar_m1838232954
bPd:_CultureInfo_CreateTextInfo_m2269397562
Yod:_Array_SetValue_m2469980129
B8b:__ZNK6Sprite11GetInnerUVsE20SpriteRenderDataMode
RA:__ZN11UnityEngine9Animation28DestroyAvatarBindingConstantEPNS0_21AvatarBindingConstantERN7mecanim6memory9AllocatorE
qZb:__ZN16MessageForwarder23RegisterMessageCallbackEiPFvPviR11MessageDataEPKN5Unity4TypeE
shj:__ZN6il2cpp2os4File9SetLengthEPNS0_10FileHandleExPi
fi:_gmtime
mi:_emscripten_glUniform3i
Cya:__ZNK7ApiGLES10GetContextEv
Kid:_Single_System_IConvertible_ToInt16_m962677079_AdjustorThunk
PFb:__Z18Transfer_BlittableI14SafeBinaryReadLb1E5RectTIfEEvRK29SerializationCommandArgumentsR31RuntimeSerializationCommandInfo
Sxc:__Z7b2Alloci
_na:__ZN15TextureSettings14SetAnisoLimitsEii
bLb:__Z19TransferField_ArrayI24GenerateTypeTreeTransfer27Converter_SimpleNativeClassI10RectOffsetEEvRK23StaticTransferFieldInfoR31RuntimeSerializationCommandInfoRT0_
J$c:__ZN2UI6Canvas19GetProjectionMatrixEv
Tka:__ZN6prcoreL17RemapGenericFloatI18TexFormatARGBFloat15TexFormatRGHalfEEvPKNS_9InnerInfoE
uQi:_Vector3__ctor_m2720820983
sah:_Mesh_CheckCanAccessSubmeshIndices_m2098382465
fgd:_String_memcpy2_m2338403668
QDh:_InternalEnumerator_1_get_Current_m4154615771_AdjustorThunk
G1g:_GUIUtility_Internal_GetGUIDepth_m1699616910
SY:__GLOBAL__sub_I_runtime_graphics_lod_lump_cpp
Bhe:_Array_InternalArray__set_Item_TisDateTime_t693205669_m197118909_gshared
gXg:_ModuleBuilder_GetToken_m4190668737
b2j:_emscripten_glIsProgram__wrapper
f3b:__ZL22PrepareMeshRenderNodesILb1EEvR35RenderNodeQueuePrepareThreadContext
oX:__ZN20LocalFileSystemPosix5TouchER13FileEntryData
htc:__ZN9JSONWrite8TransferI13dynamic_arrayItLj2EEEEvRT_PKc17TransferMetaFlags
YGg:_NativeEventCalls_SetEvent_internal_m2449488771
Ci:_emscripten_glDrawElements
Ilf:_X509CertificateEnumerator_System_Collections_IEnumerator_MoveNext_m1064716431
ndd:_RSAPKCS1SignatureDeformatter_SetHashAlgorithm_m894366837
Qkf:_X509Certificate_get_DSA_m3959895595
k9g:_Mathf_Round_m227387340
trd:_Boolean_System_IConvertible_ToDouble_m624978277
OKd:_Delegate_get_Method_m2968370506
MWd:_Button__ctor_m975719067
PPi:_UnityException__ctor_m3650417185
BEc:__ZN20SpriteTilingProperty8TransferI14SafeBinaryReadEEvRT_
qJg:_TimeSpan_CompareTo_m2891128664
Js:__ZN9BlobWriteD2Ev
XJi:_PKCS12_AddCertificate_m3637520737
idj:_RestartScript_OnMainMenuClick_m3895437790
dFa:__Z33GetMinimumTextureMipSizeForFormat13TextureFormat
_Fb:__ZL26Transfer_SimpleNativeClassI14SafeBinaryRead8GradientLb0EEvRK29SerializationCommandArgumentsR31RuntimeSerializationCommandInfo
q1j:_emscripten_glClientActiveTexture__wrapper
O9i:__ZNK15dense_hashtableI10KeyWrapperIPK17Il2CppGenericInstES4_N6il2cpp8metadata21Il2CppGenericInstHashEN14dense_hash_setIS4_S7_NS4_14EqualsComparerINS6_24Il2CppGenericInstCompareEEENSt3__29allocatorIS4_EEE8IdentityESB_SE_E4findERKS4_
Cff:_PrimalityTests_RabinMillerTest_m1376858197
oad:_HMACSHA1__ctor_m2027292306
GBg:_SByte_System_IConvertible_ToUInt64_m2174352876_AdjustorThunk
NCg:_DES_Create_m2705450713
KKi:_X509CertificateCollection_Remove_m2722259192
Ede:_Array_InternalArray__IndexOf_TisSingle_t2076509932_m2151846718_gshared
ada:__ZN13RenderTexture23VirtualRedirectTransferER18StreamedBinaryReadILb0EE
RZf:__ZL56StringBuilder_t1221177846_CustomAttributesCacheGeneratorP21CustomAttributesCache
qWe:_NumberFormatter_FormatHexadecimal_m1317851390
JRc:_UNITY_tt_face_lookup_table
wHf:_X509Certificate2Collection_AddRange_m1503879780
F3e:_StreamReader__ctor_m871771009
zfh:_Resources_GetBuiltinResource_m582410469
NVc:_cf2_stack_pushFixed
BBa:__ZN4crnd12crn_unpacker12unpack_dxt5aEPPhjjjjjj
sFi:_AnchorInfo_get_Length_m1721106162
CPi:_Transform_get_childCount_m881385315
Swg:_RemotingConfiguration_RegisterActivatedClientType_m2207611714
lOa:__ZZ23InitPlayerLoopCallbacksvEN45EarlyUpdateScriptRunDelayedStartupFramestruct7ForwardEv
Z0g:_GameObject_GetComponentInChildren_m4263325740
_hh:_Transform_1_Invoke_m1224512163_gshared
yMj:__ZN6il2cpp2os5Mutex4LockEb
hPb:__Z29Transfer_Blittable_ArrayFieldI18StreamedBinaryReadILb1EE8Vector2fEvRT_R9ArrayInfoRK23StaticTransferFieldInfo
Buj:__ZN6il2cpp2vm13LivenessState25FieldCanContainReferencesEP9FieldInfo
lRb:__ZL19RequireCorLibMethodPKcS0_S0_
Bah:_MonoBehaviour_IsInvoking_m1469271462
nub:__ZN15SerializeTraitsI13dynamic_arrayI10BlendShapeLj4EEE19ResizeSTLStyleArrayERS2_i18MemLabelIdentifier
IRf:__ZL111RegionInfo_t3784626978_CustomAttributesCacheGenerator_RegionInfo_t3784626978____CurrencyNativeName_PropertyInfoP21CustomAttributesCache
Sad:_MD5_Create_m1572997499
zmf:_AppDomain_LoadAssembly_m1537679648
Hla:__ZN6prcoreL26RemapGenericIntegerToFloatI17TexFormatARGB888817TexFormatRGBFloatEEvPKNS_9InnerInfoE
rIh:_InternalEnumerator_1_get_Current_m789289033_gshared
Bhj:__ZN6il2cpp2vm14TypeNameParser26ParseTypeArgumentsOptionalERi
R1a:__ZN15LODGroupManager27GarbageCollectCameraLODDataEv
lfa:__ZN11NamedObjectC2E18MemLabelIdentifier18ObjectCreationMode
m7a:__ZN13ScreenManagerC2Ev
VPg:_OrdinalComparer_GetHashCode_m3400975772
vlc:__ZN12GUIClipState20CalculateMouseValuesER10InputEvent
sKb:__Z18Transfer_BlittableI24GenerateTypeTreeTransferLb0E12PropertyNameEvRK29SerializationCommandArgumentsR31RuntimeSerializationCommandInfo
yya:__ZN7ApiGLES4InitERK14GfxContextGLESR16GfxDeviceLevelGL
z4c:__Z31CustomEventData_CUSTOM_AddSByteP12Il2CppObjectP12Il2CppStringa
Goa:__ZNK11LightProbes14LightProbeData33GetLightProbeInterpolationWeightsERK8Vector3fRiR8Vector4fRf
svg:_SoapServices_GetAssemblyName_m2037446159
Nye:_List_1_System_Collections_IList_IndexOf_m3828407883_gshared
gcb:__ZN21UnityDefaultAllocatorI17LowLevelAllocatorED0Ev
XMg:_UInt32_System_IConvertible_ToInt64_m3091851828_AdjustorThunk
nCa:__Z14DecodeBC7BlockP9HDRColorAPKh
S2b:__ZNK24RendererAnimationBinding12GetPPtrValueERKN11UnityEngine9Animation10BoundCurveE
qPa:_UNITY_png_set_IHDR
luf:_ClientSessionCache__cctor_m1134810266
oGi:_CharacterClass_GetIntervalCost_m2706255216
Uyg:_ObjectReader_ReadGenericArray_m788836286
v0g:_NeutralResourcesLanguageAttribute__ctor_m1145808404
TVi:_UnityAction_2_Invoke_m1528820797_gshared
CJj:_GC_new_proc_inner
pc:invoke_fiiffi
Dca:__ZN19RenderBufferManager13GetTempBufferE17RenderTextureDesc
lti:_AnimatorControllerPlayable_GetLayerIndexInternal_m696260605
OWc:_UNITY_FT_Init_Class_cff_service_glyph_dict
Pbd:_RijndaelManagedTransform_TransformFinalBlock_m3663752599
cld:_String_Format_m4262916296
Hpa:__ZL24stbir__filter_catmullromff
Pdf:_SimpleCollator_CompareInternal_m280569710
iSj:__ZNSt3__212basic_stringIcNS_11char_traitsIcEENS_9allocatorIcEEE6__initEPKcjj
IDc:__ZN10ClipperLib7Clipper8AddOutPtEPNS_5TEdgeERKNS_8IntPointE
qMc:__ZN20TextRenderingPrivate15GetFormatStringER11UTF16StringR13dynamic_arrayINS_16TextFormatChangeELj4EE
lF:__Z112Register_UnityEngine_Experimental_Director_AnimatorControllerPlayable_INTERNAL_CALL_CrossFadeInFixedTimeInternalv
TGf:_X509ExtensionEnumerator_get_Current_m3926549773
BWe:_NumberFormatter_IsZeroOnly_m3495795110
EKh:_InternalEnumerator_1_System_Collections_IEnumerator_get_Current_m3732729179_AdjustorThunk
b$e:_Int32_ValidDigit_m2682121722
Ox:__ZN7mecanim9animation12GetHumanPoseIfEEvRKNS0_18ClipMuscleConstantEPKT_RNS_5human9HumanPoseE
k:ABORT
mAg:_SerializationInfo_AddValue_m2342806462
ZIj:_GC_init_headers
RLj:__ZNSt3__26__treeINS_12__value_typeINS_12basic_stringIcNS_11char_traitsIcEENS_9allocatorIcEEEEPFvvEEENS_19__map_value_compareIS7_SA_NS_4lessIS7_EELb1EEENS5_ISA_EEE13__lower_boundIS7_EENS_15__tree_iteratorISA_PNS_11__tree_nodeISA_PvEEiEERKT_SM_SM_
xPc:_UNITY_FT_Init_Class_ft_outline_glyph_class
JDf:_IPv6Address_AsIPv4Int_m3565745471
VFf:_X509BasicConstraintsExtension__ctor_m4017912156
nXj:_glTexStorage3D__wrapper
wUc:_ft_get_adobe_glyph_index
LLj:__ZNSt3__26__treeINS_12__value_typeINS_12basic_stringIcNS_11char_traitsIcEENS_9allocatorIcEEEEPFvvEEENS_19__map_value_compareIS7_SA_NS_4lessIS7_EELb1EEENS5_ISA_EEE25__emplace_unique_key_argsIS7_JRKNS_21piecewise_construct_tENS_5tupleIJOS7_EEENSL_IJEEEEEENS_4pairINS_15__tree_iteratorISA_PNS_11__tree_nodeISA_PvEEiEEbEERKT_DpOT0_
ljc:__Z47Register_UnityEngine_Texture_Internal_GetHeightv
ODb:__Z25scripting_field_get_flags17ScriptingFieldPtr
_1c:__Z50CanvasRenderer_CUSTOM_SplitUIVertexStreamsInternalP12Il2CppObjectS0_S0_S0_S0_S0_S0_
Ivh:_Scrollbar_OnBeginDrag_m574021735
q7h:__Z68RuntimeInvoker_Boolean_t3825574718_Rect_t3681755626_SByte_t454417549PK10MethodInfoPvPS2_
UZg:_MonoEvent_GetObjectData_m4084431065
Yuc:__ZN8JSONRead8TransferIyEEvRT_PKc17TransferMetaFlagsb
KFb:__Z18Transfer_BlittableI14SafeBinaryReadLb0EtEvRK29SerializationCommandArgumentsR31RuntimeSerializationCommandInfo
WBh:_U3CGetEnumeratorU3Ec__Iterator0_MoveNext_m2489948797_gshared
Ube:_Array_BinarySearch_TisIl2CppObject_m2457435347_gshared
$U:__ZNK20DynamicHeapAllocatorI17LowLevelAllocatorE8ContainsEPKv
Dnd:_EncoderReplacementFallbackBuffer_Fallback_m4111893059
bhb:__ZNK13Lz4Compressor14CompressMemoryEPKvjPvPj16CompressionLevel
_tj:__ZN6il2cpp2vm14PlatformInvoke36MarshalCppStringToCSharpStringResultEPKc
C$a:__ZN8Material23GetStencilWriteMaterialEv
R8e:_Math_Log_m3325929366
Qba:__ZNK9ShaderLab11ShaderState16ApplyShaderStateEjPK19ShaderPropertySheetRK17ShaderPassContextP6ShaderPNS_4PassEPNS_11SubProgramsE
JEi:_Assertion__ctor_m1169129098
yib:__ZN10TagManager8TransferI24GenerateTypeTreeTransferEEvRT_
Luh:_ReflectionMethodsCache_get_Singleton_m2330935729
FKf:_InterpreterFactory_get_GroupCount_m1785101782
Nud:_CharEnumerator_Clone_m3844021309
Pgf:_BlockProcessor_Initialize_m3476609078
W7b:__Z35AllocExtractMeshComponentFromScriptRK4Mesh30InternalScriptingShaderChannel34InternalScriptingVertexChannelTypei
fib:__ZN10TagManager23VirtualRedirectTransferER24GenerateTypeTreeTransfer
qSe:_ReadOnlyCollection_1_System_Collections_IList_Remove_m688362945_gshared
Bpa:__ZL23stbir__filter_trapezoidff
AJf:_Key_GetHashCode_m345804220
CJg:_TimeSpan_FromHours_m2521548378
uMd:_Double_System_IConvertible_ToUInt16_m286326038
EH:__ZNK13AudioListener26GetTypeInfoVirtualInternalEv
hWa:__ZN23ScriptableRenderContextD2Ev
DBa:__ZN4crnd12crn_unpacker11unpack_dxt1EPPhjjjjjj
Y8h:__Z153RuntimeInvoker_Vector2_t2243707579_BoundsU26_t1084128289_BoundsU26_t1084128289_SByte_t454417549_SByte_t454417549_Int32_t2071877448_Vector2U26_t3911752445PK10MethodInfoPvPS2_
mkf:_PKCS12__ctor_m3492967071
Skj:__ZN15dense_hashtableINSt3__24pairIK10KeyWrapperINS1_IPK10MethodInfoP11Il2CppClassEEEjEES9_17ReflectionMapHashIS8_EN14dense_hash_mapIS9_jSD_NS9_14EqualsComparerINS0_8equal_toIS8_EEEENS0_9allocatorISB_EEE9SelectKeyESI_SK_E15insert_noresizeERKSB_
CZc:__Z32TextGenerator_CUSTOM_Dispose_cppP12Il2CppObject
Nde:_Array_InternalArray__IndexOf_TisContactPoint2D_t3659330976_m3961643896_gshared
osj:__ZN6il2cpp6icalls8mscorlib6System19ExtractWidenedValueE14Il2CppTypeEnumPv
$Jh:_InternalEnumerator_1_get_Current_m2198364332_gshared
iJj:_GC_invoke_finalizers
zLh:_InternalEnumerator_1_get_Current_m1715820327_gshared
FAb:__ZNSt3__26vectorIN30RuntimeInitializeOnLoadManager9ClassInfoE13stl_allocatorIS2_L18MemLabelIdentifier12ELi16EEE6assignINS_11__wrap_iterIPS2_EEEENS_9enable_ifIXaasr21__is_forward_iteratorIT_EE5valuesr16is_constructibleIS2_NS_15iterator_traitsISC_E9referenceEEE5valueEvE4typeESC_SC_
UFb:__Z18Transfer_BlittableI14SafeBinaryReadLb0E8BitFieldEvRK29SerializationCommandArgumentsR31RuntimeSerializationCommandInfo
nXg:_OpCode_GetHashCode_m2974727122_AdjustorThunk
_Tg:_EnumBuilder_get_BaseType_m63295819
ptd:_Byte_ToString_m1309661918_AdjustorThunk
NOh:_Comparer_1_System_Collections_IComparer_Compare_m1153499515_gshared
E2e:_Directory_CreateDirectoriesInternal_m2817848291
E$e:_Int32_System_IConvertible_ToInt64_m3790029067
_Eh:_InternalEnumerator_1_System_Collections_IEnumerator_get_Current_m3546309124_gshared
w4a:__ZNK10GameObject25QueryComponentByExactTypeEPKN5Unity4TypeE
WFg:_UTF7Encoding_GetDecoder_m396865028
Cfa:__ZNK9ShaderLab22ShaderStencilStateDesc17ToGfxStencilStateEPK19ShaderPropertySheetS3_RK14GfxRasterStateR15GfxStencilState
Yhf:_SmallXmlParser_ReadContent_m4038164984
FLi:_X509Extension_WriteLine_m364247613
XRc:_tt_cmap0_char_next
fbb:__ZN15GUIEventManager10QueueEventERK10InputEvent
oCa:__Z15DecodeBC6HBlockP9HDRColorAPKh
V$e:_Int32_Equals_m753832628_AdjustorThunk
pJj:_GC_malloc_uncollectable
$xd:_CollectionBase_System_Collections_IList_get_IsReadOnly_m2883787483
vab:__ZNK16MemoryFileSystem6ParentERK13FileEntryDataRN4core12basic_stringIcNS3_20StringStorageDefaultIcEEEE
zBb:__ZN20ArchiveStorageHeader13IsArchiveFileER12FileAccessor
p7:__ZN15LODGroupManagerD2Ev
qQg:_Assembly_IsDefined_m2841897391
dhj:__GLOBAL__sub_I_File_cpp
BKa:__ZN12IFileAdapter9SetLengthER13FileEntryDatay
z4d:_InputField_set_lineType_m3589045448
Fic:__Z39SortingLayer_CUSTOM_GetLayerValueFromIDi
ke:_Mix_PlayMusic
ZWc:_cff_cmap_encoding_init
srh:_EqualityComparer_1_System_Collections_IEqualityComparer_GetHashCode_m2460068977_gshared
Rla:__ZN19RuntimeSceneManager24PrepareNewBootstrapSceneEv
Cod:_Array_GetLongLength_m3005360186
G3a:__ZN10SpookyHash7Hash128EPKvjPyS2_
f1a:__ZL60CombineDirectionalShadowCasterCullingIndexListsAndDestroyJobP20ShadowCullingJobData
b_e:_Guid_ToString_m3858592945_AdjustorThunk
bHh:_InternalEnumerator_1_get_Current_m3206960238_gshared
Ovf:_TlsClientCertificate_ProcessAsSsl3_m3634449507
Zgd:_Hash_GetData_m3416116641
Y9c:_HMAC_get_Block_m1367204253
XE:__Z104Register_UnityEngine_Experimental_Director_AnimatorControllerPlayable_INTERNAL_CALL_GetLayerNameInternalv
jUb:__ZN9ShaderLab18SerializedPropertyC2ERKS0_
yUc:_cff_driver_init
T_d:_Dropdown_AlphaFadeList_m511547679
ewb:__ZN14SpriteRenderer10SmartResetEv
uvi:_ResourceReader_LoadResourceValues_m1346096618
lde:_Array_InternalArray__IndexOf_TisDateTime_t693205669_m2327436641_gshared
yWe:_NumberFormatter_RoundDecimal_m176606570
bLf:_Interval_Contains_m3209397137_AdjustorThunk
csb:__ZN16SpriteRenderData8TransferI14SafeBinaryReadEEvRT_
kEd:_Convert_ToDouble_m1714698801
ZPa:_init_block
QTh:__Z88RuntimeInvoker_Int32_t2071877448_Il2CppObject_Il2CppObject_Il2CppObject_SByte_t454417549PK10MethodInfoPvPS2_
jKh:_InternalEnumerator_1_get_Current_m35328337_gshared
_pf:_MD4Managed_Encode_m2097839378
a4b:__ZN6CameraC2E18MemLabelIdentifier18ObjectCreationMode
HVi:_UnityAction_1_Invoke_m3061904506_gshared
n1e:_Int64_ToString_m1544341651
t$a:__ZL31SetRenderStateForStencilMarkingR9GfxDeviceR17ShaderPassContextjj
lNa:__ZN20ArchiveStorageReader20FillChunkCachedBlockEPNS_11CachedBlockE
F3c:__ZNSt3__26__treeINS_12__value_typeIN4core12basic_stringIcNS2_20StringStorageDefaultIcEEEEN11UnityEngine9Analytics15UserCustomEvent11CustomValueEEENS_19__map_value_compareIS6_SB_NS_4lessIS6_EELb1EEE13stl_allocatorISB_L18MemLabelIdentifier5ELi16EEE7destroyEPNS_11__tree_nodeISB_PvEE
ZM:__ZN10AudioMixer16ResumeProcessingEv
ALe:_Collection_1_ConvertItem_m2559468638_gshared
$Di:_Parser_GetMapping_m2879066771
xHb:__ZNSt3__26vectorI17AnimationCurveTplIfE13stl_allocatorIS2_L18MemLabelIdentifier1ELi16EEE7reserveEj
XTd:_PointerEventData_get_dragging_m220490640
P8e:_Math_Ceiling_m614624719
rof:_BigInteger_op_Inequality_m4286929594
Grg:__ZL80CanvasScaler_t2574720772_CustomAttributesCacheGenerator_m_ReferencePixelsPerUnitP21CustomAttributesCache
Qhd:_SecurityException__ctor_m230238597
C0c:__ZN2UI13CanvasManager21EmitGeometryForCameraEP6Camera
Nd:_glClearColor
tWe:_CustomInfo_Parse_m3558073058
Wne:_KeyValuePair_2_get_Value_m1916631176_gshared
hVb:__ZN9ShaderLab16SerializedTagMap8TransferI19StreamedBinaryWriteILb0EEEEvRT_
tkh:_Dictionary_2_InitArrays_m3810830177_gshared
lHc:__ZN17Physics2DSettings16CheckConsistencyEv
Fsj:__ZN6il2cpp6icalls8mscorlib6System9Threading6Thread25SetCachedCurrentUICultureEP12Il2CppThreadP12Il2CppObject
P1j:_glIsVertexArray__wrapper
swg:_RemotingServices_DisposeIdentity_m266836454
ddd:_RSAPKCS1KeyExchangeFormatter_SetRSAKey_m3575964424
LMc:_UNITY_FT_Bitmap_Convert
PCd:_DateTimeUtils_GetStandardPattern_m4198947977
g1a:__Z22CullDirectionalShadowsR9IndexListPK9SceneNodePK4AABBR22DirectionalCullContext
xme:_Array_InternalArray__get_Item_TisUInt16_t986882611_m2599215710_gshared
rPh:_Enumerator_System_Collections_IEnumerator_Reset_m2828524109_gshared
ARg:_Default_IsArrayAssignable_m3862319150
haj:__ZN15dense_hashtableINSt3__24pairIK10KeyWrapperIPK11Il2CppClassEPKcEES6_N6il2cpp5utils11PointerHashIS3_EEN14dense_hash_mapIS6_S9_SE_NS6_14EqualsComparerINS0_8equal_toIS5_EEEENS0_9allocatorISA_EEE9SelectKeyESJ_SL_E4findERS7_
bWe:_NumberFormatter_FastAppendDigits_m2324805728
TS:__ZN11UnityEngine15CloudWebService14RestDownloader7OnAbortEv
jzg:_FormatterServices_GetUninitializedObject_m1786947853
T$c:__ZN2UI6Canvas16UpdateBatchOrderEv
Kma:__ZN13MonoBehaviour26WillUnloadScriptableObjectEv
XYc:_UNITY_FT_Get_Glyph_Name
bTa:__Z13VFormatBufferPciPKcPi
cLb:__Z19TransferField_ArrayI24GenerateTypeTreeTransfer27Converter_SimpleNativeClassI8GradientEEvRK23StaticTransferFieldInfoR31RuntimeSerializationCommandInfoRT0_
Fvi:_ResourceEnumerator_get_Value_m2384033057
uwh:_ScrollRect_get_vertical_m3957330783
L9c:_KeyedHashAlgorithm__ctor_m2868676404
WQ:__ZN11UnityEngine15CloudWebService16SessionContainer16MarkAsDispatchedERKN4core12basic_stringIcNS2_20StringStorageDefaultIcEEEE
wAj:__ZN6il2cpp2vm12GenericClass6IsEnumEP18Il2CppGenericClass
wHc:__ZN17Physics2DSettings8TransferI19StreamedBinaryWriteILb0EEEEvRT_
Rjc:__Z26Transform_CUSTOM_IsChildOfP12Il2CppObjectS0_
kNj:__ZNSt3__26vectorINS_12basic_stringIDsNS_11char_traitsIDsEENS_9allocatorIDsEEEENS4_IS6_EEE18__construct_at_endEj
lji:_AnimatorStateInfo_IsTag_m1529621725
i5g:_GUIStyle__ctor_m2210993436
nff:_BigInteger_op_Subtraction_m2941563507
V2b:__ZN13ProduceHelperI11PreloadDataLb0EE7ProduceE18MemLabelIdentifier18ObjectCreationMode
ogh:_Enumerator_Reset_m3129803197_gshared
Bua:__ZNK13GfxDeviceGLES11GetViewportEv
Zfa:__ZNK9ShaderLab11ShaderState34ShouldRemoveAnyUnsupportedProgramsEv
UYc:_UNITY_tt_face_load_cvt
RSa:__ZN19ShaderPropertySheet29PreallocateArrayUninitializedEN9ShaderLab16FastPropertyNameENS_12PropertyTypeEj
nyi:_CrossAppDomainData__ctor_m899931420
bbj:__ZL32InitializeCustomAttributesCachesPv
jLa:__ZN20ArchiveStorageReaderD0Ev
LRb:__ZN6Shader23VirtualRedirectTransferER19StreamedBinaryWriteILb0EE
Fvd:_ArrayListWrapper__ctor_m3783588291
WBi:_MethodCall_get_MethodBase_m688041003
Nob:__ZNK9Texture2D26GetTypeInfoVirtualInternalEv
xCi:_Match_NextMatch_m1088868049
qSh:__Z63RuntimeInvoker_Il2CppObject_Int16_t4041245914_Int16_t4041245914PK10MethodInfoPvPS2_
LAh:_Text_OnPopulateMesh_m835520031
fnf:_ArgumentOutOfRangeException__ctor_m15523695
Axb:__ZNSt3__214__split_bufferI9InputAxisRNS_9allocatorIS1_EEED2Ev
zqi:_InvokableCall_add_Delegate_m1598143083
sX:__ZNK20LocalFileSystemPosix20GetApplicationFolderEv
YQ:__ZN11UnityEngine15CloudWebService14DataDispatcher31SetupSessionContainerToDispatchEv
Fkc:__Z68Register_UnityEngine_Object_INTERNAL_CALL_Internal_InstantiateSinglev
gRb:__Z29Transfer_Blittable_ArrayFieldI18StreamedBinaryReadILb0EE8Vector3fEvRT_R9ArrayInfoRK23StaticTransferFieldInfo
M9d:_Array_InternalArray__ICollection_Remove_TisResourceInfo_t3933049236_m1768394498_gshared
Wqf:_RSAManaged_get_KeySize_m3478823737
euh:_Shadow_ApplyShadowZeroAlloc_m2132231878
Nfa:__ZN9ShaderLab11shaderprops9GetVectorEPK19ShaderPropertySheetS3_NS_16FastPropertyNameE
FI:__ZN4FMOD12ChannelGroup10getDSPHeadEPPNS_3DSPE
Toe:_Enumerator_System_Collections_IEnumerator_Reset_m610822832_gshared
cCc:__ZN10Collider2D9SetOffsetERK8Vector2f
WH:__ZN12AudioManager17MainThreadCleanupEv
BFg:_UTF32Encoding_GetByteCount_m77034086
WZa:__ZNK6Camera18ScreenToWorldPointERK8Vector3f
ssj:__ZN6il2cpp6icalls8mscorlib6System9Threading6Thread11GetDomainIDEv
Ydh:_Rect_Overlaps_m4145874649_AdjustorThunk
aMa:__ZN17ArchiveFileSystemD0Ev
AHg:_Thread_get_CurrentContext_m3123598616
zXi:__ZL22div192by96to32withRestPyS_S_jjj
d_a:__ZN14qsort_internal5QSortIP20ShadowCasterSortDatai26ShadowCasterSortDataSorterEEvT_S4_T0_T1_
cT:__ZN11UnityEngine15CloudWebService19SessionEventManager5StartERKN4core12basic_stringIcNS2_20StringStorageDefaultIcEEEEii
sHb:__Z22TransferField_NonArrayI14SafeBinaryRead27Converter_SimpleNativeClassI8GradientEEvRK23StaticTransferFieldInfoR31RuntimeSerializationCommandInfoRT0_
Gf:_emscripten_glBufferData
Kf:_glUniform3iv
Z2d:_Image_OnAfterDeserialize_m457193290
uQj:___fseeko
DEc:__ZN20SpriteTilingProperty8TransferI18StreamedBinaryReadILb0EEEEvRT_
YHg:_Thread_GetHashCode_m2038641494
IRb:__ZNK6Shader26GetTypeInfoVirtualInternalEv
Bee:_Array_InternalArray__ICollection_Add_TisInt16_t4041245914_m321723604_gshared
KHg:_Thread_SetCachedCurrentUICulture_m1504514384
H9g:_Matrix4x4_ToString_m1982554457
_Qj:_fwrite
FQd:_BaseInput_get_compositionCursorPos_m3148596268
oQd:_AxisEventData_set_moveVector_m3227339885
B9g:_Matrix4x4_GetHashCode_m3649708037_AdjustorThunk
vih:_Enumerator_MoveNext_m1212551889_gshared
ZCb:__ZN13MonoBehaviourD0Ev
Klf:_X509CertificateEnumerator_Reset_m3421070487
W$c:__ZN2UI6Canvas18UpdateEventIndexesEv
Kud:_CharEnumerator_System_Collections_IEnumerator_get_Current_m1338581333
Qmd:_DecoderFallback__cctor_m215821245
tVe:_Func_2_Invoke_m2968608789_gshared
ARd:_EventSystem_set_current_m1323649628
Xhc:__Z50RectTransform_CUSTOM_INTERNAL_set_anchoredPositionP12Il2CppObjectRK13Vector2fIcall
$Tb:__ZNSt3__26vectorIN9ShaderLab19SerializedSubShaderENS_9allocatorIS2_EEE6resizeEj
oKd:_Decimal_Multiply_m1884379383
Q7a:__ZN4FileC2Ev
dAi:_Context_GetNamedDataSlot_m372993642
xTg:_DerivedType_GetAttributeFlagsImpl_m876862795
Ykj:__ZN15dense_hashtableINSt3__24pairIK10KeyWrapperINS1_IPK10MethodInfoP11Il2CppClassEEEjEES9_17ReflectionMapHashIS8_EN14dense_hash_mapIS9_jSD_NS9_14EqualsComparerINS0_8equal_toIS8_EEEENS0_9allocatorISB_EEE9SelectKeyESI_SK_E12maybe_shrinkEv
Hqa:__ZN14BatchAllocator16AllocateInternalEPPvijjj
K_b:__Z13RegisterClassI6SpriteEvv
kHj:_min_bytes_allocd
IOb:__ZN17AnimationCurveTplIfE15InvalidateCacheEv
Bgc:__Z29Mesh_Get_Custom_PropCanAccessP12Il2CppObject
Hsb:__ZN6Sprite8TransferI19StreamedBinaryWriteILb0EEEEvRT_
Abh:_Object_get_hideFlags_m4158950869
PXi:_IndexedSet_1_Contains_m4188067325_gshared
BIc:__ZN10Collider2D27UpdateColliderMaterialStateEv
ang:__ZL58BaseInputModule_t1295781545_CustomAttributesCacheGeneratorP21CustomAttributesCache
cC:__ZN7mecanim9animation18ControllerConstant15InitializeClassEv
Gfa:__ZNK9ShaderLab6TexEnv11PrepareDataEiiP15GfxTextureParam
hPd:_CompareInfo_internal_compare_managed_m1173317301
Bo:FUNCTION_TABLE_iiiiiiiffiiiiiiiiiffffiiii
i4d:_InputField_get_customCaretColor_m2991404035
yea:__ZNK19StereoRenderTexture7IsEmptyEv
MZe:_Guid_Equals_m2346664749_AdjustorThunk
nK:__ZN29AudioEffectInternalDefinition9CreateDSPEPN4FMOD6SystemEPvPfPP25UnityAudioSpatializerData
Tu:__ZN7mecanim12statemachine20EvaluateStateMachineERKNS0_20StateMachineConstantERKNS0_17StateMachineInputERNS0_18StateMachineOutputERNS0_18StateMachineMemoryERNS0_21StateMachineWorkspaceE
vQi:_Vector3__ctor_m2720820983_AdjustorThunk
Tvf:_SslHandshakeHash_CreateSignature_m3001618400
gMa:__ZN17ArchiveFileSystem5CloseER13FileEntryData
gJj:_GC_notify_or_invoke_finalizers
$Na:__ZZ23InitPlayerLoopCallbacksvEN35PostLateUpdateBatchModeUpdatestruct7ForwardEv
Ygf:_CryptoConvert_ToCapiPrivateKeyBlob_m850465939
iCj:__ZN6il2cpp2os6Thread5SleepEjb
mOb:__ZN18StreamedBinaryReadILb1EE21TransferSTLStyleArrayIN4core12basic_stringIcNS2_20StringStorageDefaultIcEEEEEEvRT_17TransferMetaFlags
__:__ZN15DirectorManagerC2Ev
cKd:_Decimal_Add_m1535064574
jXj:_emscripten_glUniform3f__wrapper
Ln:FUNCTION_TABLE_viiiifii
Zhi:_CustomEventData_Add_m2190835956
TIi:_SubjectAltNameExtension_Decode_m3676245240
PEj:__ZN15dense_hashtableINSt3__24pairIK10KeyWrapperIPK19Il2CppGenericMethodEP10MethodInfoEES6_N6il2cpp8metadata23Il2CppGenericMethodHashEN14dense_hash_mapIS6_S9_SD_NS6_14EqualsComparerINSC_26Il2CppGenericMethodCompareEEENS0_9allocatorISA_EEE9SelectKeyESH_SJ_E4findERS7_
g3g:_RectOffset_set_right_m1671272302
S_e:_Int16_Parse_m4244889614
mib:__ZN10TagManager23AddDefaultLayerIfNeededEv
Rjb:__ZN10FlareLayer12AddToManagerEv
zLe:_Collection_1_IsValidItem_m1082009684_gshared
mFj:__ZN6il2cpp6icalls8mscorlib6System10Reflection10MethodBase31GetMethodFromHandleInternalTypeE12Il2CppIntPtrS5_
mcd:_RIPEMD160Managed_HHH_m1385141959
orj:__ZNK15dense_hashtableINSt3__24pairIK10KeyWrapperINS1_IP11Il2CppClassjEEES4_EES6_N6il2cpp8metadata14ArrayClassHashEN14dense_hash_mapIS6_S4_SB_NS6_14EqualsComparerINSA_17ArrayClassCompareEEENS0_9allocatorIS8_EEE9SelectKeyESF_SH_E12test_deletedEj
d4f:__ZL79X509Chain_t777637347_CustomAttributesCacheGenerator_X509Chain_Build_m2341271288P21CustomAttributesCache
iyb:__ZN13BuildSettings23VirtualRedirectTransferER24GenerateTypeTreeTransfer
UKb:__ZN24GenerateTypeTreeTransfer21TransferSTLStyleArrayINSt3__26vectorI8GUIStyle13stl_allocatorIS3_L18MemLabelIdentifier1ELi16EEEEEEvRT_17TransferMetaFlags
e$:__ZZN15DirectorManager15InitializeClassEvEN26UpdateDirectorUpdatestruct7ForwardEv
sYa:__Z16ApplySHConstantsI28ApplyBuiltinInstancePropertyEvRT_RK20SphericalHarmonicsL2
Ktc:__Z18Transfer_BlittableI8JSONReadLb1E8Vector2fEvRK29SerializationCommandArgumentsR31RuntimeSerializationCommandInfo
gNa:__ZN20ArchiveStorageReader15ReadFromStorageEyyPvPy
_ha:__ZN8Material43AddDefaultShaderPropertiesToSavedPropertiesEv
lGc:__ZNSt3__27__sort4IRN14Raycast2DQuery31RaycastHitsByFractionComparitorEP12RaycastHit2DEEjT0_S6_S6_S6_T_
qXa:__Z19DoPrePassRenderLoopR17RenderLoopContextR13dynamic_arrayI16RenderObjectDataLj4EES4_RK11CullResultsRP13RenderTextureSA_Pb
wV:__ZN13MemoryManager12LowLevelFreeEPvj
g$c:__ZN2UI14CanvasRenderer23VirtualRedirectTransferER24GenerateTypeTreeTransfer
POa:__Z16PresentAfterDrawN9GfxDevice11PresentModeE
_Aa:__ZN10DynamicVBO19FillQuadIndexBufferER21DynamicVBOChunkHandle
zPi:_Transform_INTERNAL_CALL_TransformPoint_m4114689647
vgh:_Enumerator_System_Collections_IDictionaryEnumerator_get_Value_m2325383168_gshared
uZj:_glGenFramebuffers__wrapper
U$j:_glBindBufferBase__wrapper
SCg:_DESCryptoServiceProvider__ctor_m3979608654
vR:__ZN9JSONWrite8TransferIyEEvRT_PKc17TransferMetaFlags
yRg:_Default_CompareCloserType_m1367126249
dTi:_Nullable_1_GetHashCode_m1791015856_gshared
LXa:__ZN22MotionVectorRenderLoop16PerformRenderingER8JobFence
WCe:_List_1_Find_m1809770055_gshared
qhf:_DSAManaged_ImportParameters_m987307570
BS:__ZN11UnityEngine15CloudWebService18RestFileDownloader13OnReceiveDataEPKvj
UXc:_UNITY_TT_RunIns
XXc:_Current_Ppem
$sh:_StencilMaterial_Add_m2540251346
sxh:_ScrollRect_CalculateOffset_m1659273054
Dgf:_ASN1Convert_ToInt32_m2828871616
OEf:_AsnEncodedData__ctor_m1211934482
YFh:_InternalEnumerator_1_System_Collections_IEnumerator_get_Current_m1025729343_AdjustorThunk
dWj:dynCall_iiiiiiiii
lZ:__ZL25InitializeUnityWebStreamsPv
ERb:__ZN6ShaderD0Ev
FKd:_Decimal_ToString_m759431975_AdjustorThunk
bRa:__ZN25CameraStackRenderingState18EndStereoRenderingEv
OW:__ZN20LocalFileSystemPosix9SetLengthER13FileEntryDatay
G$d:_FontData_set_bestFit_m1987821379
VMd:_Enum__cctor_m3214832791
TAf:_HybridDictionary_set_Item_m4049906479
sDh:_InternalEnumerator_1_System_Collections_IEnumerator_get_Current_m1335784110_AdjustorThunk
bkd:_String_IndexOf_m1887352430
bzb:__ZN26PlayerSettingsSplashScreen8TransferI24GenerateTypeTreeTransferEEvRT_
i1d:_Graphic_UnregisterDirtyMaterialCallback_m819829270
dRg:_AssemblyName_SetPublicKey_m1491402438
Eg:_glScissor
h8a:__ZNSt3__26vectorI10vector_mapIiiNS_4lessIiEE13stl_allocatorINS_4pairIiiEEL18MemLabelIdentifier37ELi16EEES4_IS9_LS7_37ELi16EEE21__push_back_slow_pathIKS9_EEvRT_
sDg:_DSACryptoServiceProvider_ExportParameters_m2503144019
BQg:_Assembly_GetName_m790410837
fQ:__Z6simd4fIN6detail9FourTupleEE13Simd4fFactoryIT_ERK13Simd4iFactoryIS3_E
Qva:__ZN13GfxDeviceGLES21RegisterNativeTextureE9TextureIDi16TextureDimension
Eic:__Z44Register_UnityEngine_Material_DisableKeywordv
nn:FUNCTION_TABLE_iiiiiiif
q1g:_Gradient_Init_m4156899649
Fmd:_DecoderExceptionFallback__ctor_m3330792769
sFh:_InternalEnumerator_1_System_Collections_IEnumerator_get_Current_m4259662004_gshared
q0j:_emscripten_glUniform4fv__wrapper
jn:FUNCTION_TABLE_iiiiiiii
Kbd:_RijndaelManaged_CreateEncryptor_m315737265
hLd:_DelegateEntry__ctor_m2996191962
QNh:_DefaultComparer_Compare_m2804119458_gshared
Xhe:_Array_InternalArray__set_Item_TisUInt16_t986882611_m59367493_gshared
vKc:__ZN19ControllerHitReportD2Ev
Pti:_AnimatorControllerPlayable_INTERNAL_CALL_GetNextAnimatorClipInfoInternal_m4165249349
Vii:_Animator_SetTriggerString_m2002790359
Bja:__ZN6prcoreL12RemapGenericI11TexFormatI817TexFormatARGB4444EEvPKNS_9InnerInfoE
qZi:_GenericEqualityComparer_1_Equals_m2469044952_gshared
zHd:_DateTime_System_IConvertible_ToUInt64_m2788957482
xTc:_Bezier_Up
eSi:_SymmetricTransform_CheckInput_m1287204652
aLg:_Type_GetProperty_m1510204374
Zxd:_CollectionBase_System_Collections_IList_Remove_m2931078938
ZDi:_Parser__ctor_m1719025083
lzj:__ZN15dense_hashtableINSt3__24pairIK10KeyWrapperINS1_IPKcS4_EEEiEES6_24NamespaceAndNamePairHashN14dense_hash_mapIS6_iS9_NS6_14EqualsComparerI26NamespaceAndNamePairEqualsEENS0_9allocatorIS8_EEE9SelectKeyESD_SF_EC2ERKSI_j
Pwh:_ScrollRect_set_horizontalScrollbarVisibility_m3790647510
OZ:__ZN15DirectorManager12RegisterJobsEP13PlayableGraph
fnc:__Z38Event_CUSTOM_Internal_GetMousePositionP12Il2CppObjectP13Vector2fIcall
ZS:__ZN11UnityEngine15CloudWebService14DataDispatcher10InitializeERKN4core12basic_stringIcNS2_20StringStorageDefaultIcEEEEPvjRNS0_18ICloudJobSchedulerE
e9c:__ZN22CrashReportingSettingsC2Ev
dWc:_cff_free_glyph_data
Gsc:__ZN9JSONWrite8TransferI13dynamic_arrayIdLj8EEEEvRT_PKc17TransferMetaFlags
OT:__ZN11UnityEngine15CloudWebService14DataDispatcher17PlayerLoopHandlerEv
Ix:__ZN7mecanim13ValueArraySubERKNS_10ValueArrayERS0_PKNS_14ValueArrayMaskE
EMi:_Sprite_get_pixelsPerUnit_m1785791149
$Jd:_Decimal_System_IConvertible_ToUInt64_m2457277336
e7c:__ZN11UnityEngine7Connect15AppRunningEventC2Ejjjj
RYb:__Z15tessGetVerticesP14TESStesselator
H3:__Z26GetManagedAttributeManagerv
pgh:_Enumerator_System_Collections_IEnumerator_Reset_m3225937576_AdjustorThunk
Qcf:_MSCompatUnicodeTable_Category_m3854768527
kOj:__ZN6il2cpp6icalls8mscorlib6System8DateTime16GetTimeMonotonicEv
ISa:__ZN19ComputeShaderKernelC2ERKS_
kIg:_Timer__cctor_m3277205579
bvb:__ZN4Mesh14ClearSkinCacheEv
HLa:__ZNK12HandlerChain12LastModifiedERK13FileEntryData
asc:__Z18Transfer_BlittableI9JSONWriteLb0EjEvRK29SerializationCommandArgumentsR31RuntimeSerializationCommandInfo
wVb:__ZL15GetIndexForNameRNSt3__23mapIN4core12basic_stringIcNS1_20StringStorageDefaultIcEEEEiNS_4lessIS5_EENS_9allocatorINS_4pairIKS5_iEEEEEERSA_
Tg:__exit
YL:__ZN11AudioSource13AwakeFromLoadE17AwakeFromLoadMode
jqi:_Event_get_rawType_m1373640154
lU:__ZNK13EmscriptenWWW6GetETAEv
DKi:_X509CertificateCollection_AddRange_m3644738604
M8c:__ZN11UnityEngine7Connect13ConnectConfigC2Ev
zcb:__ZL31FindActiveTransformWithPathImplPKcR10GameObjectb
Ggf:_BitConverterLE_UShortFromBytes_m2795078058
iYj:_glViewport__wrapper
tUj:dynCall_viffi
Ljg:__ZL68SerializePrivateVariables_t2241034664_CustomAttributesCacheGeneratorP21CustomAttributesCache
Shh:_Transform_1_Invoke_m2770612589_gshared
jWj:b4
mWj:b5
nWj:b6
oWj:b7
fWj:b0
gWj:b1
hWj:b2
rub:__ZN4Mesh8TransferI24GenerateTypeTreeTransferEEvRT_
ptc:__ZN9JSONWrite8TransferI13dynamic_arrayI10ColorRGBAfLj4EEEEvRT_PKc17TransferMetaFlags
pWj:b8
qWj:b9
ccj:__ZN6il2cpp2vm21ThreadPoolCompartmentC2Ev
Aha:__Z14resize_trimmedINSt3__26vectorIN4core12basic_stringIcNS2_20StringStorageDefaultIcEEEE13stl_allocatorIS6_L18MemLabelIdentifier1ELi16EEEEEvRT_j
