Ec:_glClearStencil
See:_Array_InternalArray__ICollection_Add_TisMark_t2724874473_m1613484179_gshared
Oog:__ZL80Graphic_t2426225576_CustomAttributesCacheGenerator_Graphic_OnFillVBO_m1723985607P21CustomAttributesCache
$Ag:_RuntimeTypeHandle_GetObjectData_m3567098501
aDj:__ZN6il2cpp2vm5Array13GetByteLengthEP11Il2CppArray
Xuh:_Raycast3DCallback_BeginInvoke_m3028685017
oWf:__ZL61IRemotingFormatter_t4112065742_CustomAttributesCacheGeneratorP21CustomAttributesCache
EF:__Z102Register_UnityEngine_Experimental_Director_AnimatorControllerPlayable_INTERNAL_CALL_ResetTriggerStringv
XUe:_Comparison_1_Invoke_m353639462_gshared
HNg:_UInt64_System_IConvertible_ToDecimal_m4205696037
w0d:_GraphicRegistry_RegisterGraphicForCanvas_m2284226562
YBa:__Z21SourceMipLevelForBlitiiii
Blb:__ZN31CanvasBatchIntermediateRenderer15AddAsRenderNodeER15RenderNodeQueueRK20DeprecatedSourceData
sVg:_GenericTypeParameterBuilder_GetEvent_m4210567427
aBd:_Enumerator_get_Key_m2908810861
Fei:__Z55RuntimeInvoker_ILTokenInfo_t149559338_Int32_t2071877448PK10MethodInfoPvPS2_
C5c:__ZN11UnityEngine7Connect14AppUpdateEventD0Ev
KU:__ZdlPv
AD:__ZN23AnimationOffsetPlayable11SetRotationE11Quaternionf
zB:__ZN11UnityEngine9Animation28GenericAnimationBindingCacheD2Ev
vWf:__ZL68RemotingSurrogateSelector_t2821375126_CustomAttributesCacheGeneratorP21CustomAttributesCache
Aqh:_EqualityComparer_1__cctor_m968537130_gshared
lre:_List_1_System_Collections_IList_IndexOf_m39706221_gshared
FDd:_Decimal_op_Implicit_m2971610317
gOi:_TextGenerator_get_lineCount_m4287181941
g1d:_Graphic_UnregisterDirtyVerticesCallback_m1526739224
d4a:__Z18RestoreRenderStateR20CameraRenderOldStateR17ShaderPassContext
Hwd:_SynchronizedArrayListWrapper_get_Item_m3309425850
ENb:__Z18Transfer_BlittableI18StreamedBinaryReadILb1EELb1E5RectTIfEEvRK29SerializationCommandArgumentsR31RuntimeSerializationCommandInfo
oKb:__Z18Transfer_BlittableI24GenerateTypeTreeTransferLb0E11ColorRGBA32EvRK29SerializationCommandArgumentsR31RuntimeSerializationCommandInfo
E3:__Z25scripting_class_from_name17ScriptingImagePtrPKcS1_
lpj:__ZN14dense_hash_mapI10KeyWrapperINSt3__24pairIPK12PropertyInfoP11Il2CppClassEEEj17ReflectionMapHashIS8_ENS9_14EqualsComparerINS1_8equal_toIS8_EEEENS1_9allocatorINS2_IKS9_jEEEEE15set_deleted_keyERSH_
dEb:__Z29scripting_class_enum_basetype17ScriptingClassPtr
p1d:_GraphicRaycaster_get_ignoreReversedGraphics_m2757724367
VZj:_emscripten_glDeleteBuffers__wrapper
yGj:__ZN6il2cpp8metadata26Il2CppTypeEqualityComparer8AreEqualEPK10Il2CppTypeS4_
dWg:_GenericTypeParameterBuilder_GetHashCode_m867619899
Edi:__Z79RuntimeInvoker_Void_t1841601450_Int32_t2071877448_ParameterModifier_t1820634920PK10MethodInfoPvPS2_
MJg:_TimeSpan_ToString_m2947282901
Tph:_EqualityComparer_1__cctor_m3397254040_gshared
WW:__ZNK20LocalFileSystemPosix6ParentERK13FileEntryDataRN4core12basic_stringIcNS3_20StringStorageDefaultIcEEEE
e1h:__Z37RuntimeInvoker_ContentType_t859870085PK10MethodInfoPvPS2_
aOi:_TextGenerator_get_verts_m3124035267
paf:_MonoType_CheckMethodSecurity_m4116906190
qQi:_Vector2_get_one_m3174311904
$je:_Array_Sort_TisVector2_t2243707579_m1307634946_gshared
aai:__Z37RuntimeInvoker_Enumerator_t1593300101PK10MethodInfoPvPS2_
zra:__ZN17PersistentManager22CheckInstanceIDsLoadedEPii
Qza:__ZN7ApiGLES17CopyBufferSubDataEjjlll
Wti:_AnimatorControllerPlayable_IsInTransition_m4064534331
A6i:__ZN15dense_hashtableINSt3__24pairIK10KeyWrapperIPKcEP11Il2CppClassEES5_N6il2cpp5utils11StringUtils12StringHasherIS4_EEN14dense_hash_mapIS5_S8_SE_NS5_14EqualsComparerINSC_21CaseSensitiveComparerEEENS0_9allocatorIS9_EEE9SelectKeyESI_SK_E13set_empty_keyERKS9_
H9f:__ZL99Sprite_t309593783_CustomAttributesCacheGenerator_Sprite_get_associatedAlphaSplitTexture_m3617241169P21CustomAttributesCache
O0i:__ZNSt3__26vectorIPK10Il2CppTypeNS_9allocatorIS3_EEE7reserveEj
TSi:_U3CCreateWhereIteratorU3Ec__Iterator1D_1_Reset_m1773515612_gshared
FXa:__ZN25CameraStackRenderingState20GetOrCreateBuiltinRTE24BuiltinRenderTextureTypeii17DepthBufferFormat19RenderTextureFormatj22RenderTextureReadWrite14VRTextureUsagei
S4d:_InputField_get_caretPosition_m1005871812
Zjh:_Dictionary_2__ctor_m3111963761_gshared
ySi:_AesManaged_CreateEncryptor_m1729287824
btb:__ZNK14Texture2DArray26CanReuploadDataToGfxDeviceEv
g0a:__ZN17PrePassRenderLoop14RenderBasePassEP13RenderTextureRK14LightingLayersR13dynamic_arrayI16RenderObjectDataLj4EERbR10MinMaxAABB
Whb:__ZN17GlobalGameManager23VirtualRedirectTransferER17RemapPPtrTransfer
QRc:_sfnt_stream_close
Ltd:_Char_System_IConvertible_ToInt16_m2741348777_AdjustorThunk
Vlc:__ZN5IMGUI18RepaintModalWindowER8GUIState
t3i:__ZL25UnresolvedVirtualCall_129P12Il2CppObject17Color_t2020392075PK10MethodInfo
Tgb:__ZN21ArchiveStorageCreator10InitializeERKN4core12basic_stringIcNS0_20StringStorageDefaultIcEEEEb
T$d:_FontData_get_verticalOverflow_m83665814
LNe:_ReadOnlyCollection_1_System_Collections_Generic_IListU3CTU3E_set_Item_m1547026160_gshared
FPf:__ZL61MarshalAsAttribute_t2900773360_CustomAttributesCacheGeneratorP21CustomAttributesCache
gsb:__Z23SetSpriteMeshIndexCountP14SharedMeshDataj
pca:__ZN7Texture13SetFilterModeEi
ucc:__Z46Register_UnityEngine_Application_get_isPlayingv
OEj:__ZN6il2cpp8metadata13GenericMethod9GetMethodEPK19Il2CppGenericMethod
Cq:__ZNSt3__26vectorIN4core12basic_stringIcNS1_20StringStorageDefaultIcEEEENS_9allocatorIS5_EEE7reserveEj
_Fd:_Convert_ToUInt16_m2130758075
tlj:__ZN15dense_hashtableINSt3__24pairIK10KeyWrapperINS1_IPK11Il2CppImageP11Il2CppClassEEEjEES9_17ReflectionMapHashIS8_EN14dense_hash_mapIS9_jSD_NS9_14EqualsComparerINS0_8equal_toIS8_EEEENS0_9allocatorISB_EEE9SelectKeyESI_SK_E3endEv
ZFf:_X509BasicConstraintsExtension_Encode_m3505127076
Aua:__ZN13GfxDeviceGLES11SetViewportERK5RectTIiE
V2d:_Image_get_pixelsPerUnit_m4104195799
sBh:_Toggle_InternalToggle_m2323729210
RJd:_Decimal_System_IConvertible_ToInt64_m2504363272
Tod:_Array_GetValue_m3182152438
Wd:_emscripten_glDepthRange
$Cg:_DESTransform_CipherFunct_m3559419566
Hai:__Z91RuntimeInvoker_Boolean_t3825574718_TouchScreenKeyboardTypeU26_t2194866306_Int32_t2071877448PK10MethodInfoPvPS2_
uOg:_UIntPtr_get_Size_m537421489
Bbd:_Rijndael_Create_m113171669
m3g:_GUILayoutGroup_CalcWidth_m4107152934
EAg:_RuntimeFieldHandle_get_Value_m3963757144
OSb:__Z14resize_trimmedINSt3__26vectorIN9ShaderLab20SerializedSubProgram12UAVParameterENS0_9allocatorIS4_EEEEEvRT_j
bwg:_SerializationInfo_AddValue_m1781549036
Ntf:_TlsServerKeyExchange_verifySignature_m3641534563
t9b:__ZN13BuildSettings34ConvertScenePathToDisplayScenePathERKN4core12basic_stringIcNS0_20StringStorageDefaultIcEEEE
NJe:_Collection_1_Clear_m445145071_gshared
Gzh:_Slider_FindSelectableOnLeft_m3136767885
LUh:__Z75RuntimeInvoker_Void_t1841601450_Il2CppObject_RuntimeFieldHandle_t2331729674PK10MethodInfoPvPS2_
wBa:__ZN4crndL20crnd_default_reallocEPvjPjbS0_
D0d:__ZN21InterfaceFuncInvoker1IP19Material_t193706927S1_E6InvokeEjP11Il2CppClassP12Il2CppObjectS1_
Qbe:_Array_BinarySearch_TisInt32_t2071877448_m51233948_gshared
C8b:__ZN7Texture11SetWrapModeEi
MRj:__ZNSt3__212basic_stringIcNS_11char_traitsIcEENS_9allocatorIcEEEC2ERKS5_
xwg:_ProviderData_CopyFrom_m431414335
yFg:_UTF32Encoding_GetPreamble_m767706727
djc:__Z33Texture_CUSTOM_Internal_GetHeightP12Il2CppObject
HGe:_Collection_1_System_Collections_IList_Add_m1953936885_gshared
j7d:_LayoutGroup_get_preferredHeight_m3901163825
eWa:__ZN23ScriptableRenderContextC2Ev
tjb:__ZN4PPtrI13RenderTextureE8TransferI18StreamedBinaryReadILb0EEEEvRT_
pDd:_DateTime_AbsoluteDays_m3061694073
kbi:__Z56RuntimeInvoker_Boolean_t3825574718_LabelData_t3712112744PK10MethodInfoPvPS2_
yri:_AnimationClipPlayable_set_speed_m3332297554
NYc:_UNITY_FT_Stream_GetChar
_Nb:__Z18Transfer_BlittableI18StreamedBinaryReadILb1EELb1EdEvRK29SerializationCommandArgumentsR31RuntimeSerializationCommandInfo
jgh:_Enumerator_System_Collections_IEnumerator_get_Current_m229223308_gshared
S4f:__ZL202U3CCreateWhereIteratorU3Ec__Iterator1D_1_t2523986802_CustomAttributesCacheGenerator_U3CCreateWhereIteratorU3Ec__Iterator1D_1_System_Collections_Generic_IEnumerableU3CTSourceU3E_GetEnumerator_m2392330777P21CustomAttributesCache
pEb:__Z26BuildSerializationCacheFor17ScriptingClassPtrRb
Rfj:_il2cpp_class_get_name
lui:_AnimatorControllerPlayable_CrossFadeInFixedTimeInternal_m3729673154
PUf:__ZL55GCHandleType_t1970708122_CustomAttributesCacheGeneratorP21CustomAttributesCache
Rpi:_Event_Init_m3901382626
Gfb:__ZN10FileSystem12MountHandlerEP17FileSystemHandler
qwd:_FixedSizeArrayListWrapper_AddRange_m2071800418
RB:__ZN13ProduceHelperI8AnimatorLb0EE7ProduceE18MemLabelIdentifier18ObjectCreationMode
raa:__Z9InitInputv
bNi:_StateMachineBehaviour_OnStateUpdate_m2021794605
_pe:_Enumerator_VerifyState_m2358705882_AdjustorThunk
gLb:__Z29Transfer_Blittable_ArrayFieldI24GenerateTypeTreeTransfer11ColorRGBA32EvRT_R9ArrayInfoRK23StaticTransferFieldInfo
Wvh:_Selectable_Navigate_m915280351
xmf:_AppDomain_getCurDomain_m591611373
Gab:__ZN16MemoryFileSystem6DeleteER13FileEntryDatab
IQi:_Vector3_get_normalized_m936072361
opa:__ZL21BlitScaleStbImageImplRK14ImageReferenceRS_NS_10ColorSpaceE
sAf:_TlsStream_set_Position_m378064217
rB:__ZN18StreamedBinaryReadILb0EE21TransferSTLStyleArrayI13dynamic_arrayIjLj4EEEEvRT_17TransferMetaFlags
WFc:__ZNSt3__26__sortIR31RayHitsByInverseDepthComparitorP12RaycastHit2DEEvT0_S5_T_
XGb:__Z29Transfer_Blittable_ArrayFieldI14SafeBinaryReadyEvRT_R9ArrayInfoRK23StaticTransferFieldInfo
pM:__ZN20SoundChannelInstance15setChannelGroupEPN4FMOD12ChannelGroupE
Pgd:_Evidence_Equals_m2325859915
nRg:_Default__ctor_m172834064
sc:invoke_vifffii
dng:__ZL77StandaloneInputModule_t70867863_CustomAttributesCacheGenerator_m_VerticalAxisP21CustomAttributesCache
pBb:__ZN20ArchiveStorageReader17MakeStorageUnusedEv
ZEi:_Regex_IsMatch_m2159202025
LKa:__ZNK25MultiBlocksMemoryFileData5CloneEv
zJj:_GC_add_ext_descriptor
PKj:__ZN6il2cpp2os14WindowsRuntime22GetRestrictedErrorInfoEv
l3d:_Image_CalculateLayoutInputHorizontal_m3275149860
rxg:_RemotingServices_GetMethodBaseFromName_m3271095947
m0h:__Z71RuntimeInvoker_TimeSpan_t3430258949_Double_t4078015681_Int64_t909078037PK10MethodInfoPvPS2_
BMa:__ZN17ArchiveFileSystem11CreateAsDirER13FileEntryData
e3i:__ZL25UnresolvedVirtualCall_114P12Il2CppObjectssaaaPK10MethodInfo
QTj:dynCall_iiiiiiiiiiii
kmd:_ASCIIEncoding_GetBytes_m3617160053
tLh:_InternalEnumerator_1_MoveNext_m2289229080_AdjustorThunk
Rsf:_CipherSuiteCollection_System_Collections_IList_RemoveAt_m143866082
QC:__ZN26AnimatorControllerPlayable26ParameterControlledByCurveEi
xta:__ZN22VertexDeclarationCacheD0Ev
_Wb:__ZL26KeywordSetToStringDontSortRKNSt3__26vectorIN4core12basic_stringIcNS1_20StringStorageDefaultIcEEEENS_9allocatorIS5_EEEERS5_
L4c:__Z54Register_UnityEngine_Analytics_CustomEventData_AddCharv
zka:__ZN6prcoreL17RemapGenericFloatI16TexFormatRGFloat17TexFormatRGBAHalfEEvPKNS_9InnerInfoE
bgb:__ZNK21AssetBundleFileSystem8PositionERK13FileEntryData
SG:__ZN12AudioManager22CreateFMODSoundFromWWWEP10IWWWStream15FMOD_SOUND_TYPE17FMOD_SOUND_FORMATjjbbP10SampleClip
H2b:__ZNK32RendererMaterialAnimationBinding15GenerateBindingERKN4core12basic_stringIcNS0_20StringStorageDefaultIcEEEEbRN11UnityEngine9Animation14GenericBindingE
Tlj:__ZN24dense_hashtable_iteratorINSt3__24pairIK10KeyWrapperINS1_IPK11Il2CppImageP11Il2CppClassEEEjEES9_17ReflectionMapHashIS8_EN14dense_hash_mapIS9_jSD_NS9_14EqualsComparerINS0_8equal_toIS8_EEEENS0_9allocatorISB_EEE9SelectKeyESI_SK_E30advance_past_empty_and_deletedEv
kri:_UnityEventBase_UnityEngine_ISerializationCallbackReceiver_OnBeforeSerialize_m1773826808
Pnh:_DefaultComparer_GetHashCode_m361278435_gshared
U2:__ZN8Remapper23GetOrGenerateInstanceIDERK26SerializedObjectIdentifier
a7e:_StreamWriter_Flush_m3426120024
HMa:__ZN17FileSystemHandler10AtomicMoveER13FileEntryDataS1_
Ya:invoke_iiiiiifffiiifii
G4e:_MemoryStream__ctor_m1489366847
ihd:_SecurityElement_IsValidTag_m64902195
mgh:_Enumerator_System_Collections_IEnumerator_get_Current_m229223308_AdjustorThunk
d0g:_PropertyInfo_SetValue_m2961483868
B2g:_GUILayoutEntry_set_style_m70917293
Swe:_List_1_System_Collections_IList_Contains_m4193366963_gshared
_Wi:_UnityEvent_3_FindMethod_Impl_m1889846153_gshared
mug:_DictionaryEnumerator_get_Value_m1915638953
LRg:_ConstructorInfo_Invoke_m2144827141
vag:__ZL82Object_t1021602117_CustomAttributesCacheGenerator_Object_get_hideFlags_m4158950869P21CustomAttributesCache
tsb:__ZN6Sprite8TransferI24GenerateTypeTreeTransferEEvRT_
hkc:__Z48Register_UnityEngine_Transform_SetAsFirstSiblingv
N0g:_Font_get_fontSize_m1732593415
vsb:__ZN7SubMesh8TransferI24GenerateTypeTreeTransferEEvRT_
Knj:__ZN14dense_hash_mapI10KeyWrapperIPK14Il2CppAssemblyEPK16MonoAssemblyNameN6il2cpp5utils11PointerHashIS2_EENS4_14EqualsComparerINSt3__28equal_toIS3_EEEENSD_9allocatorINSD_4pairIKS4_S7_EEEEE13set_empty_keyERSJ_
h$g:_MonoProperty_get_CanWrite_m2124922514
Xrf:_CipherSuite_get_HashAlgorithmType_m3902365773
cai:__Z36RuntimeInvoker_Enumerator_t132208513PK10MethodInfoPvPS2_
Fbi:__Z112RuntimeInvoker_Int32_t2071877448_Il2CppObject_Int32_t2071877448_Int32_t2071877448_Int32_t2071877448_Il2CppObjectPK10MethodInfoPvPS2_
OQj:_poll
s4e:_Stream_BeginRead_m1985960185
o5g:_GUIStyle_GetFontInternalDuringLoadingThread_m229734483
u0b:__ZN13ProduceHelperI14Texture2DArrayLb0EE7ProduceE18MemLabelIdentifier18ObjectCreationMode
fqf:_MD4Managed_GG_m1462438360
Dgc:__Z46Mesh_CUSTOM_PrintErrorCantAccessMeshForIndicesP12Il2CppObject
Wbc:__ZN9Transform23SetSiblingIndexInternalEib
Pxh:_ScrollRect_get_minWidth_m3151814267
g2e:_BinaryReader_CheckBuffer_m1059275266
Nua:__ZN13GfxDeviceGLES17DestroySubProgramEPN9ShaderLab10SubProgramE
Dx:__ZN7mecanim5human12HumanPoseSubERNS0_9HumanPoseERKS1_S4_
Tpf:_MD4_Create_m2582504069
t_i:_HashSet_1_System_Collections_IEnumerable_GetEnumerator_m2498631708_gshared
Zwj:__ZN6il2cpp8metadata15GenericMetadata15GetGenericClassEiPK17Il2CppGenericInst
wrd:_Boolean_System_IConvertible_ToInt16_m977801621
QFb:__Z18Transfer_BlittableI14SafeBinaryReadLb0E10Matrix4x4fEvRK29SerializationCommandArgumentsR31RuntimeSerializationCommandInfo
uOa:__Z24GetFixedBehaviourManagerv
DUa:__ZN12FlareManager9UpdateJobEP25FlareManagerUpdateJobData
hcj:__ZN6il2cpp2vm10ThreadPool4WaitEP17Il2CppAsyncResultPPv
ZOj:_vfprintf
dwg:_SerializationException__ctor_m1019897788
Qii:_Debug_get_logger_m4173808038
Cia:__ZL13SortTexByNameRKNSt3__24pairIN9ShaderLab16FastPropertyNameEN18UnityPropertySheet11UnityTexEnvEEES7_
qVa:__ZN20DynamicPropertySheetD0Ev
u8a:__ZN14SafeBinaryRead17RegisterConverterEPKcS1_PFbPvRS_E
qZ:__ZN35RegisterRuntimeInitializeAndCleanup8RegisterEPFvPvES2_iS0_
Rqj:__ZNSt3__26vectorIN6il2cpp8metadata18GenericArrayMethodENS_9allocatorIS3_EEE7reserveEj
nqd:_AsyncCallback__ctor_m3071689932
sTe:_ReadOnlyCollection_1_System_Collections_IList_Clear_m2600246370_gshared
tCc:__ZN4PPtrI17PhysicsMaterial2DE8TransferI18StreamedBinaryReadILb0EEEEvRT_
n5h:__Z74RuntimeInvoker_Void_t1841601450_PlayableHandleU26_t3483893774_Il2CppObjectPK10MethodInfoPvPS2_
l4h:__Z135RuntimeInvoker_RaycastHit2D_t4063908774_Vector2_t2243707579_Vector2_t2243707579_Single_t2076509932_Int32_t2071877448_Single_t2076509932PK10MethodInfoPvPS2_
$5h:__Z41RuntimeInvoker_EventModifiers_t2690251474PK10MethodInfoPvPS2_
ohf:_DSAManaged_NormalizeArray_m2287089393
qkc:__Z21Object_CUSTOM_DestroyP12Il2CppObjectf
cMh:_InternalEnumerator_1_System_Collections_IEnumerator_get_Current_m2389982234_AdjustorThunk
yOa:__ZN8Material26ResetAllCachedMaterialDataEP6Shader
lyh:_Selectable_get_interactable_m1725029500
YYc:_UNITY_TT_Get_MM_Var
vXi:__ZN6il2cpp6icalls8mscorlib6System7Decimal13decimal2Int64EP19il2cpp_decimal_reprPx
ba:invoke_diddi
bTd:_ExecuteEvents__cctor_m288775360
o_c:__ZNK2UI6Canvas13GetRenderModeEv
uEd:_Double_TryParseStringConstant_m2585405703
oFb:__Z18Transfer_BlittableI14SafeBinaryReadLb0EiEvRK29SerializationCommandArgumentsR31RuntimeSerializationCommandInfo
Xaj:__ZN6il2cpp2vm13MetadataCache30GetPropertyDefinitionFromIndexEi
xvi:_ResourceEnumerator__ctor_m1679839941
Mbd:_RijndaelTransform_Clear_m1652144089
mle:_BaseInvokableCall_ThrowOnInvalidArg_TisIl2CppObject_m1349548392_gshared
J7c:__ZN22BaseUnityConnectClient17InitializeSessionERKN4core12basic_stringIcNS0_20StringStorageDefaultIcEEEES6_N19CloudServiceHandler13InitModeFlagsE
vQh:__Z57RuntimeInvoker_Void_t1841601450_Il2CppObject_Il2CppObjectPK10MethodInfoPvPS2_
Kbf:_NumberFormatter_get_IsZero_m1325357749
FNd:_Enum_ToObject_m322320225
EPh:_Enumerator_get_Current_m2754383612_gshared
phc:__ZN13MonoBehaviour34StopCoroutineFromEnumeratorManagedE18ScriptingObjectPtr
vfd:_X509Certificate__ctor_m3860837120
sQc:_gray_raster_reset
CF:__Z100Register_UnityEngine_Experimental_Director_AnimatorControllerPlayable_INTERNAL_CALL_SetTriggerStringv
T0g:_GameObject_Internal_CreateGameObject_m3428198595
Qli:_Camera_RaycastTry2D_m755036866
nTe:_ReadOnlyCollection_1_System_Collections_Generic_IListU3CTU3E_set_Item_m3663361643_gshared
dC:__ZN7mecanim9animation14AvatarConstant15InitializeClassEv
$wc:__ZN11UnityEngine9Analytics18SceneLoadTimeEvent12SetSceneLoadERKN4core12basic_stringIcNS2_20StringStorageDefaultIcEEEEiyyyy
wti:_AnimatorControllerPlayable_GetCurrentAnimatorStateInfo_m689786022
TAb:__ZN30RuntimeInitializeOnLoadManager8TransferI18StreamedBinaryReadILb0EEEEvRT_
vmh:_Dictionary_2__ctor_m1206668798_gshared
nUg:_TypeBuilder_not_supported_m3178173643
bRc:_UNITY_tt_face_load_pclt
SBb:__ZN21ArchiveStorageCreator14StoreDirectoryEv
Nac:__ZL34GetComponentsImplementationRecurseILb1ELi0ELi2EEbR10GameObjectbRK17CompareParametersRK39GetComponentsImplementation_ReturnValue
tDc:__ZN10ClipperLib7Clipper24InsertLocalMinimaIntoAELEx
jMj:__ZN6il2cpp6icalls8mscorlib6System9Threading5Mutex20CreateMutex_internalEbP12Il2CppStringPb
Pwc:__ZNK27PerformanceReportingManager26GetTypeInfoVirtualInternalEv
k_h:__Z50RuntimeInvoker_Int16_t4041245914_Int16_t4041245914PK10MethodInfoPvPS2_
Zvd:_ArrayListWrapper_Remove_m1105489978
EUa:__ZNK6Camera18WorldToScreenPointERK8Vector3fPb
s3c:__ZN14UnityAnalyticsD0Ev
Vrd:_Boolean_CompareTo_m3691698947_AdjustorThunk
Amg:__ZL109PointerEventData_t1599784723_CustomAttributesCacheGenerator_PointerEventData_get_eligibleForClick_m2497780621P21CustomAttributesCache
Rzd:_HashKeys_CopyTo_m3566668422
HHh:_InternalEnumerator_1_Dispose_m549215360_AdjustorThunk
Ttd:_Convert_ToSByte_m2665932200
h2:__ZNSt3__227__insertion_sort_incompleteIRPFbRKN18AwakeFromLoadQueue4ItemES4_EPS2_EEbT0_S9_T_
PJi:_PKCS12_Encrypt_m2154408631
iTg:_ILGenerator_label_fixup_m1325994348
pCg:_Base64Constants__cctor_m1807522504
zbe:_Array_InternalArray__IEnumerable_GetEnumerator_TisContactPoint2D_t3659330976_m478005999_gshared
$th:_Navigation_Equals_m4214630671_AdjustorThunk
zQe:_ReadOnlyCollection_1_System_Collections_Generic_IListU3CTU3E_set_Item_m257196015_gshared
vYg:_FieldInfo_GetPseudoCustomAttributes_m2500972355
Dpb:__ZN26EnlightenSystemInformation8TransferI14SafeBinaryReadEEvRT_
_le:_Array_InternalArray__get_Item_TisLink_t2723257478_m2281261655_gshared
Avb:__ZN12MeshRendererD0Ev
xGi:_ExpressionAssertion_IsComplex_m783019628
Syd:_Hashtable__ctor_m2702360557
Fh:_utime
dXe:_DateTimeFormatInfo_get_RawAbbreviatedDayNames_m3998113647
Voh:_DefaultComparer_GetHashCode_m2596628120_gshared
Fof:_PrimalityTest_Invoke_m4058801829
fxg:_RemotingConfiguration_SetCustomErrorsMode_m1844153208
yn:FUNCTION_TABLE_viiiiii
Rbi:__Z84RuntimeInvoker_Int32_t2071877448_Il2CppObject_CustomAttributeNamedArgument_t94157543PK10MethodInfoPvPS2_
bcg:__ZL98Physics2D_t2540166467_CustomAttributesCacheGenerator_Physics2D_GetColliderFromInstanceID_m95920619P21CustomAttributesCache
aQd:_CultureInfo_GetFormat_m3560116485
QA:__ZN7mecanim9animation22DestroyAvatarWorkspaceEPNS0_15AvatarWorkspaceERNS_6memory9AllocatorE
VLi:_ScriptableObject_CreateInstance_m3271154163
Tud:__ZN21InterfaceFuncInvoker0IiE6InvokeEjP11Il2CppClassP12Il2CppObject
vJf:_FactoryCache__ctor_m254400436
zFi:_AnchorInfo_get_IsPosition_m3791659233
zde:_Array_InternalArray__IndexOf_TisResourceCacheItem_t333236149_m761772858_gshared
Qlc:__ZNSt3__210__list_impIN10GUIManager12SortedScriptE11memory_poolIS2_EE5clearEv
_$f:__ZL76Convert_t2607082565_CustomAttributesCacheGenerator_Convert_ToInt64_m44696721P21CustomAttributesCache
Wmb:__ZN14PlayableOutput17SetSourcePlayableEP8Playable
Bxg:_TrackingServices__cctor_m3639412334
DUi:_InvokableCall_1_add_Delegate_m3068046591_gshared
woc:__Z32GUIStyle_Set_Custom_PropRichTextP12Il2CppObjecth
Fu:__ZN7mecanim9animation29MotionOutputGetDeltaTransformEPKNS0_12MotionOutputE
q_b:__Z13RegisterClassI16GraphicsSettingsEvv
Qjh:_ValueCollection_System_Collections_IEnumerable_GetEnumerator_m1773104428_gshared
_wc:__ZN27PerformanceReportingManager21OnSceneTimingCallbackERK15SceneLoadTimingRKN4core12basic_stringIcNS3_20StringStorageDefaultIcEEEE
AC:__ZN8Animator14OnAddComponentEPN5Unity9ComponentE
XCe:_List_1_CheckMatch_m1184924052_gshared
Fjc:__Z43Transform_CUSTOM_INTERNAL_get_localRotationP12Il2CppObjectP11Quaternionf
yOi:_Touch_get_fingerId_m4109475843_AdjustorThunk
$Xj:_glGetShaderInfoLog__wrapper
gi:_emscripten_glGetTexParameteriv
Ewe:_List_1_ToArray_m3752387798_gshared
ywh:_ScrollRect_get_elasticity_m3987376518
arf:_RSAManaged_ImportParameters_m3060955884
clf:_DeriveBytes__ctor_m3089550878
Vxi:_ChannelData_CopyFrom_m4049054607
w_b:__Z13RegisterClassI4MeshEvv
Vlg:__ZL94AxisEventData_t1524870173_CustomAttributesCacheGenerator_AxisEventData_get_moveDir_m3968662359P21CustomAttributesCache
Fce:_Array_FindLastIndex_TisIl2CppObject_m869210470_gshared
Amb:__ZN8PlayableD0Ev
hI:__ZN12AudioManager8TransferI19StreamedBinaryWriteILb0EEEEvRT_
Z4e:_WriteDelegate_Invoke_m2103848735
Dxe:_List_1_get_Capacity_m4262042666_gshared
oLi:_X509Crl_get_IssuerName_m756409840
POb:__ZN18StreamedBinaryReadILb1EE21TransferSTLStyleArrayI13dynamic_arrayI11ColorRGBA32Lj4EEEEvRT_17TransferMetaFlags
Yhh:_Transform_1_EndInvoke_m687617772_gshared
eBa:__ZN18AsyncUploadManager19AsyncResourceUploadER9GfxDeviceii9TextureID
Jdi:__Z66RuntimeInvoker_Void_t1841601450_Int32_t2071877448_Mark_t2724874473PK10MethodInfoPvPS2_
SRi:_Locale_GetText_m512920887
G2b:__ZNK32RendererMaterialAnimationBinding12GetPPtrValueERKN11UnityEngine9Animation10BoundCurveE
CPb:__Z18Transfer_BlittableI18StreamedBinaryReadILb0EELb0E8Vector2fEvRK29SerializationCommandArgumentsR31RuntimeSerializationCommandInfo
Pwg:_RemotingConfiguration_get_ProcessId_m3870172209
V0c:__ZN2UI11CanvasGroup12CleanupClassEv
Ffh:_SceneManager_LoadScene_m1386820036
$Ye:_SortKey_ToString_m2406913228
mX:__ZN22LocalFileSystemHandler9MakeLocalER13FileEntryDatab
TFj:__ZN6il2cpp2vm8Profiler10AllocationEP12Il2CppObjectP11Il2CppClass
ADd:_Convert_ToDateTime_m1020507389
c5b:__ZNK9HPlayable7IsValidEv
VNc:__ZNSt3__23mapIN20TextRenderingPrivate7FontRefENS1_6OSFontENS_4lessIS2_EENS_9allocatorINS_4pairIKS2_S3_EEEEEixERS8_
U2e:_Path_IsPathRooted_m1347207448
Nyg:_ObjectManager_RegisterObjectInternal_m879109503
g8d:_Array_get_swapper_TisVector4_t2243707581_m97441823_gshared
Bra:__ZNSt3__26__sortIRNS_4lessIiEEPiEEvT0_S5_T_
cLc:__ZN14SafeBinaryRead21TransferSTLStyleArrayI10vector_mapINSt3__24pairIttEEfN20TextRenderingPrivate8FontImpl14KerningCompareENS2_9allocatorINS3_IS4_fEEEEEEEvRT_17TransferMetaFlags
T_b:__Z13RegisterClassI15QualitySettingsEvv
dFj:__ZN6il2cpp2vm6String21InitializeEmptyStringEP11Il2CppClass
X$a:__ZN25DeferredRenderLoopScratchD0Ev
Jy:__ZN27AnimationLayerMixerPlayable14SetInputWeightEif
zx:__ZN7mecanim9animation17EvaluateHumanPoseERKNS0_18ClipMuscleConstantERKNS0_15ClipMuscleInputEPKfRKNS0_12MotionOutputERNS_5human9HumanPoseE
$Zf:__ZL90UTF7Encoding_t741406939_CustomAttributesCacheGenerator_UTF7Encoding_GetHashCode_m359766848P21CustomAttributesCache
tTh:__Z52RuntimeInvoker_Decimal_t724701077_Single_t2076509932PK10MethodInfoPvPS2_
gJc:__ZN14dense_hash_mapINSt3__24pairIPK10Collider2DS4_EE11Collision2DNS2_23ColliderPairHashFunctorENS0_8equal_toIS5_EE13stl_allocatorINS1_IKS5_S6_EEL18MemLabelIdentifier65ELi16EEE15set_deleted_keyERSB_
BSb:__ZN15dense_hashtableINSt3__24pairIKiN4core17string_with_labelILi1EEEEEi18SInt32HashFunctionN14dense_hash_mapIiS5_S7_NS0_8equal_toIiEE13stl_allocatorIS6_L18MemLabelIdentifier1ELi16EEE9SelectKeyESA_SD_E9copy_fromERKSG_j
Dea:__ZN6Camera11ResetAspectEv
q3f:__ZL62SecurityProtocolType_t155967584_CustomAttributesCacheGeneratorP21CustomAttributesCache
DTa:__ZNSt3__227__insertion_sort_incompleteIRPFbP10GUIElementS2_EPS2_EEbT0_S7_T_
$Ff:_X509BasicConstraintsExtension_get_HasPathLengthConstraint_m3788532759
ylb:__ZNK17InstancedPropInfo22FillInstancePropertiesER19ShaderPropertySheetjPK17BatchInstanceDatajRK15RenderNodeQueue
aga:__ZN22CreateGpuProgramOutputD2Ev
QLb:__Z18Transfer_BlittableI19StreamedBinaryWriteILb0EELb1EsEvRK29SerializationCommandArgumentsR31RuntimeSerializationCommandInfo
Xcd:_RSACryptoServiceProvider_EncryptValue_m802714447
avj:__ZN6il2cpp6icalls8mscorlib6System2IO6MonoIO9SetLengthE12Il2CppIntPtrxPi
bNj:__ZN6il2cpp8metadata22Il2CppSignatureCompare6EqualsERK13dynamic_arrayIPK10Il2CppTypeLj4EES8_
x$f:__ZL76Convert_t2607082565_CustomAttributesCacheGenerator_Convert_ToByte_m932798552P21CustomAttributesCache
xO:__ZN13ProduceHelperI13AudioListenerLb0EE7ProduceE18MemLabelIdentifier18ObjectCreationMode
mse:_List_1_System_Collections_ICollection_get_SyncRoot_m1594235606_gshared
KVe:_DateTimeFormatInfo_GetInstance_m3133223810
Znf:_ModulusRing_BarrettReduction_m2802101099
YUh:__Z57RuntimeInvoker_ExtenderType_t1556892101_Int32_t2071877448PK10MethodInfoPvPS2_
mLa:__ZN12HandlerChain4OpenER13FileEntryData14FilePermission16FileAutoBehavior
$gi:__Z76RuntimeInvoker_Il2CppObject_UILineInfo_t3621277874_Il2CppObject_Il2CppObjectPK10MethodInfoPvPS2_
prh:_EqualityComparer_1_get_Default_m2134906921_gshared
oZg:_MonoMethodInfo_GetParametersInfo_m3456861922
wfi:__Z37RuntimeInvoker_UILineInfo_t3621277874PK10MethodInfoPvPS2_
hxc:__ZN27PerformanceReportingManager29OnSceneLoadedAfterAwakeStaticEPS_iR18AwakeFromLoadQueueN19RuntimeSceneManager11LoadingModeE
V4:__ZN14FileCacherReadD2Ev
Fqa:__ZN13RendererScene23UpdatePreviousFrameDataEii
pdd:_RSAPKCS1SignatureDeformatter_VerifySignature_m1825067195
n3i:__ZL25UnresolvedVirtualCall_123P12Il2CppObjectffPK10MethodInfo
jec:__Z50Register_UnityEngine_CullingGroup_FinalizerFailurev
roe:_KeyValuePair_2_ToString_m2613351884_gshared
gma:__ZN27UnloadUnusedAssetsOperationD0Ev
Hjb:__ZN6Camera15ThreadedCleanupEv
kz:__ZN26AnimatorControllerPlayable6MemoryD2Ev
Ung:__ZL69ColorBlock_t2652774230_CustomAttributesCacheGenerator_m_DisabledColorP21CustomAttributesCache
_rf:_CipherSuite_get_Code_m3902213587
bvh:_Scrollbar__ctor_m2244981801
Yuj:__ZN6il2cpp6icalls8mscorlib6System2IO6MonoIO9GetLengthE12Il2CppIntPtrPi
Qzg:_ObjectRecord_get_HasPendingFixups_m670959802
Udd:_SHA256Managed_HashCore_m4111458495
SPd:_CultureInfo_get_CompareInfo_m3085280862
pQf:__ZL55Dictionary_2_t2276497324_CustomAttributesCacheGeneratorP21CustomAttributesCache
Ozg:_ObjectManager_RecordDelayedFixup_m1895730844
hwj:__ZNK15dense_hashtableINSt3__24pairIK10KeyWrapperIP14Il2CppIUnknownEjEES5_N6il2cpp5utils11PointerHashIS3_EEN14dense_hash_mapIS5_jSB_NS5_14EqualsComparerINS0_8equal_toIS4_EEEENS0_9allocatorIS7_EEE9SelectKeyESG_SI_E12test_deletedERK24dense_hashtable_iteratorIS7_S5_SB_SK_SG_SI_E
rpd:_ArrayTypeMismatchException__ctor_m1898555879
Tye:_List_1_System_Collections_IList_get_IsFixedSize_m3522184224_gshared
hG:__ZN9AudioClip23VirtualRedirectTransferER18StreamedBinaryReadILb0EE
ruf:_ClientSessionInfo_CheckDisposed_m1394638186
QBg:_SByte_Parse_m2544167007
$id:_Single_CompareTo_m2081476257
FLd:_StackFrame_GetILOffset_m115192054
V6h:__Z61RuntimeInvoker_Boolean_t3825574718_Int32_t2071877448_IntPtr_tPK10MethodInfoPvPS2_
Zdb:__ZN24GenerateTypeTreeTransfer8TransferIN11AssetBundle9AssetInfoEEEvRT_PKc17TransferMetaFlags
dBg:_RuntimeTypeHandle_GetHashCode_m3697629454_AdjustorThunk
Def:_BigInteger__ctor_m2945783161
bwf:_TlsClientHello_Update_m1723542631
EWf:__ZL96ProxyAttribute_t4031752430_CustomAttributesCacheGenerator_ProxyAttribute_IsContextOK_m2391079277P21CustomAttributesCache
e_e:_IndexOutOfRangeException__ctor_m3497760912
XRe:_ReadOnlyCollection_1_CopyTo_m1652036789_gshared
Fj:_glCopyTexSubImage2D
Kgg:__ZL61GUISkin_t1436893342_CustomAttributesCacheGenerator_m_textAreaP21CustomAttributesCache
P2b:__ZNK24RendererAnimationBinding13GetFloatValueERKN11UnityEngine9Animation10BoundCurveE
DFe:_Collection_1_Insert_m3594407958_gshared
lQa:_UNITY_png_write_zTXt
eW:__ZN18ScreenManagerWebGL13SetShowCursorEb
QFj:__ZN6il2cpp6icalls8mscorlib6System7Convert24InternalFromBase64StringEP12Il2CppStringb
INa:__ZZ23InitPlayerLoopCallbacksvEN37EarlyUpdateProcessMouseInWindowstruct7ForwardEv
QAh:_Text_get_preferredWidth_m3352156860
MQg:_AssemblyCompanyAttribute__ctor_m1217508649
Y0c:__ZN2UI13CanvasManager14GetRenderOrderEPKNS_6CanvasE
OFb:__Z18Transfer_BlittableI14SafeBinaryReadLb0E5RectTIfEEvRK29SerializationCommandArgumentsR31RuntimeSerializationCommandInfo
Rgi:__Z93RuntimeInvoker_Il2CppObject_Vector2_t2243707579_Vector2_t2243707579_Il2CppObject_Il2CppObjectPK10MethodInfoPvPS2_
DRe:_ReadOnlyCollection_1_System_Collections_Generic_IListU3CTU3E_RemoveAt_m878653284_gshared
QVe:_DateTimeFormatInfo_GetFormat_m3676195179
nAa:__ZN14GfxContextGLES14GetFramebufferEv
k_j:_emscripten_glGenVertexArrays__wrapper
W3h:__Z36RuntimeInvoker_HideFlags_t1434274199PK10MethodInfoPvPS2_
oja:__ZN6prcoreL21CreateRemapAnyBlitterE13TextureFormatS0_
TNj:__ZN6il2cpp2os5Event4WaitEjb
i9b:__ZN17AnimationCurveTplIfE16StripInvalidKeysEv
tee:_Array_InternalArray__ICollection_Add_TisKeyValuePair_2_t3716250094_m2381539361_gshared
Olf:_X509Extension_WriteLine_m2850991173
Q$c:__ZNK2UI6Canvas17GetSortingLayerIDEv
rNf:__ZL40UIntPtr_t_CustomAttributesCacheGeneratorP21CustomAttributesCache
UFc:__ZN14Raycast2DQuery8RunQueryEb
D4b:__Z13RegisterClassI17GlobalGameManagerEvv
t2a:__ZN8Renderer24SetupNewRendererForSceneEv
Urg:__ZL70GridLayoutGroup_t1515633077_CustomAttributesCacheGenerator_m_StartAxisP21CustomAttributesCache
C9d:_Array_InternalArray__ICollection_Remove_TisInt64_t909078037_m2653583130_gshared
jve:_List_1_AddCollection_m2628217188_gshared
MGg:_Thread_get_ExecutionContext_m922067206
tS:__ZN11UnityEngine15CloudWebService13WWWRestClient18GetEditableHeadersEv
buf:_RecordProtocol_get_Context_m2688493529
nha:__ZN4PPtrI7TextureE8TransferI14SafeBinaryReadEEvRT_
y5b:__ZN14PlayableOutput6HandleEv
SKj:__ZN6il2cpp5utils10MemoryPool9AddRegionEj
Gwh:_ScrollRect_get_viewport_m3177057249
tn:FUNCTION_TABLE_iiiiiiiiiiiiii
_oi:_CustomYieldInstruction_get_Current_m1743233962
i7c:__ZN19UnityConnectService18OnPlayerQuitStaticEPS_
r9h:__Z35RuntimeInvoker_ScaleMode_t987318053PK10MethodInfoPvPS2_
TRc:_UNITY_tt_get_cmap_info
Kmd:_DecoderExceptionFallback_GetHashCode_m2972426052
m6a:__ZN16ReflectionProbes8ScheduleEN18ReflectionProbeJob7JobTypeEP15ReflectionProbei
SKe:_Collection_1_IsFixedSize_m3675221982_gshared
h0f:__ZL77Convert_t2607082565_CustomAttributesCacheGenerator_Convert_ToSByte_m883113940P21CustomAttributesCache
O5:__ZN16MessageForwarder13HandleMessageEPviR11MessageData
bre:_Enumerator_MoveNext_m3293920409_AdjustorThunk
CX:__Z18IsDirectoryCreatedRKN4core12basic_stringIcNS_20StringStorageDefaultIcEEEE
TVg:_GenericTypeParameterBuilder_get_DeclaringType_m1652924692
sOh:_Comparer_1__cctor_m3112251759_gshared
Gqg:__ZL73ScrollRect_t1199013257_CustomAttributesCacheGenerator_m_VerticalScrollbarP21CustomAttributesCache
jFf:_X509KeyUsageExtension_ToString_m1992050580
ANc:_UNITY_FT_GlyphLoader_Done
K7b:__ZN9Polygon2D16CheckConsistencyEv
Exi:_ConstructionCall__ctor_m1143766850
r7g:_GUIStyleState_Init_m2434147050
tOh:_Comparer_1_System_Collections_IComparer_Compare_m3203078743_gshared
hvf:_Context_get_RandomSC_m1687420621
AGc:__ZN19OverlapPointQuery2D14InitializeAABBER6b2AABB
Ogg:__ZL67GUISkin_t1436893342_CustomAttributesCacheGenerator_m_verticalSliderP21CustomAttributesCache
jgi:__Z56RuntimeInvoker_Int32_t2071877448_SpriteState_t1353336012PK10MethodInfoPvPS2_
w6i:__ZNK15dense_hashtableINSt3__24pairIK10KeyWrapperIPKcEP11Il2CppClassEES5_N6il2cpp5utils11StringUtils12StringHasherIS4_EEN14dense_hash_mapIS5_S8_SE_NS5_14EqualsComparerINSC_21CaseSensitiveComparerEEENS0_9allocatorIS9_EEE9SelectKeyESI_SK_E10test_emptyERK30dense_hashtable_const_iteratorIS9_S5_SE_SM_SI_SK_E
HSc:_tt_cmap14_char_var_index
n0h:__Z77RuntimeInvoker_TimeSpan_t3430258949_TimeSpan_t3430258949_TimeSpan_t3430258949PK10MethodInfoPvPS2_
eUc:_psh_globals_new
N4e:_FileStream_Seek_m950719389
WUd:_StandaloneInputModule_set_allowActivationOnMobileDevice_m2631121618
MDd:_Decimal_stripStyles_m294582157
FGg:_UTF8Decoder_GetChars_m3819660582
Vta:__ZN9GfxDevice20SetMaxBufferedFramesEi
wxe:_List_1_RemoveAll_m4125997475_gshared
QBc:__ZN10Collider2D19WakeAllBodyContactsEv
ZK:__ZN24AudioScriptBufferManagerD2Ev
fUj:dynCall_vdd
t0c:__ZN2UIL17UnloadAllCanvasesEv
P9a:__Z23ConvertIntegerToTypePtrIsEbPvR14SafeBinaryRead
Kzc:__ZN12b2MouseJoint11ShiftOriginERK6b2Vec2
lrh:_EqualityComparer_1__ctor_m99476293_gshared
jof:_BigInteger_Incr2_m505983313
xki:_PCMReaderCallback_BeginInvoke_m3119095492
_ud:_ArrayList_get_Count_m523955479
Pbi:__Z85RuntimeInvoker_Int32_t2071877448_Vector3_t2243707580_Vector3_t2243707580_Il2CppObjectPK10MethodInfoPvPS2_
uwd:_FixedSizeArrayListWrapper_Remove_m1359458911
wja:__ZN6prcoreL29inner_stretch_rgb565_bilinearEPKNS_9InnerInfoE
gHi:_Uri__ctor_m3927533881
bjj:__ZNK15dense_hashtableINSt3__24pairIK10KeyWrapperINS1_IPK14Il2CppAssemblyP11Il2CppClassEEEjEES9_17ReflectionMapHashIS8_EN14dense_hash_mapIS9_jSD_NS9_14EqualsComparerINS0_8equal_toIS8_EEEENS0_9allocatorISB_EEE9SelectKeyESI_SK_E12test_deletedEj
iqh:_EqualityComparer_1_System_Collections_IEqualityComparer_Equals_m3724603646_gshared
zRd:_EventSystem_get_current_m319019811
cAh:_Text_get_mainTexture_m813502234
n1h:__Z47RuntimeInvoker_SecurityProtocolType_t3099771628PK10MethodInfoPvPS2_
d$a:__ZNK14RenderSettings19GetFlatAmbientColorEv
i6a:__ZN6prcoreL10inner_flipILj4EEEvPhS1_j
Byb:__ZN18StreamedBinaryReadILb0EE21TransferSTLStyleArrayI10vector_mapIPKN5Unity4TypeE7Hash128NSt3__24lessIS6_EENS8_9allocatorINS8_4pairIS6_S7_EEEEEEEvRT_17TransferMetaFlags
Wu:__ZNK27StateMachineBehaviourPlayer15IsSenderEnabledEv
bii:_CustomEventData_Add_m1028036439
pPh:_Enumerator_VerifyState_m2118679243_gshared
F3d:_InputField_get_shouldHideMobileInput_m3694613599
ckc:__Z40Register_UnityEngine_Transform_SetParentv
Eki:_AudioConfigurationChangeHandler_Invoke_m635374412
Tyf:_SslClientStream_get_HaveRemoteValidation2Callback_m3555576758
jtb:__ZN14Texture2DArray17UploadToGfxDeviceEv
ZQe:_ReadOnlyCollection_1_System_Collections_Generic_IListU3CTU3E_Insert_m4216310986_gshared
hNe:_ReadOnlyCollection_1_System_Collections_Generic_IListU3CTU3E_set_Item_m1532495847_gshared
UJ:__Z14FMODMemoryFreePvjPKc
zDh:_InternalEnumerator_1_System_Collections_IEnumerator_Reset_m3731327620_AdjustorThunk
Lfb:__ZN15dense_hashtableINSt3__24pairIKN4core12basic_stringIcNS2_20StringStorageDefaultIcEEEES6_EES6_20StringHash32FunctionIS6_EN14dense_hash_mapIS6_S6_SA_NS0_8equal_toIS6_EE13stl_allocatorIS8_L18MemLabelIdentifier54ELi16EEE9SelectKeyESD_SG_EC2ERKSJ_j
Mmg:__ZL104PointerEventData_t1599784723_CustomAttributesCacheGenerator_PointerEventData_get_worldNormal_m1704987468P21CustomAttributesCache
GRi:_YieldInstruction_t3462875981_marshal_pinvoke_cleanup
g3d:_Image_AddQuad_m1600600902
xVc:_cf2_glyphpath_moveTo
sMi:_SharedBetweenAnimatorsAttribute__ctor_m1221241062
gWd:_AnimationTriggers_set_disabledTrigger_m609579531
YRf:__ZL47File_t1930543328_CustomAttributesCacheGeneratorP21CustomAttributesCache
zId:_DateTimeOffset__ctor_m1796624924
p3g:_GUILayoutUtility_get_spaceStyle_m1918520192
wRd:_BaseRaycaster_OnDisable_m1716508791
s9d:_Array_InternalArray__ICollection_Remove_TisKeyValuePair_2_t3716250094_m2566517826_gshared
AJh:_InternalEnumerator_1_MoveNext_m1741571735_gshared
mmc:__ZN5IMGUI14GUIWindowStateD2Ev
DNf:__ZL82Enum_t2459695545_CustomAttributesCacheGenerator_Enum_GetUnderlyingType_m3513899012P21CustomAttributesCache
HJj:_GC_is_heap_ptr
Ksj:__GLOBAL__sub_I_Assembly_cpp
Cwf:_TlsServerSettings_set_CertificateRequest_m3419519893
Ut:__ZN7mecanim5human10RetargetToEPKNS0_5HumanEPKNS0_9HumanPoseES6_RKN4math4trsXEPS4_PNS_8skeleton13SkeletonPoseTIS8_EESF_
Wx:__ZN7mecanim9animation8SeekClipERKNS0_12StreamedClipERNS0_18StreamedClipMemoryEf
vLg:_Type_get_IsGenericParameter_m161434704
wWg:_MethodBuilder_get_Attributes_m3678061338
jm:_emscripten_glIsTexture
p9g:_Mathf_Clamp_m3542052159
awd:_ArrayListWrapper_CopyTo_m793444109
v0f:__ZL79Convert_t2607082565_CustomAttributesCacheGenerator_Convert_ToUInt16_m3265369225P21CustomAttributesCache
Qk:_emscripten_glHint
LYc:_ft_var_readpackeddeltas
SHd:_DateTime_AddMilliseconds_m1813199744_AdjustorThunk
wBg:_SByte_System_IConvertible_ToSByte_m108774324_AdjustorThunk
AWg:_MethodBuilder_GetParameterCount_m467267889
RXg:_TypeBuilder_IsValueTypeImpl_m1499671481
Dii:_AnimationEvent_set_intParameter_m1174062029
zIf:_X509ChainStatus_t4278378721_marshal_pinvoke
Sqf:_RSAManaged__ctor_m1680944437
mm:_SDL_UpperBlit
v6g:_GUIStyle_op_Implicit_m781448948
K$a:__Z35GetTextureDecodeValuesWithIntensity16TextureUsageMode17TextureColorSpace10ColorSpacef
dtd:_Byte_GetHashCode_m2885528842_AdjustorThunk
epj:__ZN15dense_hashtableINSt3__24pairIK10KeyWrapperINS1_IPK9EventInfoP11Il2CppClassEEEjEES9_17ReflectionMapHashIS8_EN14dense_hash_mapIS9_jSD_NS9_14EqualsComparerINS0_8equal_toIS8_EEEENS0_9allocatorISB_EEE9SelectKeyESI_SK_E15set_deleted_keyERKSB_
Ekh:_Dictionary_2_OnDeserialization_m2092139626_gshared
Fzc:__ZNK12b2MouseJoint10GetAnchorAEv
vyj:__ZNK6il2cpp2os6Socket12GetLastErrorEv
HDb:__ZN14SafeBinaryRead20OverrideRootTypeNameEPKc
R_i:__ZNK10KeyWrapperIPK22Il2CppGenericParameterE14EqualsComparerINSt3__28equal_toIS2_EEEclERKS3_SA_
Z4:__ZN14FileCacherRead16UnlockCacheBlockEj
Skf:_X509Certificate_GetUnsignedBigInteger_m3491353542
qLc:__ZNSt3__26vectorIN4core12basic_stringIcNS1_20StringStorageDefaultIcEEEE13stl_allocatorIS5_L18MemLabelIdentifier34ELi16EEE6assignINS_11__wrap_iterIPS5_EEEENS_9enable_ifIXaasr21__is_forward_iteratorIT_EE5valuesr16is_constructibleIS5_NS_15iterator_traitsISF_E9referenceEEE5valueEvE4typeESF_SF_
egg:__ZL90Event_t3028476042_CustomAttributesCacheGenerator_Event_Internal_GetMousePosition_m38523489P21CustomAttributesCache
zIb:__Z18Transfer_BlittableI17RemapPPtrTransferLb1E8Vector3fEvRK29SerializationCommandArgumentsR31RuntimeSerializationCommandInfo
l2a:__ZN6Camera6RenderER11CullResultsR17ShaderPassContextPK21CameraRenderingParamsNS_10RenderFlagE
USf:__ZL57StackBehaviour_t1390406961_CustomAttributesCacheGeneratorP21CustomAttributesCache
Qc:_emscripten_glUniform1f
FZb:__ZN13dynamic_arrayIS_I8Vector2fLj4EELj4EE18resize_initializedEjRKS1_12ResizePolicy
qzf:_SslStreamBase_get_MightNeedHandshake_m3432170694
$Nc:__Z20ParseImageParametersR11UTF16StringRiRN20TextRenderingPrivate16TextFormatChangeE
Vc:_emscripten_glUniform1i
XHh:_InternalEnumerator_1_System_Collections_IEnumerator_Reset_m651165750_AdjustorThunk
yDb:__ZN13MonoBehaviour9CallAwakeEv
w3g:__Z14bankers_roundff
AVh:__Z66RuntimeInvoker_Void_t1841601450_Int32_t2071877448_SByte_t454417549PK10MethodInfoPvPS2_
XTb:__ZN9ShaderLab16SerializedTagMapaSERKS0_
PVh:__Z75RuntimeInvoker_Void_t1841601450_Il2CppObject_Int32_t2071877448_Il2CppObjectPK10MethodInfoPvPS2_
yae:_SetPropertyUtility_SetStruct_TisFillMethod_t1640962579_m1867757822_gshared
eR:__ZN11UnityEngine15CloudWebService16SessionContainer20RestoreSessionHeaderERKN4core12basic_stringIcNS2_20StringStorageDefaultIcEEEES8_RNS0_13SessionHeaderE
nId:_DateTime_ToString_m1117481977
Mbc:__ZN8Material28ApplyMaterialPropertyDrawersEv
XVg:_GenericTypeParameterBuilder_GetGenericArguments_m277381309
v$i:__ZN24dense_hashtable_iteratorINSt3__24pairIK10KeyWrapperIPK22Il2CppGenericParameterEP11Il2CppClassEES6_N6il2cpp5utils11PointerHashIS4_EEN14dense_hash_mapIS6_S9_SE_NS6_14EqualsComparerINS0_8equal_toIS5_EEEENS0_9allocatorISA_EEE9SelectKeyESJ_SL_E30advance_past_empty_and_deletedEv
EA:__ZN11UnityEngine9Animation27CreateAvatarBindingConstantER9TransformPKN7mecanim9animation14AvatarConstantERNS3_6memory9AllocatorE
qAb:__ZN14SafeBinaryRead21TransferSTLStyleArrayINSt3__26vectorIN30RuntimeInitializeOnLoadManager9ClassInfoE13stl_allocatorIS4_L18MemLabelIdentifier12ELi16EEEEEEvRT_17TransferMetaFlags
dPg:_UnitySerializationHolder_GetObjectData_m2280028722
VCi:_PatternCompiler_EmitFalse_m1188949782
FNg:_UInt64_System_IConvertible_ToDateTime_m2412118561
zbc:__ZN9BlobWriteC2ER13dynamic_arrayIhLj16EE24TransferInstructionFlags19BuildTargetPlatform
s3:__ZN14MessageHandler3GetEv
O4g:_GUISkin_set_verticalScrollbarThumb_m2647835739
OAa:__ZN10DynamicVBO9DrawChunkERK21DynamicVBOChunkHandle17ShaderChannelMaskS3_P17VertexDeclarationPKNS_10DrawParamsEi
hd:_emscripten_glAttachShader
gYb:__Z16tesedgeIntersectP10TESSvertexS0_S0_S0_S0_
QPe:_ReadOnlyCollection_1__ctor_m1539890895_gshared
Uta:__ZN9GfxDevice13SetActiveTierE12GraphicsTier
Npe:_Enumerator_System_Collections_IEnumerator_get_Current_m3079057684_AdjustorThunk
MAe:_List_1_System_Collections_ICollection_get_SyncRoot_m1804424478_gshared
ixb:__ZNSt3__26vectorIN4core12basic_stringIcNS1_20StringStorageDefaultIcEEEENS_9allocatorIS5_EEE6assignIPS5_EENS_9enable_ifIXaasr21__is_forward_iteratorIT_EE5valuesr16is_constructibleIS5_NS_15iterator_traitsISC_E9referenceEEE5valueEvE4typeESC_SC_
Ihf:_KeyPairPersistence_get_UserPath_m3433052783
HHe:_Collection_1_ClearItems_m1410275009_gshared
RMf:__ZL58Decimal_t724701077_CustomAttributesCacheGenerator_MinusOneP21CustomAttributesCache
Bbe:_Array_InternalArray__IEnumerable_GetEnumerator_TisKeyframe_t1449471340_m3949799719_gshared
AFb:__Z18Transfer_BlittableI14SafeBinaryReadLb0E11QuaternionfEvRK29SerializationCommandArgumentsR31RuntimeSerializationCommandInfo
x1h:__Z45RuntimeInvoker_X509RevocationMode_t2065307963PK10MethodInfoPvPS2_
$Pb:__Z18Transfer_BlittableI18StreamedBinaryReadILb0EELb1E12PropertyNameEvRK29SerializationCommandArgumentsR31RuntimeSerializationCommandInfo
q9f:__ZL99MonoBehaviour_t1158329972_CustomAttributesCacheGenerator_MonoBehaviour_set_useGUILayout_m2666356651P21CustomAttributesCache
B4d:_InputField_get_inputType_m2187991661
rV:_tlsf_walk_heap
qkf:_PKCS12_Decode_m731190390
rrj:__ZNK15dense_hashtableINSt3__24pairIK10KeyWrapperIP11Il2CppClassES4_EES5_N6il2cpp8metadata16SZArrayClassHashEN14dense_hash_mapIS5_S4_SA_NS5_14EqualsComparerINS9_19SZArrayClassCompareEEENS0_9allocatorIS7_EEE9SelectKeyESE_SG_E10test_emptyERK24dense_hashtable_iteratorIS7_S5_SA_SI_SE_SG_E
dJh:_InternalEnumerator_1_get_Current_m1550231132_gshared
LFi:_Reference_get_IgnoreCase_m2810892634
qPg:_Version_CheckedSet_m76493673
mb:invoke_vif
Bjg:__ZL99SendMouseEvents_t3505065032_CustomAttributesCacheGenerator_SendMouseEvents_SetMouseMoved_m532965689P21CustomAttributesCache
nb:invoke_vid
bSj:__ZNSt3__212basic_stringIcNS_11char_traitsIcEENS_9allocatorIcEEE6insertEjPKc
zZf:__ZL67UnverifiableCodeAttribute_t765455733_CustomAttributesCacheGeneratorP21CustomAttributesCache
pb:invoke_vii
z6f:__ZL86Component_t3819376471_CustomAttributesCacheGenerator_Component_SendMessage_m3615678587P21CustomAttributesCache
Jqg:__ZL82ScrollRect_t1199013257_CustomAttributesCacheGenerator_m_HorizontalScrollbarSpacingP21CustomAttributesCache
U1d:_LayoutGroup_get_padding_m1653511445
iPi:_Transform_get_localRotation_m4001487205
Nbb:__ZN12TLSAllocatorI14StackAllocatorE16ThreadInitializeEP13BaseAllocator
yvd:_ArrayList_Sort_m2778059513
Pjg:__ZL107StackTraceUtility_t1881293839_CustomAttributesCacheGenerator_StackTraceUtility_SetProjectFolder_m2154926761P21CustomAttributesCache
Z1d:_LayoutGroup_SetChildAlongAxis_m2732017156
P1c:__Z41CanvasRenderer_CUSTOM_DisableRectClippingP12Il2CppObject
Jpf:_MD2_Create_m539024737
EAd:_SortedList_get_SyncRoot_m3299704254
dse:_List_1_System_Collections_ICollection_CopyTo_m2020941110_gshared
eBd:_Slot_t2267560602_marshal_pinvoke
I_h:__Z51RuntimeInvoker_UInt16_t986882611_Single_t2076509932PK10MethodInfoPvPS2_
gvg:_SoapAttribute_get_XmlNamespace_m1436066016
$Ka:__ZN25SingleBlockMemoryFileDataD0Ev
Rdb:__ZNSt3__26vectorI14ConstantStringNS_9allocatorIS1_EEE6assignINS_11__wrap_iterIPS1_EEEENS_9enable_ifIXaasr21__is_forward_iteratorIT_EE5valuesr16is_constructibleIS1_NS_15iterator_traitsISA_E9referenceEEE5valueEvE4typeESA_SA_
$Q:__ZN11UnityEngine15CloudWebService16SessionContainer21ConvertFromFolderTimeERKN4core12basic_stringIcNS2_20StringStorageDefaultIcEEEEPjPt
PGb:__ZNSt3__26vectorI8GUIStyle13stl_allocatorIS1_L18MemLabelIdentifier1ELi16EEE7reserveEj
Gsj:__ZN6il2cpp6icalls8mscorlib6System9Threading6Thread27GetSerializedCurrentCultureEP12Il2CppThread
Ide:_Array_InternalArray__IndexOf_TisUInt32_t2149682021_m3231515987_gshared
MYi:_ListPool_1__cctor_m709904475_gshared
s3h:__Z83RuntimeInvoker_Void_t1841601450_QuaternionU26_t4187826802_QuaternionU26_t4187826802PK10MethodInfoPvPS2_
n0b:__Z31CalculateHierarchyTransformType23TransformAccessReadOnly
o8i:__ZN15dense_hashtableINSt3__24pairIK10KeyWrapperI13dynamic_arrayIPK10Il2CppTypeLj4EEEPFvvEEES8_N6il2cpp8metadata19Il2CppSignatureHashEN14dense_hash_mapIS8_SB_SF_NS8_14EqualsComparerINSE_22Il2CppSignatureCompareEEENS0_9allocatorISC_EEE9SelectKeyESJ_SL_E12resize_deltaEjj
M_b:__Z13RegisterClassI11TimeManagerEvv
KJ:__ZN4FMOD8ChannelI11setPositionEjj
oCc:__ZN10Collider2D12SetPolygon2DEP9Polygon2D
ooi:_Component_SendMessage_m913946877
yrg:__ZL75ToggleGroup_t1030026315_CustomAttributesCacheGenerator_U3CU3Ef__amU24cache1P21CustomAttributesCache
AAi:_SynchronizedClientContextSink__ctor_m978504596
n9:__ZN17BaseObjectManager13StaticDestroyEPv
xNi:_TextGenerationSettings_CompareVector2_m592645251
beg:__ZL137AnimatorControllerPlayable_t4078305555_CustomAttributesCacheGenerator_AnimatorControllerPlayable_INTERNAL_CALL_GetFloatString_m4205749063P21CustomAttributesCache
Qjg:__ZL108StackTraceUtility_t1881293839_CustomAttributesCacheGenerator_StackTraceUtility_ExtractStackTrace_m1593581205P21CustomAttributesCache
aJd:_DBNull_System_IConvertible_ToChar_m3344298044
Dlf:_X509Certificate_GetObjectData_m3888130484
Uzb:__ZNSt3__26vectorIN15ResourceManager10DependencyE13stl_allocatorIS2_L18MemLabelIdentifier51ELi16EEEC2INS_11__wrap_iterIPS2_EEEET_SB_RKS5_PNS_9enable_ifIXaasr21__is_forward_iteratorISB_EE5valuesr16is_constructibleIS2_NS_15iterator_traitsISB_E9referenceEEE5valueEvE4typeE
f3h:__Z45RuntimeInvoker_IMECompositionMode_t1898275508PK10MethodInfoPvPS2_
api:_CustomYieldInstruction_Reset_m3409422382
iCi:_LinkStack_Push_m2660199875
EI:__ZN4FMOD6Reverb13setPropertiesEPK22FMOD_REVERB_PROPERTIES
yhi:_CustomEventData_AddChar_m1103619816
_Va:__ZN9DepthPass13PrepareSubsetEjRK10RenderNodeifRK17ShaderReplaceData
d8g:_Input_get_compositionString_m636835668
oJi:_X509CertificateCollection_Add_m4008705157
xug:_MonoMethodMessage_set_Uri_m3218581120
Y7b:__Z35SetMeshComponentFromArrayFromScriptR4Mesh30InternalScriptingShaderChannel34InternalScriptingVertexChannelTypei17ScriptingArrayPtri
B9b:__Z18ExtractTagThrowingR11ICallString
$ha:__ZN4PPtrI6ShaderE8TransferI19StreamedBinaryWriteILb0EEEEvRT_
_He:_Collection_1_IsFixedSize_m1816795498_gshared
PNa:__ZZ23InitPlayerLoopCallbacksvEN40EarlyUpdatePlayerCleanupCachedDatastruct7ForwardEv
vq:__ZN4core20StringStorageDefaultIcE6assignEPKcj
b4g:_GUIStyleState_GetBackgroundInternal_m439046630
Zxj:__ZN15dense_hashtableINSt3__24pairIK10KeyWrapperIP12Il2CppObjectEN6il2cpp2gc9CachedCCWEEES5_NS7_5utils11PointerHashIS3_EEN14dense_hash_mapIS5_S9_SD_NS5_14EqualsComparerINS0_8equal_toIS4_EEEENS0_9allocatorISA_EEE9SelectKeyESI_SK_E3endEv
tAb:__Z14resize_trimmedINSt3__26vectorIi13stl_allocatorIiL18MemLabelIdentifier12ELi16EEEEEvRT_j
GUd:_MouseButtonEventData_ReleasedThisFrame_m482758300
Ypj:__ZN15dense_hashtableINSt3__24pairIK10KeyWrapperINS1_IP11Il2CppClassjEEES4_EES6_N6il2cpp8metadata14ArrayClassHashEN14dense_hash_mapIS6_S4_SB_NS6_14EqualsComparerINSA_17ArrayClassCompareEEENS0_9allocatorIS8_EEE9SelectKeyESF_SH_E9copy_fromERKSK_j
zwd:_ReadOnlyArrayListWrapper_set_Item_m2199017141
T3a:__ZN6Camera6SetFarEf
jJi:_DeriveBytes_DeriveIV_m3343375195
yPc:_UNITY_FT_Init_Class_ft_bitmap_glyph_class
Ccd:_RNGCryptoServiceProvider_GetBytes_m167497991
bka:__ZN6prcoreL12RemapGenericI17TexFormatABGR888817TexFormatARGB8888EEvPKNS_9InnerInfoE
Ghb:__ZN11GameManager17MainThreadCleanupEv
esi:_AnimatorControllerPlayable_INTERNAL_CALL_GetAnimatorControllerInternal_m239716681
h5i:__ZL25UnresolvedVirtualCall_225P12Il2CppObjecti22UICharInfo_t3056636800PK10MethodInfo
dej:__ZN6il2cpp6icalls8mscorlib6System18CollectTypeMethodsINS_5utils10functional6FilterINSt3__212basic_stringIcNS7_11char_traitsIcEENS7_9allocatorIcEEEENS4_11StringUtils23CaseInsensitiveComparerEEEEEvP11Il2CppClassPKSH_jRKT_RNS7_6vectorIPK10MethodInfoNSB_ISR_EEEERA65535_b
XTg:_TypeBuilder_get_Assembly_m492491492
Y3i:__ZL25UnresolvedVirtualCall_160P12Il2CppObject23RaycastResult_t21186376PK10MethodInfo
UJe:_Collection_1_InsertItem_m1225429801_gshared
_Bc:__ZN10Collider2D12AddToManagerEv
yXc:_UNITY_tt_slot_init
Aad:_HMACSHA512__cctor_m1167457383
mRb:__Z25scripting_array_class_get17ScriptingClassPtrj
nsc:__ZL22Transfer_ManagedObjectI9JSONWriteLb1EEvRK29SerializationCommandArgumentsR31RuntimeSerializationCommandInfo
ova:__ZN9GfxDevice20DestroyRenderSurfaceER12ObjectHandleI17RenderSurface_TagP17RenderSurfaceBaseE
P0b:__ZL24PrepareSpriteRenderNodesILb1EEvR35RenderNodeQueuePrepareThreadContext
PIa:__ZN9GfxDevice22UpdateComputeResourcesEjPK9TextureIDPK16TextureDimensionPKijPKjjPK15ComputeBufferIDS7_PK20ComputeBufferCounterjSC_S2_S5_S9_SF_
l4b:__ZN12_GLOBAL__N_15qAsinEff
Mke:_Dictionary_2_Do_ICollectionCopyTo_TisKeyValuePair_2_t3749587448_m2536766696_gshared
Obb:__ZN12TLSAllocatorI14StackAllocatorE13ThreadCleanupEv
kO:__Z18GetAudioManagerPtrv
Ese:_List_1_GetEnumerator_m2837081829_gshared
p2h:__Z67RuntimeInvoker_Void_t1841601450_Int16_t4041245914_Int16_t4041245914PK10MethodInfoPvPS2_
GFj:__ZThn4_N6il2cpp2vm13ComObjectBase16MarshalInterfaceEP13Il2CppIStreamRK10Il2CppGuidPvjS7_j
aub:__ZN4Mesh27SwizzleVertexColorsIfNeededEb
ucb:__Z27FindActiveTransformWithPathPKc
OVh:__Z63RuntimeInvoker_DSAParameters_t1872138834_BooleanU26_t3168250738PK10MethodInfoPvPS2_
mdg:__ZL151AnimatorControllerPlayable_t4078305555_CustomAttributesCacheGenerator_AnimatorControllerPlayable_INTERNAL_CALL_CrossFadeInFixedTimeInternal_m3528719771P21CustomAttributesCache
vmi:_CanvasGroup_get_alpha_m1304564441
Kib:__ZN12BaseRendererD0Ev
G9a:__Z29StdTemplateConversionFunctionIbyEbPvR14SafeBinaryRead
knh:_DefaultComparer__ctor_m899694595_gshared
eki:_AsyncOperation_Finalize_m67522446
h0h:__Z56RuntimeInvoker_TimeSpan_t3430258949_TimeSpan_t3430258949PK10MethodInfoPvPS2_
rPa:_UNITY_png_write_info
eYa:__ZNK6Camera7GetNearEv
Xza:__ZN7ApiGLES11UnmapBufferEjN2gl12BufferTargetE
rBj:__ZN6il2cpp5utilsL24Utf32CharToSurrogatePairEjRA2_Ds
vob:__Z25GetNextAllowedTextureSizeib13TextureFormat
jX:__ZN20LocalFileSystemWebGL4CopyER13FileEntryDataS1_
pye:_List_1_CheckIndex_m4231572822_gshared
$S:__ZN19CloudServiceHandler6RetainEv
yNj:__ZN6il2cpp2os9Semaphore4WaitEb
jzc:__ZN15b2FrictionJointD0Ev
phd:_StrongName_Equals_m67226644
Sib:__ZN12BaseRenderer20FlattenToRenderQueueER15RenderNodeQueueRK20DeprecatedSourceData
ZUg:_FieldBuilder_get_Attributes_m2174064290
x8e:_UnmanagedMemoryStream_get_Length_m587008850
Hma:__Z34scripting_liveness_calculation_endPv
TBj:__ZN6il2cpp2os6ThreadC2Ev
eid:_SecurityFrame_InitFromRuntimeFrame_m45195821
rSf:__ZL53TextReader_t1561828458_CustomAttributesCacheGeneratorP21CustomAttributesCache
nHf:_X509Chain_IsSignedWith_m292245392
KBj:__ZNK6il2cpp2os10SocketImpl12GetLastErrorEv
x9d:_Array_InternalArray__ICollection_Remove_TisDateTime_t693205669_m1275668216_gshared
Pkh:_Dictionary_2__ctor_m871840915_gshared
UPe:_ReadOnlyCollection_1_System_Collections_Generic_ICollectionU3CTU3E_Remove_m3751131234_gshared
Htc:__Z18Transfer_BlittableI8JSONReadLb0E8Vector3fEvRK29SerializationCommandArgumentsR31RuntimeSerializationCommandInfo
Zxi:_ChannelServices__cctor_m3534779830
zrj:__ZN6il2cpp2vm6Thread6DetachEP12Il2CppThread
oTc:_Render_Single_Pass
EEd:_Convert_ToInt16_m416789348
gnd:_EncoderExceptionFallback_Equals_m762170768
d2i:__ZL24UnresolvedVirtualCall_59P12Il2CppObjectS0_aPK10MethodInfo
nsh:_EqualityComparer_1__cctor_m2666196678_gshared
$1g:_GUIStyle_Init_m3872198731
KA:__ZN7mecanim8skeleton30SkeletonBuildReverseIndexArrayEPiPKiPKNS0_8SkeletonES6_
llc:__Z19GetGUIBlendMaterialv
FCj:__ZN6il2cpp2os10ThreadImpl5SleepEjb
ILi:_X509ExtensionCollection_System_Collections_IEnumerable_GetEnumerator_m2600902401
r4c:__ZN11UnityEngine9Analytics15UserCustomEvent3AddEPKcb
JBb:__ZN15FileSystemEntry4MoveERS_23FileSystemCopyMoveFlags
fBf:_ListDictionary_FindEntry_m432748847
LZj:_glBindSampler__wrapper
nVi:_UnityAction_1_Invoke_m3523417209_gshared
Of:_emscripten_set_mouseup_callback
CIa:__ZN9GfxDevice27SetRandomWriteTargetTextureEi9TextureID
p_h:__Z48RuntimeInvoker_Int64_t909078037_SByte_t454417549PK10MethodInfoPvPS2_
Tdg:__ZL123AnimatorControllerPlayable_t4078305555_CustomAttributesCacheGenerator_AnimatorControllerPlayable_Play_m2286317581____layer1P21CustomAttributesCache
BMi:_SpaceAttribute__ctor_m1444406696
pW:__ZNK18ScreenManagerWebGL8GetWidthEv
qUj:dynCall_iiifii
Saj:__ZN6il2cpp2vm13MetadataCache33GetFieldDefaultValueDataFromIndexEi
G1d:_GridLayoutGroup_set_startAxis_m1635162426
OF:__ZN10SampleClipD2Ev
FAi:_SynchronizationAttribute_EnterContext_m2984912761
ONf:__ZL73Enum_t2459695545_CustomAttributesCacheGenerator_Enum_ToObject_m2601523252P21CustomAttributesCache
cQd:_CultureInfo_construct_internal_locale_from_name_m971766383
ECj:__ZN6il2cpp2os10ThreadImpl13SetWaitObjectEPNS0_5posix15PosixWaitObjectE
ftd:_Byte_Equals_m368616327_AdjustorThunk
g7b:__ZN19SpriteMeshGenerator7contourERNSt3__26vectorINS_6vertexENS0_9allocatorIS2_EEEERiRf
hfe:_Array_InternalArray__ICollection_Add_TisUIVertex_t1204258818_m3869382594_gshared
RD:__Z56AnimationOffsetPlayable_CUSTOM_INTERNAL_CALL_GetPositionR9HPlayableR8Vector3f
UWc:_cff_cmap_unicode_init
XSa:__ZNSt3__224__buffered_inplace_mergeIRN10vector_mapIiN17InstancedPropInfo12PropertyTypeENS_4lessIiEE13stl_allocatorINS_4pairIiS3_EEL18MemLabelIdentifier1ELi16EEE13value_compareENS_11__wrap_iterIPS8_EEEEvT0_SH_SH_T_NS_15iterator_traitsISH_E15difference_typeESL_PNSK_10value_typeE
Nig:__ZL95CustomEventData_t1269126727_CustomAttributesCacheGenerator_CustomEventData_AddInt64_m1803231272P21CustomAttributesCache
uNd:_Enum_ToObject_m2460371738
Aff:_PrimalityTests_Test_m1088386156
a5:__ZN14FileCacherRead13GetFileLengthEv
knc:__Z36Event_CUSTOM_Internal_SetNativeEvent13Il2Cpp_IntPtr
CQj:_readlink
Imj:__ZN15dense_hashtableINSt3__24pairIK10KeyWrapperINS1_IPK9EventInfoP11Il2CppClassEEEjEES9_17ReflectionMapHashIS8_EN14dense_hash_mapIS9_jSD_NS9_14EqualsComparerINS0_8equal_toIS8_EEEENS0_9allocatorISB_EEE9SelectKeyESI_SK_E12resize_deltaEjj
kje:_Array_Resize_TisVector3_t2243707580_m893658391_gshared
uFh:_InternalEnumerator_1_System_Collections_IEnumerator_get_Current_m4259662004_AdjustorThunk
Fme:_Array_InternalArray__get_Item_TisKeyframe_t1449471340_m1003508933_gshared
ELj:__ZN6il2cpp8metadata14Il2CppTypeHash4HashEPK10Il2CppType
kkf:_StrongName_get_PublicKeyToken_m1968460885
_wb:__ZNK6Sprite9GetBoundsE8Vector2fbb
DRa:__ZNK19RenderEventsContext21CleanupCommandBuffersEv
xya:__ZN11ContextGLES6CreateEi
c2e:_BinaryReader_Dispose_m4249456877
RFf:_X500DistinguishedName_Decode_m3070515374
JDd:_Double_ToString_m1085043609
NQb:__Z19TransferField_ArrayI18StreamedBinaryReadILb0EE27Converter_SimpleNativeClassI17AnimationCurveTplIfEEEvRK23StaticTransferFieldInfoR31RuntimeSerializationCommandInfoRT0_
lsf:_CipherSuite_createEncryptionCipher_m1926075645
zbb:__ZN14StackAllocator16FrameMaintenanceEb
Y0d:_Graphic_Raycast_m3582517890
kfb:__Z18ReadStringFromFilePN4core17string_with_labelILi1EEERKNS_12basic_stringIcNS_20StringStorageDefaultIcEEEE
y0:__ZNK10GameObject20QueryComponentByTypeEPKN5Unity4TypeE
Sqe:_Enumerator_MoveNext_m1367380970_AdjustorThunk
lXg:_OpCode_GetHashCode_m2974727122
msf:_CipherSuite_createDecryptionCipher_m1118350455
nDi:_PatternCompiler_EmitReference_m1381860071
UE:__Z78AnimatorControllerPlayable_CUSTOM_INTERNAL_CALL_IsParameterControlledByCurveIDR9HPlayablei
kMd:_Double_System_IConvertible_ToInt16_m4200640326
sfc:__Z53Register_UnityEngine_GameObject_get_activeInHierarchyv
$Vg:_GenericTypeParameterBuilder_get_IsGenericType_m1883522222
B3h:__Z90RuntimeInvoker_Single_t2076509932_Single_t2076509932_Single_t2076509932_Single_t2076509932PK10MethodInfoPvPS2_
z_:__ZL30InitializeCoreScriptingClassesv
QKe:_Collection_1_CheckWritable_m3938993573_gshared
Jg:_glBlitFramebuffer
LMa:__ZN17ArchiveFileSystem5TouchER13FileEntryData
Mwf:_SecurityParameters_set_Cipher_m3888132335
Iff:_BigInteger_GeneratePseudoPrime_m2606361440
nXe:_DateTimeFormatInfo_get_ShortTimePattern_m20923983
nIb:__Z35Transfer_Blittable_SingleValueFieldI14SafeBinaryReadhEvRT_R17GeneralMonoObjectRK23StaticTransferFieldInfo
Qpg:__ZL140U3CMouseDragOutsideRectU3Ec__Iterator1_t2599668326_CustomAttributesCacheGenerator_U3CMouseDragOutsideRectU3Ec__Iterator1_Dispose_m2134284531P21CustomAttributesCache
jgg:__ZL90Event_t3028476042_CustomAttributesCacheGenerator_Event_Internal_SetNativeEvent_m1899228752P21CustomAttributesCache
L8c:__ZN22BaseUnityConnectClientC2ERN11UnityEngine7Connect20BasePersistentValuesE
qWh:__Z129RuntimeInvoker_Int32_t2071877448_Il2CppObject_Int32_t2071877448_Int32_t2071877448_Il2CppObject_Int32_t2071877448_SByte_t454417549PK10MethodInfoPvPS2_
Zif:_EncryptedPrivateKeyInfo_get_Algorithm_m2779196942
bvg:_RemotingServices_GetRealProxy_m620317996
AWa:__ZN13dynamic_arrayI11CulledLightLj4EE6insertEPS0_PKS0_S4_
bDh:_ArrayReadOnlyList_1_RemoveAt_m2270349795_gshared
H7i:__ZNK15dense_hashtableI10KeyWrapperIPK19Il2CppGenericMethodES4_N6il2cpp8metadata23Il2CppGenericMethodHashEN14dense_hash_setIS4_S7_NS4_14EqualsComparerINS6_26Il2CppGenericMethodCompareEEENSt3__29allocatorIS4_EEE8IdentityESB_SE_E3endEv
uTi:_Predicate_1_Invoke_m2060780095_gshared
Oaj:__ZN6il2cpp2vm13MetadataCache23GetInterfaceOffsetIndexEi
Rn:FUNCTION_TABLE_vif
Sn:FUNCTION_TABLE_vid
Un:FUNCTION_TABLE_vii
Tma:__Z40scripting_liveness_calculation_from_root18ScriptingObjectPtrPv
iPa:_UNITY_png_create_write_struct
oVh:__Z149RuntimeInvoker_Boolean_t3825574718_Int32_t2071877448_Il2CppObject_Int32_t2071877448_Int32_t2071877448_Il2CppObject_Int32_t2071877448_SByte_t454417549PK10MethodInfoPvPS2_
ifa:__ZN7Texture23VirtualRedirectTransferER24GenerateTypeTreeTransfer
FMc:_UNITY_FT_Set_Transform
F2b:__ZNK32RendererMaterialAnimationBinding12SetPPtrValueERKN11UnityEngine9Animation10BoundCurveEi
rCh:_ArrayReadOnlyList_1_Contains_m1266627404_gshared
qZj:_glDeleteFramebuffers__wrapper
y2d:_Image_get_overrideSprite_m706080347
PYd:_ColorTween_t3438117476_marshal_pinvoke_cleanup
Mnf:_BigInteger_ModInverse_m1881894572
xcj:__ZN6il2cpp2vm7Runtime17GetDelegateInvokeEP11Il2CppClass
drg:__ZL59Slider_t297367283_CustomAttributesCacheGenerator_m_FillRectP21CustomAttributesCache
lve:_List_1_AddEnumerable_m3541747636_gshared
xoj:__ZN30dense_hashtable_const_iteratorINSt3__24pairIK10KeyWrapperIPK22Il2CppGenericParameterEPK24MonoGenericParameterInfoEES6_N6il2cpp5utils11PointerHashIS4_EEN14dense_hash_mapIS6_SA_SF_NS6_14EqualsComparerINS0_8equal_toIS5_EEEENS0_9allocatorISB_EEE9SelectKeyESK_SM_E30advance_past_empty_and_deletedEv
Fpb:__ZN28EnlightenRendererInformation8TransferI14SafeBinaryReadEEvRT_
wUf:__ZL69DefaultDependencyAttribute_t3858269114_CustomAttributesCacheGeneratorP21CustomAttributesCache
HJa:__ZNK15Lz4Decompressor16DecompressMemoryEPKvPjPvS2_
KRc:_UNITY_tt_face_build_cmaps
Sch:_Ray_ToString_m2019179238
vIc:__ZN11Rigidbody2D8TransferI24GenerateTypeTreeTransferEEvRT_
Tab:__ZNSt3__26__treeINS_12__value_typeIN4core12basic_stringIcNS2_20StringStorageDefaultIcEEEEPN16MemoryFileSystem4NodeEEENS_19__map_value_compareIS6_SA_NS_4lessIS6_EELb1EEE13stl_allocatorISA_L18MemLabelIdentifier54ELi16EEE4findIS6_EENS_15__tree_iteratorISA_PNS_11__tree_nodeISA_PvEEiEERKT_
BJd:_Decimal_System_IConvertible_ToType_m3828527724_AdjustorThunk
O4d:_InputField_get_caretPositionInternal_m3011712053
XQc:_UNITY_tt_face_load_os2
ZHc:__ZN17PolygonCollider2D8TransferI24GenerateTypeTreeTransferEEvRT_
Bpf:_HMAC_get_Key_m2528863640
CLe:_Collection_1_IsSynchronized_m1366278230_gshared
SZf:__ZL93StringBuilder_t1221177846_CustomAttributesCacheGenerator_StringBuilder_AppendLine_m1686706871P21CustomAttributesCache
QHb:__Z29Transfer_Blittable_ArrayFieldI14SafeBinaryRead8Vector4fEvRT_R9ArrayInfoRK23StaticTransferFieldInfo
W7d:_Array_get_swapper_TisInt32_t2071877448_m2837069166_gshared
Mkj:__ZN6il2cpp2gc19AppendOnlyGCHashMapINSt3__24pairIPK10MethodInfoP11Il2CppClassEEP22Il2CppReflectionMethod17ReflectionMapHashIS9_ENS2_8equal_toIS9_EEE3AddERKS9_SB_
meh:_RectTransform_INTERNAL_get_rect_m1177342209
VGe:_Collection_1_Clear_m268154422_gshared
_Td:_PointerEventData_IsScrolling_m1971908975
bEj:__ZN6il2cpp2os26LibraryNamePrefixAndSuffixD2Ev
$eg:__ZL53UILineInfo_t3621277874_CustomAttributesCacheGeneratorP21CustomAttributesCache
NJd:_Decimal_System_IConvertible_ToInt16_m3159038792
vx:__ZN7mecanim9animation12EvaluateClipEPKNS0_4ClipEPKNS0_9ClipInputEPNS0_10ClipMemoryEPNS0_10ClipOutputE
Rpb:__ZN4PPtrI11LightProbesE8TransferI18StreamedBinaryReadILb0EEEEvRT_
Awi:_ComVisibleAttribute__ctor_m1789587486
z_g:_MonoMethodInfo_GetReturnType_m2864247130
q0a:__ZN13RenderManager29SetCurrentCameraAndStackStateEP6CameraP25CameraStackRenderingState
lrj:__ZN15dense_hashtableINSt3__24pairIK10KeyWrapperINS1_IP11Il2CppClassjEEES4_EES6_N6il2cpp8metadata14ArrayClassHashEN14dense_hash_mapIS6_S4_SB_NS6_14EqualsComparerINSA_17ArrayClassCompareEEENS0_9allocatorIS8_EEE9SelectKeyESF_SH_E12resize_deltaEjj
Yh:_JS_WebRequest_Release
p3e:_DirectoryNotFoundException__ctor_m2242202556
zR:__ZN11UnityEngine15CloudWebService14DataErrorEventD0Ev
Rld:_String_CreateString_m2448464375
UIf:_X509SubjectKeyIdentifierExtension__ctor_m2959112706
oYg:_FieldInfo_get_IsNotSerialized_m2322769148
H1f:__ZL68Math_t2022911894_CustomAttributesCacheGenerator_Math_Max_m2671311541P21CustomAttributesCache
hxj:__ZN6il2cpp8metadata15GenericMetadata7InflateEPK19Il2CppGenericMethodPK20Il2CppGenericContext
rSa:__ZN19ShaderPropertySheet16SetArrayPropertyEN9ShaderLab16FastPropertyNameENS_12PropertyTypeEPKvj
s_g:_MonoGenericCMethod_get_ReflectedType_m2689239043
DLe:_Collection_1_IsFixedSize_m499196375_gshared
RYd:_ColorTween_set_startColor_m3546206870_AdjustorThunk
Fxj:__ZN15dense_hashtableINSt3__24pairIK10KeyWrapperIP12Il2CppObjectEN6il2cpp2gc9CachedCCWEEES5_NS7_5utils11PointerHashIS3_EEN14dense_hash_mapIS5_S9_SD_NS5_14EqualsComparerINS0_8equal_toIS4_EEEENS0_9allocatorISA_EEE9SelectKeyESI_SK_E16reset_thresholdsEv
yMf:__ZL63String_t_CustomAttributesCacheGenerator_String_Split_m394273024P21CustomAttributesCache
O_c:__ZN2UI11CanvasGroup23VirtualRedirectTransferER19StreamedBinaryWriteILb0EE
hIh:_InternalEnumerator_1_get_Current_m4083613828_gshared
vmc:__ZN8GUIState8EndOnGUIEv
eFg:_UnicodeEncoding_GetString_m542738941
FXc:_UNITY_TT_Get_VMetrics
Q2e:_Path_InsecureGetFullPath_m2635272425
wBd:_Enumerator_Clone_m1124749523
xHd:_DateTime_System_IConvertible_ToUInt32_m1363211018
MAg:_RuntimeMethodHandle__ctor_m1162528746
Snj:__ZN15dense_hashtableINSt3__24pairIK10KeyWrapperIPK14Il2CppAssemblyEPK16MonoAssemblyNameEES6_N6il2cpp5utils11PointerHashIS4_EEN14dense_hash_mapIS6_SA_SF_NS6_14EqualsComparerINS0_8equal_toIS5_EEEENS0_9allocatorISB_EEE9SelectKeyESK_SM_E16reset_thresholdsEv
YAe:_List_1_AsReadOnly_m4108578222_gshared
eDg:_DSA__ctor_m613430209
tae:_SetPropertyUtility_SetStruct_TisSingle_t2076509932_m3849235084_gshared
iBa:__ZN7Texture21GetMasterTextureLimitEv
$4a:__Z12CanAddScriptR10GameObject17ScriptingClassPtrPS1_S2_
Hpj:__ZN6il2cpp2vm10Reflection12HasAttributeEP12Il2CppObjectP11Il2CppClass
GQa:_UNITY_png_write_sRGB
Mvc:__ZN8JSONRead21TransferSTLStyleArrayI13dynamic_arrayI4AABBLj4EEEEvRT_18MemLabelIdentifier17TransferMetaFlags
OUi:_InvokableCall_1__ctor_m121193486_gshared
I0:__ZN9ShaderLabL25StaticInitializeShaderLabEPv
pmh:_Dictionary_2_ContainsKeyValuePair_m3818021458_gshared
U:Math_max
MLe:_Collection_1_System_Collections_IList_Insert_m1511106741_gshared
K2i:__ZL24UnresolvedVirtualCall_92P12Il2CppObjectPK10MethodInfo
Qfj:_il2cpp_class_get_methods
T2e:_Path_CanonicalizePath_m383914732
nPh:_Enumerator_System_Collections_IEnumerator_get_Current_m1631145297_gshared
Dvd:_ArrayList_Synchronized_m2395071980
$Bj:__ZN6il2cpp2os6Thread16GetCurrentThreadEv
G4b:__ZN10GameObject13ComponentPair15SetComponentPtrEPN5Unity9ComponentE
r8e:_UnexceptionalStreamWriter_Write_m3206913035
x_b:__Z13RegisterClassI10MeshFilterEvv
$C:__ZNK26AnimatorControllerPlayable24GetAnimatorClipInfoCountEib
Eib:__ZN10TagManager8TransferI19StreamedBinaryWriteILb0EEEEvRT_
JEb:__ZN11PreloadData23VirtualRedirectTransferER18StreamedBinaryReadILb0EE
Gw:__Z17dynamic_pptr_castIP10MonoScript6ObjectET_RK4PPtrIT0_E
nFj:__ZN6il2cpp6icalls8mscorlib6System10ReflectionL40il2cpp_class_get_generic_type_definitionEP11Il2CppClass
cDg:_DESTransform_ProcessBlock_m2826669227
Y1h:__Z115RuntimeInvoker_Void_t1841601450_Il2CppObject_Int32_t2071877448_Int32_t2071877448_SByte_t454417549_Int32_t2071877448PK10MethodInfoPvPS2_
L_e:_Int16_CompareTo_m3493496879
g9h:__Z36RuntimeInvoker_Direction_t1525323322PK10MethodInfoPvPS2_
X9f:__ZL56RenderTexture_t2666733923_CustomAttributesCacheGeneratorP21CustomAttributesCache
Ajg:__ZL56ColorWriteMask_t926634530_CustomAttributesCacheGeneratorP21CustomAttributesCache
Vrb:__ZN6Sprite17MainThreadCleanupEv
n4f:__ZL56OidCollection_t3790243618_CustomAttributesCacheGeneratorP21CustomAttributesCache
OYf:__ZL61SignatureDescription_t89145500_CustomAttributesCacheGeneratorP21CustomAttributesCache
JHh:_InternalEnumerator_1_MoveNext_m3389738333_AdjustorThunk
aL:__ZN10AudioMixer14UpdateMuteSoloEv
qRa:__Z17GetMonoManagerPtrv
doi:_Component_GetComponents_m637589504
CDe:_Stack_1_System_Collections_ICollection_get_SyncRoot_m3151629354_gshared
Cth:_MaskableGraphic_UnityEngine_UI_IClippable_get_gameObject_m954171032
Wfa:__ZN9ShaderLab10SubProgram7CompileEv
lAa:__ZN7ApiGLES16SetPatchVerticesEi
P5e:_MonoIOStat_t1621921065_marshal_pinvoke
pKa:__ZN10MemoryFileC2E18MemLabelIdentifierP14MemoryFileData14FilePermission
jwg:_TrackingServices_NotifyUnmarshaledObject_m1794048369
l$i:__ZN6il2cpp2vm5Class20FromGenericParameterEPK22Il2CppGenericParameter
WWf:__ZL59RemotingServices_t2399536837_CustomAttributesCacheGeneratorP21CustomAttributesCache
BT:__ZN19CloudServiceHandler11FlushEventsEv
Hti:_AnimatorControllerPlayable_INTERNAL_CALL_GetAnimatorClipInfoInternal_m3180917212
N8:__ZN15GlobalCallbacksC2Ev
ydb:__ZN11AssetBundle8TransferI14SafeBinaryReadEEvRT_
YQh:__Z76RuntimeInvoker_Int32_t2071877448_Il2CppObject_Int32_t2071877448_Il2CppObjectPK10MethodInfoPvPS2_
Mhe:_Array_InternalArray__set_Item_TisLabelFixup_t4090909514_m565370771_gshared
jFc:__ZN7b2World10CreateBodyEPK9b2BodyDef
eOc:_UNITY_FT_New_Memory_Face
e3f:__ZL74X509Crl_t1699034837_CustomAttributesCacheGenerator_U3CU3Ef__switchU24map13P21CustomAttributesCache
aAg:_SerializationEntry__ctor_m1619256036_AdjustorThunk
oE:__Z81AnimatorControllerPlayable_CUSTOM_INTERNAL_CALL_GetAnimatorTransitionInfoInternalR9HPlayablei
aOa:__ZZ23InitPlayerLoopCallbacksvEN43PostLateUpdatePlayerSendFrameCompletestruct7ForwardEv
sta:__ZN26VertexDeclarationCacheGLES24DestroyVertexDeclarationEP17VertexDeclaration
hhd:__Z15CastclassSealedP12Il2CppObjectP11Il2CppClass
TZb:__ZN15ApplicationInfo14GetSandboxTypeEv
Y8g:_Material_HasProperty_m3175512802
tIb:__Z18Transfer_BlittableI17RemapPPtrTransferLb1EhEvRK29SerializationCommandArgumentsR31RuntimeSerializationCommandInfo
mEj:__ZNSt3__26vectorIjNS_9allocatorIjEEE26__swap_out_circular_bufferERNS_14__split_bufferIjRS2_EE
o3a:__ZN16ReflectionProbes40UpdateRealtimeReflectionProbesTimeslicedEv
yYi:_ListPool_1_Get_m529219189_gshared
Szj:__ZNSt3__26__treeINS_12__value_typeIP24Il2CppReflectionAssemblyPvEENS_19__map_value_compareIS3_S5_NS_4lessIS3_EELb1EEENS_9allocatorIS5_EEE16__insert_node_atEPNS_16__tree_node_baseIS4_EERSF_SF_
yWg:_MethodBuilder_GetBaseDefinition_m774166361
jyg:_FormatterConverter__ctor_m3958982477
l2b:__ZN16ReflectionProbes15InitializeClassEv
YKj:__ZN6il2cpp5utils5MatchENSt3__212basic_stringIcNS1_11char_traitsIcEENS1_9allocatorIcEEEEjRKS7_j
YOc:_UNITY_FT_Destroy_Class_psnames_module_class
OAc:__ZNK12b2WheelJoint17GetReactionTorqueEf
D9i:__ZNK15dense_hashtableINSt3__24pairIK10KeyWrapperIPK11Il2CppClassEPKcEES6_N6il2cpp5utils11PointerHashIS3_EEN14dense_hash_mapIS6_S9_SE_NS6_14EqualsComparerINS0_8equal_toIS5_EEEENS0_9allocatorISA_EEE9SelectKeyESJ_SL_E12test_deletedEj
RCi:_MRUList_Evict_m2430323183
wQe:_ReadOnlyCollection_1_System_Collections_Generic_ICollectionU3CTU3E_Remove_m1060547576_gshared
Syj:__ZN6il2cpp2vm5Image9GetCorlibEv
e8e:_NullTextWriter_Write_m2306984725
wA:__ZN8Animator13BatchedFKPassERK13dynamic_arrayIP14PlayableOutputLj4EE
uxf:_RecordProtocol_ProcessChangeCipherSpec_m3233959862
Vni:_Component_GetComponent_m4225719715
h0d:_Graphic_set_raycastTarget_m1229173591
gke:_Array_Sort_TisVector4_t2243707581_m474199742_gshared
yve:_List_1_CheckIndex_m2247532995_gshared
kig:__ZL93GUIUtility_t3275770671_CustomAttributesCacheGenerator_GUIUtility_set_guiIsExiting_m2362636745P21CustomAttributesCache
$7e:_TextWriter_Write_m576684782
QQi:_Vector3_Max_m2105825185
Uj:_glIsVertexArray
yF:__Z100Register_UnityEngine_Experimental_Director_AnimatorControllerPlayable_INTERNAL_CALL_SetIntegerStringv
MAb:__ZNSt3__26vectorIN4core12basic_stringIcNS1_20StringStorageDefaultIcEEEE13stl_allocatorIS5_L18MemLabelIdentifier12ELi16EEEC2INS_11__wrap_iterIPS5_EEEET_SE_RKS8_PNS_9enable_ifIXaasr21__is_forward_iteratorISE_EE5valuesr16is_constructibleIS5_NS_15iterator_traitsISE_E9referenceEEE5valueEvE4typeE
oKa:__ZN25SingleBlockMemoryFileDataC2E18MemLabelIdentifierPvjb
Ocb:__ZN5Unity9Component8TransferI18StreamedBinaryReadILb0EEEEvRT_
fa:invoke_fff
uAh:_Text_get_fontSize_m3105730761
vWj:b14
Lwf:_TlsServerHello_Update_m1740270635
ZZc:__ZN2UI6Canvas17MainThreadCleanupEv
axh:_ScrollRect_Rebuild_m3423824761
aBe:_List_1_Find_m3862454845_gshared
pDc:__ZTv0_n12_N10ClipperLib7ClipperD1Ev
GCi:_MatchCollection_get_Item_m2609281578
cHa:__ZN7ApiGLES13CreateProgramEv
vkb:__ZN11HaloManager7AddHaloEv
cGg:_UTF8Encoding__ctor_m100325490
vBa:__ZN4crnd12crn_unpackerD2Ev
Zzh:_StencilMaterial_ClearAll_m1372779118
ek:_emscripten_glTexImage2D
Dug:_ObjRefSurrogate_SetObjectData_m1873902916
qXc:_tt_driver_class_pic_init
r_:__ZN18ScriptingArguments9AddStringEPKc
LIj:_setup_header
ZNe:_ReadOnlyCollection_1_System_Collections_IList_get_IsReadOnly_m1367736517_gshared
n6f:__ZL116Component_t3819376471_CustomAttributesCacheGenerator_Component_GetComponentsInParent_m1920178904____includeInactive1P21CustomAttributesCache
cTj:runPostSets
Wlg:__ZL93AxisEventData_t1524870173_CustomAttributesCacheGenerator_AxisEventData_set_moveDir_m254243794P21CustomAttributesCache
tpa:__ZL23stbir__resize_arbitraryPvPKviiiS_iiiffffPfiij14stbir_datatype12stbir_filterS4_10stbir_edgeS5_16stbir_colorspace
Uwe:_List_1_System_Collections_IList_Insert_m848656350_gshared
f7b:__ZN19SpriteMeshGenerator4maskC2EP11ColorRGBA32iihj
jKb:__Z18Transfer_BlittableI24GenerateTypeTreeTransferLb1E8Vector4fEvRK29SerializationCommandArgumentsR31RuntimeSerializationCommandInfo
j$e:_Int16_ToString_m3971652088_AdjustorThunk
f3i:__ZL25UnresolvedVirtualCall_115P12Il2CppObjecttaaPK10MethodInfo
pk:_pthread_detach
tbj:__ZN6il2cpp2vm19SocketPollingThread7RunLoopEv
koe:_KeyValuePair_2__ctor_m1640124561_AdjustorThunk
Rtg:_MethodDictionary_AllocInternalProperties_m3261295876
Ohc:__ZN15DirectorManager20ScheduleGraphDestroyERK14HPlayableGraph
hsa:__ZNSt3__213__stable_sortIRN10vector_mapI17ScriptingClassPtrPKN5Unity4TypeENS_4lessIS2_EENS_9allocatorINS_4pairIS2_S6_EEEEE13value_compareENS_11__wrap_iterIPSB_EEEEvT0_SJ_T_NS_15iterator_traitsISJ_E15difference_typeEPNSM_10value_typeEi
D4f:__ZL77U3CPrivateImplementationDetailsU3E_t1486305139_CustomAttributesCacheGeneratorP21CustomAttributesCache
IUb:__ZN9ShaderLab25SerializedTextureProperty8TransferI24GenerateTypeTreeTransferEEvRT_
Beb:__ZN15dense_hashtableINSt3__24pairIKN4core12basic_stringIcNS2_20StringStorageDefaultIcEEEEP11AssetBundleEES6_20StringHash32FunctionIS6_EN14dense_hash_mapIS6_S9_SC_NS0_8equal_toIS6_EENS0_9allocatorISA_EEE9SelectKeyESF_SH_E12resize_deltaEjj
a2j:_emscripten_glIsShader__wrapper
znj:__ZN6il2cpp2gc19AppendOnlyGCHashMapINSt3__24pairIPK14Il2CppAssemblyP11Il2CppClassEEP24Il2CppReflectionAssembly17ReflectionMapHashIS9_ENS2_8equal_toIS9_EEEC2Ev
GSc:_tt_cmap14_char_next
uTf:__ZL69AssemblyTrademarkAttribute_t3740556705_CustomAttributesCacheGeneratorP21CustomAttributesCache
axa:__ZN13GfxDeviceGLES28GetNativeVertexBufferPointerEP9GfxBuffer
gea:__ZN11NamedObject8TransferI18StreamedBinaryReadILb0EEEEvRT_
aGa:__ZNK17GPUSkinPoseBuffer12GetBoneCountEv
roc:__Z32GUIStyle_Get_Custom_PropFontSizeP12Il2CppObject
Tzg:_DelegatePInvokeWrapper_CallbackHandler_t362827733
b2f:__ZL59ResolveEventArgs_t1859808873_CustomAttributesCacheGeneratorP21CustomAttributesCache
wVi:_UnityAction_1_BeginInvoke_m3462722079_gshared
Uvj:__ZNK15dense_hashtableINSt3__24pairIK10KeyWrapperIP14Il2CppIUnknownEjEES5_N6il2cpp5utils11PointerHashIS3_EEN14dense_hash_mapIS5_jSB_NS5_14EqualsComparerINS0_8equal_toIS4_EEEENS0_9allocatorIS7_EEE9SelectKeyESG_SI_E12test_deletedEj
gYg:_EventInfo_get_MemberType_m3337516651
suc:__Z18Transfer_BlittableI8JSONReadLb1EyEvRK29SerializationCommandArgumentsR31RuntimeSerializationCommandInfo
Mk:_emscripten_glMatrixMode
Rr:__ZN8Animator23VirtualRedirectTransferER18StreamedBinaryReadILb0EE
ZSf:__ZL93TypeBuilder_t3308873219_CustomAttributesCacheGenerator_TypeBuilder_GetConstructors_m774120094P21CustomAttributesCache
d4e:_NotSupportedException__ctor_m836173213
nug:_MethodReturnDictionary__ctor_m756139344
VQ:__ZN11UnityEngine15CloudWebService14DataDispatcher16PrepareDataBlockERNS0_16SessionContainerE
tHa:__ZN18GfxFramebufferGLES5ClearE13GfxClearFlagsRK10ColorRGBAffib
$Be:_List_1_GetIndex_m2513359832_gshared
DEh:_InternalEnumerator_1__ctor_m967618647_gshared
Gei:__Z62RuntimeInvoker_ParameterModifier_t1820634920_Int32_t2071877448PK10MethodInfoPvPS2_
eQb:__ZL26Transfer_SimpleNativeClassI18StreamedBinaryReadILb0EE10RectOffsetLb0EEvRK29SerializationCommandArgumentsR31RuntimeSerializationCommandInfo
VOc:_UNITY_ft_destroy_default_module_classes
zte:_List_1_CheckMatch_m1772343151_gshared
JVa:__ZL12DepthPassJobPN21GfxDeviceAsyncCommand10ArgScratchEPKNS_3ArgE
lTb:__ZNSt3__26vectorIN9ShaderLab20SerializedSubProgram16TextureParameterENS_9allocatorIS3_EEE6assignINS_11__wrap_iterIPS3_EEEENS_9enable_ifIXaasr21__is_forward_iteratorIT_EE5valuesr16is_constructibleIS3_NS_15iterator_traitsISC_E9referenceEEE5valueEvE4typeESC_SC_
D1e:_IntPtr_Equals_m1214967011_AdjustorThunk
Uze:_List_1_Add_m3591975577_gshared
L1c:__Z55Register_UnityEngine_CanvasGroup_get_ignoreParentGroupsv
Z_b:__Z13RegisterClassI19LowerResBlitTextureEvv
amg:__ZL100PointerEventData_t1599784723_CustomAttributesCacheGenerator_U3CpointerPressRaycastU3Ek__BackingFieldP21CustomAttributesCache
Qm:FUNCTION_TABLE_iiiiiiiiiiii
Yjb:__ZN16GraphicsSettingsD0Ev
l9a:__Z29StdTemplateConversionFunctionIshEbPvR14SafeBinaryRead
i$j:_pthread_mutex_init__wrapper
Q1a:__ZN15LODGroupManager21CalculateLODDataArrayERK13LODParametersPK6Cameraf
n:cttz_i8
jVc:_UNITY_FT_GlyphLoader_Add
IEh:_InternalEnumerator_1_System_Collections_IEnumerator_get_Current_m1004764375_AdjustorThunk
Xbg:__ZL108Physics2D_t2540166467_CustomAttributesCacheGenerator_Physics2D_GetRayIntersectionAll_m253330691____distance1P21CustomAttributesCache
rXe:_DateTimeFormatInfo_get_FullDateTimePattern_m2607507656
jxf:_HttpsClientStream_RaiseServerCertificateValidation_m3356770426
XOf:__ZL73Il2CppArray_CustomAttributesCacheGenerator_Array_BinarySearch_m3052238307P21CustomAttributesCache
oLd:_DelegateSerializationHolder__ctor_m3915060553
PAb:__ZN15SerializeTraitsINSt3__26vectorIN30RuntimeInitializeOnLoadManager9ClassInfoE13stl_allocatorIS3_L18MemLabelIdentifier12ELi16EEEEE8TransferI24GenerateTypeTreeTransferEEvRS7_RT_
Ake:_Array_swap_TisUIVertex_t1204258818_TisUIVertex_t1204258818_m1163375424_gshared
Il:_emscripten_glViewport
AZb:__Z21GenerateTilingAreaJobP22GenerateTilingAreaInfoj
tFj:__ZN6il2cpp6icalls8mscorlib6System15MonoCustomAttrs17IsDefinedInternalEP12Il2CppObjectP20Il2CppReflectionType
Mtb:__ZN4Mesh21UnswizzleVertexColorsEb
U9:__ZN30dense_hashtable_const_iteratorINSt3__24pairIKN4core12basic_stringIcNS2_20StringStorageDefaultIcEEEEP11AssetBundleEES6_20StringHash32FunctionIS6_EN14dense_hash_mapIS6_S9_SC_NS0_8equal_toIS6_EENS0_9allocatorISA_EEE9SelectKeyESF_SH_EppEv
Awf:_TlsServerSettings_set_CertificateTypes_m264196087
TFh:_InternalEnumerator_1__ctor_m4150855019_gshared
qId:_DateTime_ToString_m2276663647_AdjustorThunk
nXc:_cff_parse_font_bbox
scc:__Z35Application_Get_Custom_PropIsEditorv
vB:__GLOBAL__sub_I_runtime_animation2_lump_cpp
Myb:__ZN14PlayerSettings23VirtualRedirectTransferER18StreamedBinaryReadILb0EE
Ine:_KeyValuePair_2__ctor_m3201181706_AdjustorThunk
RNj:__ZN6il2cpp2os5Event5ResetEv
pNe:_ReadOnlyCollection_1_System_Collections_IList_Insert_m1130110335_gshared
Mti:_AnimatorControllerPlayable_GetCurrentAnimatorClipInfoCount_m335090574
Vwj:__ZN6il2cpp8metadata15GenericMetadata17InflateParametersEPK13ParameterInfohPK20Il2CppGenericContextb
O0e:_Int64_System_IConvertible_ToUInt32_m850395426_AdjustorThunk
c2:__ZN18AwakeFromLoadQueue28InvokePersistentManagerAwakeEPNS_4ItemEj17AwakeFromLoadMode
f9f:__ZL93MonoBehaviour_t1158329972_CustomAttributesCacheGenerator_MonoBehaviour_IsInvoking_m1469271462P21CustomAttributesCache
ski:_PCMReaderCallback_Invoke_m3610389815
xad:_HMACSHA512__ctor_m2390736870
Ru:__ZNK17AnimationPlayable27GetNextCompatibleDescendantEi
ps:__ZN8Animator20ProcessAnimationsJobEPNS_11AnimatorJobEj
Lwb:__ZN4PPtrI6SpriteE8TransferI18StreamedBinaryReadILb0EEEEvRT_
HUg:_TypeBuilder_GetInterfaces_m1818658502
Oyf:_TlsException_get_Alert_m4022765752
Anf:_BigInteger_op_Equality_m2683055762
adj:_GameController_GetLifePoints_m4174834142
Qaa:__Z25SetNeedToPerformRenderingb
N_g:_MonoMethod_GetPseudoCustomAttributes_m466965107
jFi:__ZN21InterfaceFuncInvoker0IP19LinkRef_t2090853131E6InvokeEjP11Il2CppClassP12Il2CppObject
BZa:__ZNSt3__227__insertion_sort_incompleteIR23CompareReflectionProbesP31RuntimeReflectionProbeBlendInfoEEbT0_S5_T_
YVa:__ZN14qsort_internal30FindAndMovePivotToLastPositionIP15RODataDepthPassi17ROSorterDepthPassEEvT_S4_T0_T1_
tfh:_ResourceRequest_t2560315377_marshal_pinvoke
Yfh:_Enumerator_System_Collections_IDictionaryEnumerator_get_Value_m3005608231_gshared
y1i:__ZL24UnresolvedVirtualCall_26P12Il2CppObjectS0_iiPK10MethodInfo
Tsh:_MaskUtilities_NotifyStencilStateChanged_m1527407683
X1a:__ZN12CullingGroup10SendEventsEPK17CullingGroupEventj
ihf:_DSAManaged_GenerateKeyPair_m2711647034
X7a:__ZN13sorted_vectorINSt3__24pairIN4core12basic_stringIcNS2_20StringStorageDefaultIcEEEES6_EEN10vector_mapIS6_S6_27compare_tstring_insensitiveIS6_E13stl_allocatorIS7_L18MemLabelIdentifier37ELi16EEE13value_compareESD_E9erase_oneIS6_EEjRKT_
xqb:__ZThn32_NK8Renderer8GetLayerEv
Mee:_Array_InternalArray__ICollection_Add_TisResourceCacheItem_t333236149_m1151081240_gshared
cRe:_ReadOnlyCollection_1_System_Collections_Generic_ICollectionU3CTU3E_get_IsReadOnly_m2197226755_gshared
UEd:_Convert_ToInt32_m2209788057
vzj:__ZN30dense_hashtable_const_iteratorINSt3__24pairIK10KeyWrapperINS1_IPKcS4_EEEiEES6_24NamespaceAndNamePairHashN14dense_hash_mapIS6_iS9_NS6_14EqualsComparerI26NamespaceAndNamePairEqualsEENS0_9allocatorIS8_EEE9SelectKeyESD_SF_E30advance_past_empty_and_deletedEv
Fxg:_SoapServices_GetXmlTypeForInteropType_m3821579913
psh:_EqualityComparer_1_System_Collections_IEqualityComparer_Equals_m3601790950_gshared
$hg:__ZL117GUIStyle_t1799908754_CustomAttributesCacheGenerator_GUIStyle_INTERNAL_CALL_Internal_GetCursorPixelPosition_m562482816P21CustomAttributesCache
$$j:_emscripten_glTexParameterfv__wrapper
XFi:_CaptureAssertion_IsComplex_m1433259302
Ybh:_Physics2D_INTERNAL_CALL_Internal_Raycast_m489831109
Hgj:_il2cpp_method_get_param_count
mZb:__ZN10systeminfo19ISOToSystemLanguageERN4core12basic_stringIcNS0_20StringStorageDefaultIcEEEE
hFc:__ZN18StreamedBinaryReadILb0EE21TransferSTLStyleArrayI13dynamic_arrayIS2_I8Vector2fLj4EELj4EEEEvRT_17TransferMetaFlags
smj:__ZNK15dense_hashtableINSt3__24pairIK10KeyWrapperINS1_IPK12PropertyInfoP11Il2CppClassEEEjEES9_17ReflectionMapHashIS8_EN14dense_hash_mapIS9_jSD_NS9_14EqualsComparerINS0_8equal_toIS8_EEEENS0_9allocatorISB_EEE9SelectKeyESI_SK_E3endEv
xIc:__ZN11Rigidbody2D8TransferI19StreamedBinaryWriteILb0EEEEvRT_
iOj:__ZN6il2cpp8metadata26Il2CppGenericMethodCompare6EqualsEPK19Il2CppGenericMethodS4_
Nca:__ZNSt3__26vectorIP10MemoryPool13stl_allocatorIS2_L18MemLabelIdentifier72ELi16EEE21__push_back_slow_pathIKS2_EEvRT_
LOi:_TouchScreenKeyboard_get_active_m1442597648
x4f:__ZL68Uri_t19570940_CustomAttributesCacheGenerator_U3CU3Ef__switchU24map15P21CustomAttributesCache
FTc:_ps_dimension_done
tWd:_LayoutRebuilder_MarkLayoutForRebuild_m640589351
PZc:__Z46Register_UnityEngine_TextGenerator_Dispose_cppv
aUd:_PointerEventData_get_pressEventCamera_m724559964
wgd:_String_IndexOfUnchecked_m3356721554
kpb:__ZN16LightmapSettings8TransferI14SafeBinaryReadEEvRT_
HCa:__ZN17BufferManagerGLES13ReleaseBufferEP14DataBufferGLES
gUh:__Z94RuntimeInvoker_Int32_t2071877448_Il2CppObject_Int32_t2071877448_Int32_t2071877448_Il2CppObjectPK10MethodInfoPvPS2_
quc:__Z18Transfer_BlittableI8JSONReadLb1EjEvRK29SerializationCommandArgumentsR31RuntimeSerializationCommandInfo
Bqg:__ZL63ScrollRect_t1199013257_CustomAttributesCacheGenerator_m_InertiaP21CustomAttributesCache
dJi:_PKCS12_Decrypt_m1557069392
MAh:_VertexHelper_AddUIVertexQuad_m280792808
pEf:_WebHeaderCollection_ToString_m1246460752
gGh:_InternalEnumerator_1_System_Collections_IEnumerator_get_Current_m2842514953_AdjustorThunk
tbi:__Z56RuntimeInvoker_Boolean_t3825574718_UriScheme_t1876590943PK10MethodInfoPvPS2_
ip:stackSave
yLi:_X509CrlEntry_get_Extensions_m79989256
$Tc:_ps_dimension_end
Ogc:__Z41Register_UnityEngine_Mesh_Internal_Createv
Pab:__ZN16MemoryFileSystem5TouchER13FileEntryData
jwb:__ZN14SpriteRenderer23VirtualRedirectTransferER24GenerateTypeTreeTransfer
Twj:__ZNK15dense_hashtableI10KeyWrapperIP18Il2CppGenericClassES3_N6il2cpp8metadata22Il2CppGenericClassHashEN14dense_hash_setIS3_S6_NS3_14EqualsComparerINS5_25Il2CppGenericClassCompareEEENSt3__29allocatorIS3_EEE8IdentityESA_SD_E12test_deletedERK30dense_hashtable_const_iteratorIS3_S3_S6_SF_SA_SD_E
n0i:__ZN6il2cpp2vm5Class14GetNestedTypesEP11Il2CppClassPPv
Oad:_MACTripleDES_Initialize_m1318099802
nqf:_MD5SHA1_VerifySignature_m507888141
ssd:_Byte_System_IConvertible_ToChar_m4188836679
$We:_NumberFormatter_InitDecHexDigits_m2036076025
Bgh:_Enumerator_get_CurrentKey_m3839846791_AdjustorThunk
bvc:__ZN8JSONRead21TransferSTLStyleArrayI13dynamic_arrayIaLj1EEEEvRT_18MemLabelIdentifier17TransferMetaFlags
Z3a:__ZN6Camera9SetAspectEf
_Yd:_ColorTween_get_ignoreTimeScale_m641454126_AdjustorThunk
xa:invoke_viiffiii
yNe:_ReadOnlyCollection_1_Contains_m1800950533_gshared
ong:__ZL79TouchInputModule_t2561058385_CustomAttributesCacheGenerator_m_ForceModuleActiveP21CustomAttributesCache
r1j:_emscripten_glBindVertexArray__wrapper
Rpf:_MD4__ctor_m2366413460
spi:_Display__ctor_m563295973
fig:__ZL97GUIStyle_t1799908754_CustomAttributesCacheGenerator_GUIStyle_Internal_CalcMinMaxWidth_m3660306863P21CustomAttributesCache
_lh:_Dictionary_2_InitArrays_m435313205_gshared
LF:__ZN10ObjectPoolIN4FMOD3DSPENS0_4DSPIEE7GetFreeEi
U4a:__ZN9Transform37InitializeTransformHierarchyRecursiveER18TransformHierarchyRii
m0b:__Z34DefaultPrepareDispatchBoundsUpdateR13RendererScene18MemLabelIdentifier
i0d:_Graphic_get_useLegacyMeshGeneration_m1366444625
kpg:__ZL65InputField_t1631627530_CustomAttributesCacheGenerator_m_InputTypeP21CustomAttributesCache
w2i:__ZL24UnresolvedVirtualCall_78P12Il2CppObjectPK10MethodInfo
xff:_ModulusRing_Pow_m1137250399
zMh:_InternalEnumerator_1_MoveNext_m2410670600_AdjustorThunk
lzf:_SslStreamBase_resetBuffer_m3028042362
VRa:__ZN17MeshRenderingData4InitEP4MeshS1_iP15SharedGfxBufferS3_
fVi:_InvokableCall_2_Find_m1763382885_gshared
hQe:_ReadOnlyCollection_1_System_Collections_ICollection_get_SyncRoot_m2779904122_gshared
Cqh:_EqualityComparer_1_System_Collections_IEqualityComparer_Equals_m1682986002_gshared
$yd:_Hashtable__cctor_m2952659675
CIf:_X509ChainStatus__ctor_m3628359961_AdjustorThunk
iie:_Array_InternalArray__set_Item_TisUICharInfo_t3056636800_m1953167516_gshared
Mgd:_Evidence_get_HostEvidenceList_m2095478124
Wjc:__Z57Register_UnityEngine_Transform_INTERNAL_set_localPositionv
stf:_Context_Clear_m4000337070
nxa:__ZN13GfxDeviceGLES26SetRandomWriteTargetBufferEi15ComputeBufferID
mLf:_IntervalCollection_Normalize_m538796191
BBd:_Console_SetEncodings_m342145566
VOi:_TrackedReference_op_Equality_m3491334086
$$d:_FontUpdateTracker_UntrackText_m3827316510
yeb:__ZN18AssetBundleManager19RegisterAssetBundleEP11AssetBundle
ulj:__ZN6il2cpp2gc19AppendOnlyGCHashMapINSt3__24pairIPK11Il2CppImageP11Il2CppClassEEP22Il2CppReflectionModule17ReflectionMapHashIS9_ENS2_8equal_toIS9_EEE10CopyValuesEPv
ume:_Array_InternalArray__get_Item_TisSingle_t2076509932_m1495809753_gshared
$he:_Array_InternalArray__set_Item_TisAnimatorClipInfo_t3905751349_m978873279_gshared
D9b:__ZNK11ICallString6ToUTF8Ev
VFi:_CaptureAssertion_get_Alternate_m2729005740
QGj:_GC_number_stack_black_listed
fwj:__ZN24dense_hashtable_iteratorINSt3__24pairIK10KeyWrapperIP14Il2CppIUnknownEjEES5_N6il2cpp5utils11PointerHashIS3_EEN14dense_hash_mapIS5_jSB_NS5_14EqualsComparerINS0_8equal_toIS4_EEEENS0_9allocatorIS7_EEE9SelectKeyESG_SI_E30advance_past_empty_and_deletedEv
ZVa:__ZNSt3__211__sift_downIR17ROSorterDepthPassP15RODataDepthPassEEvT0_S5_T_NS_15iterator_traitsIS5_E15difference_typeES5_
uRg:_Default_SelectMethod_m3081239996
rha:__ZN18UnityPropertySheet11UnityTexEnvC2Ev
Dbc:__ZNSt3__214__split_bufferIPN9BlobWrite11TypeContextENS_9allocatorIS3_EEE10push_frontERKS3_
Bs:__ZN8Animator17ApplyOnAnimatorIKEiRNS_11AnimatorJobE
h5:__ZN12FileAccessor4ReadEyyPvPy
Tfa:__ZN13dynamic_arrayI16ShaderKeywordSetLj4EE6insertEPS0_PKS0_S4_
eRb:__Z29Transfer_Blittable_ArrayFieldI18StreamedBinaryReadILb0EE11QuaternionfEvRT_R9ArrayInfoRK23StaticTransferFieldInfo
Ttg:_MethodDictionary_IsOverridenKey_m3922224650
oAd:_SyncHashtable_Contains_m3042906549
KCe:_List_1_System_Collections_IList_set_Item_m4016273526_gshared
TIf:_X509KeyUsageExtension_CopyFrom_m931530012
y3a:__ZN13RenderTexture9SetHeightEi
Olb:__ZN16LevelGameManager8TransferI24GenerateTypeTreeTransferEEvRT_
Qni:_Color32__ctor_m1932627809_AdjustorThunk
Zzf:_SslStreamBase_Read_m1036897444
Huh:_RectMask2D_PerformClipping_m1232012832
Uuj:__ZN6il2cpp6icalls8mscorlib6System2IO6MonoIO17GetFileAttributesEP12Il2CppStringPi
ihh:_Transform_1_Invoke_m4020530914_gshared
lSc:_tt_cmap8_char_index
jYb:__Z14tessMeshDeleteP8TESSmeshP12TESShalfEdge
N_:__Z24scripting_class_get_name17ScriptingClassPtr
a7:__ZN13RuntimeStaticI15GUIEventManagerLb0EE13StaticDestroyEPv
xEa:__ZN7ApiGLES14TextureSamplerEjj17TextureFilterMode15TextureWrapModeifb18ShadowSamplingModeN2gl17TextureSrgbDecodeE
o5b:__ZN15DirectorManager18ScheduleGraphStartERK14HPlayableGraph
Chi:_CustomEventData_AddUInt16_m3349298376
_Gb:__Z29Transfer_Blittable_ArrayFieldI14SafeBinaryReadjEvRT_R9ArrayInfoRK23StaticTransferFieldInfo
Nli:_Camera_FireOnPostRender_m94860165
tBb:__ZN23PreloadManagerOperationD0Ev
le:_emscripten_set_keydown_callback
Lzd:_Enumerator_get_Value_m3684748062
Fib:__ZN19StreamedBinaryWriteILb0EE21TransferSTLStyleArrayINSt3__26vectorI17SortingLayerEntryNS2_9allocatorIS4_EEEEEEvRT_17TransferMetaFlags
tMg:_UInt32_Parse_m3371984903
p5:__ZN12FileAccessorC2Ev
i6h:__Z52RuntimeInvoker_Void_t1841601450_ColorU26_t3402129837PK10MethodInfoPvPS2_
IKi:_X509CertificateCollection_Compare_m1014334435
T5a:__ZN9Transform35SetLocalPositionWithoutNotificationERKN4math7_float3E
JDi:_PatternLinkStack_GetCurrent_m2994645935
ujb:__ZN6Camera8TransferI19StreamedBinaryWriteILb0EEEEvRT_
MIc:__ZN23ColliderTilingExtensionC2Ev
Cui:_AnimatorControllerPlayable_PlayInFixedTime_m2629510873
TAi:_AsyncResult__ctor_m1183194429
sB:__ZN4PPtrI13MonoBehaviourE8TransferI18StreamedBinaryReadILb0EEEEvRT_
Vtg:_MethodDictionary_set_Item_m3475146889
Yci:__Z54RuntimeInvoker_Void_t1841601450_LabelFixup_t4090909514PK10MethodInfoPvPS2_
aXf:__ZL62WellKnownObjectMode_t2630225581_CustomAttributesCacheGeneratorP21CustomAttributesCache
aBh:_Toggle_PlayEffect_m3950629415
wae:_SetPropertyUtility_SetStruct_TisColorBlock_t2652774230_m2085520896_gshared
Vai:__Z69RuntimeInvoker_Void_t1841601450_Int32_t2071877448_Vector3_t2243707580PK10MethodInfoPvPS2_
rEb:__Z39WriteQueueForTransferSignatureIntoCacheRK31TransferFunctionScriptingTraitsRK24TransferRequestSignature17ScriptingClassPtrR23CachedSerializationDataRb
Rna:__ZN13RenderManager18UpdateAllRenderersEv
k5c:__ZN22BaseUnityConnectClient30OnEnteringStatePausedOrStoppedEv
NDc:__ZN10ClipperLib7Clipper18SwapPositionsInAELEPNS_5TEdgeES2_
rKe:_Collection_1_System_Collections_ICollection_get_SyncRoot_m2157752542_gshared
R8i:__ZN13dynamic_arrayIPK10Il2CppTypeLj4EE6assignEPKS2_S5_
bmj:__ZN15dense_hashtableINSt3__24pairIK10KeyWrapperINS1_IPK12PropertyInfoP11Il2CppClassEEEjEES9_17ReflectionMapHashIS8_EN14dense_hash_mapIS9_jSD_NS9_14EqualsComparerINS0_8equal_toIS8_EEEENS0_9allocatorISB_EEE9SelectKeyESI_SK_E12resize_deltaEjj
Qx:__ZN7mecanim5human12HumanPoseAddERNS0_9HumanPoseERKS1_S4_
rdi:__Z76RuntimeInvoker_Void_t1841601450_Int32_t2071877448_KeyValuePair_2_t3716250094PK10MethodInfoPvPS2_
uVi:_UnityAction_1__ctor_m2836997866_gshared
Wii:_Animator_ResetTrigger_m865269317
m$f:__ZL64AssemblyLoadEventArgs_t4233815743_CustomAttributesCacheGeneratorP21CustomAttributesCache
vJe:_Collection_1_IsFixedSize_m218241296_gshared
O5a:__Z24MergeTransformComponentsR9TransformS0_b
Fki:_DelegatePInvokeWrapper_AudioConfigurationChangeHandler_t3743753033
O5e:_MonoIO_get_PathSeparator_m2635828107
Qxg:_TypeInfo_get_TypeName_m1722081275
Fyc:__ZN15b2CircleContactD0Ev
Waf:_MonoType_get_Name_m865859211
EPd:_CultureInfo__cctor_m2290268677
ACh:_ArrayReadOnlyList_1_System_Collections_IEnumerable_GetEnumerator_m3039869667_gshared
hkd:_String_Trim_m3982520224
Nwg:_RemotingConfiguration__cctor_m2129988840
MHe:_Collection_1_Insert_m44548038_gshared
TMh:_InternalEnumerator_1_MoveNext_m4175772187_AdjustorThunk
RNf:__ZL42Il2CppArray_CustomAttributesCacheGeneratorP21CustomAttributesCache
vFj:__ZN6il2cpp2vm13ComObjectBase19GetRuntimeClassNameEPP15Il2CppHString__
Sj:_emscripten_glVertexAttribPointer
Zla:__ZN14PreloadManager26UpdatePreloadingSingleStepENS_21UpdatePreloadingFlagsEi
R8g:_Material__ctor_m1440882780
red:_SHA512Managed_Initialize_m891287980
D5h:__Z82RuntimeInvoker_Boolean_t3825574718_Il2CppObject_TextGenerationSettings_t2543476768PK10MethodInfoPvPS2_
_gd:_SecurityException__ctor_m1484114982
xyi:_SinkProviderData_get_Children_m100594762
nLi:_X509Crl_GetHashName_m183504634
fpd:_Array_GetValue_m1507415734
cic:__Z57Register_UnityEngine_RectTransform_INTERNAL_set_anchorMinv
PVe:_Object_MemberwiseClone_m2655589444
COe:_ReadOnlyCollection_1_System_Collections_IList_get_Item_m375043207_gshared
vja:__ZN6prcoreL25inner_stretch_i8_bilinearEPKNS_9InnerInfoE
rS:__ZN11UnityEngine15CloudWebService13WWWRestClient17GetResponseStatusEv
o3e:_DirectoryInfo_ToString_m4208086799
W_g:_MonoMethod_get_IsGenericMethod_m4276550811
vhh:_Transform_1_BeginInvoke_m3826027984_gshared
Jii:_AnimationEvent_set_time_m2162176572
pR:__ZN11UnityEngine15CloudWebService16SessionContainer24GetSessionHeaderJsonDataERKN4core12basic_stringIcNS2_20StringStorageDefaultIcEEEERNS2_13StringBuilderE
WDd:_Decimal_op_Implicit_m2149927308
P6:__ZN13RuntimeStaticI21AssetReferenceStorageLb0EE13StaticDestroyEPv
gMg:_UInt16_System_IConvertible_ToUInt32_m1864968312
FBj:__ZN6il2cpp6icalls8mscorlib6System9AppDomain22InternalGetProcessGuidEP12Il2CppString
WUc:_cf2_builder_moveTo
Ghf:_KeyPairPersistence_get_UseMachineKeyStore_m560802076
dEe:_Collection_1_CopyTo_m1840908033_gshared
vPh:_Enumerator_System_Collections_IDictionaryEnumerator_get_Entry_m345330700_AdjustorThunk
mZj:_glBindRenderbuffer__wrapper
Tdj:__ZNSt3__214__split_bufferIP9FieldInfoRNS_9allocatorIS2_EEEC2EjjS5_
iQd:_AbstractEventData__ctor_m3586111519
DKb:__Z18Transfer_BlittableI24GenerateTypeTreeTransferLb1EjEvRK29SerializationCommandArgumentsR31RuntimeSerializationCommandInfo
Mpf:_MD2Managed_Padding_m410163267
Qlj:__ZNK15dense_hashtableINSt3__24pairIK10KeyWrapperINS1_IPK11Il2CppImageP11Il2CppClassEEEjEES9_17ReflectionMapHashIS8_EN14dense_hash_mapIS9_jSD_NS9_14EqualsComparerINS0_8equal_toIS8_EEEENS0_9allocatorISB_EEE9SelectKeyESI_SK_E10test_emptyERK30dense_hashtable_const_iteratorISB_S9_SD_SM_SI_SK_E
vBh:_Toggle_UnityEngine_UI_ICanvasElement_get_transform_m4177274032
ilb:__ZN11ColorRGBA328TransferI14SafeBinaryReadEEvRT_
hCb:__ZN24RingBufferMemoryFileData4LockEPPv
hgh:_Enumerator_Dispose_m401572848_AdjustorThunk
Ski:_Bounds__ctor_m1202659404_AdjustorThunk
Qf:_emscripten_glClearDepth
Fmb:__ZN8Playable12SetPlayStateE9PlayState
Xfi:__Z70RuntimeInvoker_Boolean_t3825574718_Il2CppObject_BooleanU26_t3168250738PK10MethodInfoPvPS2_
xrb:__ZN14SafeBinaryRead21TransferSTLStyleArrayINSt3__26vectorIN15QualitySettings14QualitySettingENS1_9allocatorIS4_EEEEEEvRT_17TransferMetaFlags
Dke:_Array_swap_TisVector2_t2243707579_m3359959735_gshared
D3e:_File_OpenText_m4058508963
eza:__ZN7ApiGLES13CreateTextureEjN2gl9TexFormatEiiiii
c2h:__Z54RuntimeInvoker_Double_t4078015681_Interval_t2354235237PK10MethodInfoPvPS2_
xyb:__ZNSt3__26vectorINS_4pairIPKN5Unity4TypeE7Hash128EENS_9allocatorIS7_EEE8__appendEj
Rxg:_WellKnownClientTypeEntry__ctor_m670594074
xog:__ZL61FontData_t2614388407_CustomAttributesCacheGenerator_m_MinSizeP21CustomAttributesCache
uqj:__ZN15dense_hashtableINSt3__24pairIK10KeyWrapperIP11Il2CppClassES4_EES5_N6il2cpp8metadata16SZArrayClassHashEN14dense_hash_mapIS5_S4_SA_NS5_14EqualsComparerINS9_19SZArrayClassCompareEEENS0_9allocatorIS7_EEE9SelectKeyESE_SG_EC2ERKSJ_j
mHd:_DateTime_System_IConvertible_ToSingle_m3927769066_AdjustorThunk
zWc:_cff_font_load
KPi:_Enumerator_Reset_m950879083
rxf:_RecordProtocol_SendRecord_m2977889250
jcc:__Z13IsPathCreatedRKN4core12basic_stringIcNS_20StringStorageDefaultIcEEEE
zpa:__ZL22stbir__encode_scanlineP11stbir__infoiPvPfiii
NKc:__ZN20QuadTreeNodeRenderer13StaticDestroyEPv
DN:__ZN14AudioBehaviourD2Ev
_$b:__ZN9Transform12CleanupClassEv
pKj:__ZN6il2cpp6icalls8mscorlib6System9Threading16NativeEventCalls19CloseEvent_internalE12Il2CppIntPtr
Nt:__ZN11UnityEngine9Animation33SetGenericTransformPropertyValuesERKNS0_30AnimatorGenericBindingConstantERKN7mecanim10ValueArrayEP9Transformb
qtf:_ClientContext_set_ClientHelloProtocol_m2246603449
iOc:_UNITY_FT_Set_Pixel_Sizes
x6d:_U3CMouseDragOutsideRectU3Ec__Iterator1_MoveNext_m2845491958
ZTb:__ZNSt3__26vectorIN9ShaderLab19SerializedSubShaderENS_9allocatorIS2_EEE26__swap_out_circular_bufferERNS_14__split_bufferIS2_RS4_EE
v5h:__Z87RuntimeInvoker_Void_t1841601450_PlayableHandleU26_t3483893774_QuaternionU26_t4187826802PK10MethodInfoPvPS2_
pke:_Array_swap_TisAnimatorClipInfo_t3905751349_TisAnimatorClipInfo_t3905751349_m1375833338_gshared
Wej:_AnalyticsTracker_TriggerEvent_m1494303835
kVd:_StandaloneInputModule_IsModuleSupported_m623598506
yrj:__ZN6il2cpp2vmL24thread_cleanup_on_cancelEPv
UVh:__Z31RuntimeInvoker_Byte_t3683104436PK10MethodInfoPvPS2_
vvi:_ResourceReader_Close_m3256966401
VBg:_SByte_ToString_m4105923225_AdjustorThunk
ghb:_LZ4_compress_generic
Vzg:_StreamingContext_t1417235061_marshal_pinvoke_cleanup
IPd:_CultureInfo_ConstructCurrentUICulture_m3363349599
qsb:__ZN13dynamic_arrayI7SubMeshLj4EE18resize_initializedEjRKS0_12ResizePolicy
Mrg:__ZL75CanvasScaler_t2574720772_CustomAttributesCacheGenerator_m_FallbackScreenDPIP21CustomAttributesCache
taf:_MonoType_GetEvent_m4160342003
ruh:_RawImage_set_texture_m2400157626
m_i:_PrimeHelper_ToPrime_m1606935350_gshared
vlb:__Z30ProcessDynamicBatchGeometryJobP25DynamicVBOGeometryJobDataj
zqh:_EqualityComparer_1__ctor_m81618677_gshared
HWa:__ZNSt3__27__sort4IRNS_6__lessI11CulledLightS2_EEPS2_EEjT0_S6_S6_S6_T_
Dhj:__ZN6il2cpp2vm14TypeNameParser26ParseArrayModifierOptionalEv
Tcf:_MSCompatUnicodeTable_Level3_m260824928
Z6d:_LayoutElement_OnEnable_m3478706401
c_:__Z26scripting_object_get_class18ScriptingObjectPtr
Ofi:__Z72RuntimeInvoker_DictionaryEntry_t3048875398_Il2CppObject_SByte_t454417549PK10MethodInfoPvPS2_
C$b:__ZNK28MonoBehaviourPropertyBinding15GenerateBindingERKN4core12basic_stringIcNS0_20StringStorageDefaultIcEEEEbRN11UnityEngine9Animation14GenericBindingE
P6g:_GUIStyle_CalcMinMaxWidth_m2027503105
d$e:_Int32_FindExponent_m3187554672
Shf:_KeyPairPersistence_Load_m1355205585
Owh:_ScrollRect_get_horizontalScrollbarVisibility_m4152068235
f0e:_Int32_ToString_m2960866144_AdjustorThunk
KTi:_Predicate_1_Invoke_m3539717340_gshared
F_i:_HashSet_1_Contains_m3626542335_gshared
djd:_Single_CompareTo_m2081476257_AdjustorThunk
Eci:__Z57RuntimeInvoker_Int32_t2071877448_RaycastHit2D_t4063908774PK10MethodInfoPvPS2_
TDj:__ZN6il2cpp6icalls8mscorlib6System11Environment15internalGetHomeEv
Ccb:__ZNK5Unity9Component7GetNameEv
Aei:__Z49RuntimeInvoker_Slot_t2267560602_Int32_t2071877448PK10MethodInfoPvPS2_
wej:__ZNSt3__214__split_bufferIN6il2cpp6icalls8mscorlib6System12PropertyPairERNS_9allocatorIS5_EEEC2EjjS8_
Fy:__ZN34AnimationStateMachineMixerPlayable7GetTypeEv
Czg:__ZN21InterfaceFuncInvoker4IP12Il2CppObjectS1_P28SerializationInfo_t22898743028StreamingContext_t1417235061S1_E6InvokeEjP11Il2CppClassS1_S1_S3_S4_S1_
y1f:__ZL58IFormatProvider_t2849799027_CustomAttributesCacheGeneratorP21CustomAttributesCache
$Yi:_ObjectPool_1_Get_m3724675538_gshared
r7a:__ZN13ScreenManagerD0Ev
VQa:_UNITY_png_set_error_fn
tAc:__ZNK11b2RopeJoint16GetReactionForceEf
yt:__ZN7mecanim8skeleton26SkeletonPoseComputeGlobalQEPKNS0_8SkeletonEPKNS0_13SkeletonPoseTIN4math4trsXEEEPS7_ii
awc:__ZN8JSONRead21TransferSTLStyleArrayI13dynamic_arrayIfLj4EEEEvRT_18MemLabelIdentifier17TransferMetaFlags
pxe:_List_1_GetEnumerator_m2672519407_gshared
Zs:__ZN9BlobWrite8TransferI22OffsetPtrArrayTransferIiEEEvRT_PKc17TransferMetaFlags
Ecf:_ContractionComparer_Compare_m314873025
vGj:__ZN6il2cpp6icalls8mscorlib6System7Runtime15InteropServices8GCHandle15GetTargetHandleEP12Il2CppObjectii
hJb:__Z18Transfer_BlittableI17RemapPPtrTransferLb1EjEvRK29SerializationCommandArgumentsR31RuntimeSerializationCommandInfo
B7g:_GUIUtility_EndGUIFromException_m2091524531
x0e:_Int64_System_IConvertible_ToDouble_m638786774
iK:__ZN4FMOD6System7releaseEv
Pzd:_HashKeys_get_IsSynchronized_m4207641174
cMb:__Z18Transfer_BlittableI19StreamedBinaryWriteILb0EELb1E8BitFieldEvRK29SerializationCommandArgumentsR31RuntimeSerializationCommandInfo
T4:__Z18PathToAbsolutePathRKN4core12basic_stringIcNS_20StringStorageDefaultIcEEEE
Doe:_Enumerator_MoveNext_m3078170540_AdjustorThunk
Ved:_SymmetricAlgorithm_get_Padding_m718051685
drb:__ZNK8Renderer26GetTypeInfoVirtualInternalEv
PHc:__ZThn160_N17PolygonCollider2D5ResetEv
Kni:_Color_Lerp_m3323752807
Igc:__Z22Mesh_CUSTOM_HasChannelP12Il2CppObject30InternalScriptingShaderChannel
z5b:__ZN15DirectorManager17AcquireOutputNodeEv
ACb:__ZN10MonoScript23VirtualRedirectTransferER17RemapPPtrTransfer
Sw:__ZN8Playable11SetDurationEd
z$f:__ZL76Convert_t2607082565_CustomAttributesCacheGenerator_Convert_ToChar_m541258017P21CustomAttributesCache
wGa:__ZN16GeometryJobTasks20ScheduleGeometryJobsER9GfxDevicePFvP15GeometryJobDataEPK22GeometryJobInstructionjb
t6g:_GUIUtility_Internal_GetHotControl_m2510727642
jI:__ZN12AudioManager29ShutdownReinitializeAndReloadEv
PIi:_NetscapeCertTypeExtension_Decode_m2210025005
Leh:_RectTransform_GetLocalCorners_m1836626405
_xg:_BaseFixupRecord_DoFixup_m1821597450
o$i:__ZN15dense_hashtableINSt3__24pairIK10KeyWrapperIPK22Il2CppGenericParameterEP11Il2CppClassEES6_N6il2cpp5utils11PointerHashIS4_EEN14dense_hash_mapIS6_S9_SE_NS6_14EqualsComparerINS0_8equal_toIS5_EEEENS0_9allocatorISA_EEE9SelectKeyESJ_SL_E6insertERKSA_
H3e:_FileLoadException__ctor_m1356374414
vsf:_TlsStream_Reset_m1504601050
yre:__ZN23InterfaceActionInvoker2IP23Int32U5BU5D_t3030399641iE6InvokeEjP11Il2CppClassP12Il2CppObjectS1_i
Pza:__ZN14DataBufferGLES16RecreateWithDataEjPKv
Ibc:__Z29GetGlobalAllowNameConversionsv
M6a:__ZN8Material8SetColorEN9ShaderLab16FastPropertyNameERK10ColorRGBAf
eZg:_Module_GetCustomAttributes_m3581287913
kPf:__ZL67Type_t_CustomAttributesCacheGenerator_Type_IsSubclassOf_m2450899481P21CustomAttributesCache
bM:__ZN11AudioSource23VirtualRedirectTransferER18StreamedBinaryReadILb0EE
vd:___syscall91
U6:__ZN21AssetReferenceStorageC2Ev
FMb:__ZN10RectOffset8TransferI19StreamedBinaryWriteILb0EEEEvRT_
sLc:__ZNSt3__26vectorIN4core12basic_stringIcNS1_20StringStorageDefaultIcEEEE13stl_allocatorIS5_L18MemLabelIdentifier34ELi16EEEC2INS_11__wrap_iterIPS5_EEEET_SE_RKS8_PNS_9enable_ifIXaasr21__is_forward_iteratorISE_EE5valuesr16is_constructibleIS5_NS_15iterator_traitsISE_E9referenceEEE5valueEvE4typeE
R_:__ZL41AssemblyNameMatchesWithOrWithoutExtensionPKcS0_
HEc:__ZN23ColliderTilingExtension5ResetEv
Rji:_AssemblyIsEditorAssembly__ctor_m2639706522
eEa:__ZN14GfxContextGLES43AddRenderSurfaceToDeferredFBOInvalidateListEPK17RenderSurfaceGLES
wsj:__ZN6il2cpp6icalls8mscorlib6System9Threading6Thread15Thread_internalEP12Il2CppThreadP14Il2CppDelegate
bfa:__ZN11NamedObject23VirtualRedirectTransferER14SafeBinaryRead
YNc:__ZNSt3__26vectorIN20TextRenderingPrivate8FontImpl13CharacterInfoE13stl_allocatorIS3_L18MemLabelIdentifier1ELi16EEE6insertENS_11__wrap_iterIPKS3_EERS9_
hma:__ZN23PreloadManagerOperation6IsDoneEv
N9f:__ZL102DataUtility_t4181890362_CustomAttributesCacheGenerator_DataUtility_INTERNAL_CALL_GetOuterUV_m121019172P21CustomAttributesCache
Dcj:__ZN6il2cpp2vm7Runtime15InvokeWithThrowEPK10MethodInfoPvPS5_
xlf:_X509Certificate_get_RawData_m3000055075
U$i:__ZNSt3__26vectorIPK10Il2CppTypeNS_9allocatorIS3_EEE21__push_back_slow_pathIRKS3_EEvOT_
g6b:__Z33GetHasChangedDeprecatedSystemMaskv
XAj:__ZN6il2cpp5utils11StringUtils11Utf16ToUtf8ERKNSt3__212basic_stringIDsNS2_11char_traitsIDsEENS2_9allocatorIDsEEEE
W2e:_MonoIO_GetException_m2577367044
jQh:_Enumerator_VerifyState_m1165543189_AdjustorThunk
UHd:_DateTime_AddSeconds_m722082155_AdjustorThunk
axd:_SynchronizedArrayListWrapper_CopyTo_m956887031
v9i:__ZNSt3__213__lower_boundIRN6il2cpp5utils11collections13ArrayValueMapIPK10Il2CppType17Il2CppInteropData26InteropDataToTypeConverterNS1_8metadata14Il2CppTypeLessENSA_26Il2CppTypeEqualityComparerEE22LowerBoundFindComparerEPKS8_S7_EET0_SI_SI_RKT1_T_
ZNh:_Comparer_1__ctor_m1202126643_gshared
hbg:__ZL92Transform_t3275118058_CustomAttributesCacheGenerator_Transform_get_parentInternal_m927919099P21CustomAttributesCache
Dqa:__ZN21LightProbeProxyVolume18HasHardwareSupportEv
HFc:__ZNK20b2SeparationFunction17FindMinSeparationEPiS0_f
qja:__ZN6prcoreL31inner_stretch_argb8888_bilinearEPKNS_9InnerInfoE
KNb:__Z18Transfer_BlittableI18StreamedBinaryReadILb1EELb1E8BitFieldEvRK29SerializationCommandArgumentsR31RuntimeSerializationCommandInfo
BQc:_UNITY_FT_Outline_Decompose
Cvf:_TlsClientCertificate_get_ClientCertificate_m3062440489
Cgd:_StrongNamePublicKeyBlob_ToString_m3721281223
okg:__ZL80UnityEvent_t408735097_CustomAttributesCacheGenerator_UnityEvent__ctor_m588741179P21CustomAttributesCache
yFh:_InternalEnumerator_1_get_Current_m198513457_AdjustorThunk
uJh:_InternalEnumerator_1__ctor_m1240086835_AdjustorThunk
tUa:__Z20scripting_object_new17ScriptingClassPtr
fS:__ZN11UnityEngine15CloudWebService10RestClientINS0_16WWWRestHeaderMapEED2Ev
qec:__Z31Display_CUSTOM_GetSystemExtImpl13Il2Cpp_IntPtrPiS0_
Ekc:__Z58Register_UnityEngine_Object_Internal_CloneSingleWithParentv
bkj:__ZN24dense_hashtable_iteratorINSt3__24pairIK10KeyWrapperINS1_IPK9FieldInfoP11Il2CppClassEEEjEES9_17ReflectionMapHashIS8_EN14dense_hash_mapIS9_jSD_NS9_14EqualsComparerINS0_8equal_toIS8_EEEENS0_9allocatorISB_EEE9SelectKeyESI_SK_E30advance_past_empty_and_deletedEv
qE:__Z75AnimatorControllerPlayable_CUSTOM_INTERNAL_CALL_GetAnimatorClipInfoInternalP12Il2CppObjectR9HPlayableihS0_
Ysc:__ZN9JSONWrite8TransferI13dynamic_arrayI8BitFieldLj4EEEEvRT_PKc17TransferMetaFlags
X_a:__ZN18ShadowMapJobHeaderD0Ev
o0d:_Graphic_OnRectTransformDimensionsChange_m1610753363
TFd:_Convert_ToUInt16_m3265369225
P:Math_exp
_9e:_MonoEnumInfo_get_Cache_m3551569711
Ko:FUNCTION_TABLE_iiifi
QAj:__ZN6il2cpp2os5posix13PosixAutoLockD2Ev
h9d:_Array_InternalArray__ICollection_Contains_TisVector3_t2243707580_m3625701788_gshared
Msa:__ZNSt3__26vectorINS_4pairIyP17VertexDeclarationEENS_9allocatorIS4_EEE6insertENS_11__wrap_iterIPKS4_EERS9_
mAi:__ZN21InterfaceFuncInvoker0IP6Type_tE6InvokeEjP11Il2CppClassP12Il2CppObject
JUc:_cff_get_advances
B4a:__ZN13MonoBehaviour9SetScriptERK4PPtrI10MonoScriptE18ScriptingObjectPtr
hQc:_UNITY_FT_Create_Class_sfnt_module_class
NAh:_Text_CalculateLayoutInputHorizontal_m1578553982
yag:__ZL87Object_t1021602117_CustomAttributesCacheGenerator_Object_DestroyObject_m282495858____t1P21CustomAttributesCache
Mvj:__ZNSt3__218uninitialized_copyIPNS_4pairIK10KeyWrapperIP14Il2CppIUnknownEjEES8_EET0_T_SA_S9_
nsi:_AnimatorControllerPlayable_SetFloatString_m3937146789
mKd:_Decimal_IsZero_m3557909184_AdjustorThunk
Gud:_Char_ToString_m1401375624
Wad:_MD5CryptoServiceProvider__cctor_m3309191799
PX:__ZNK10FileSystem16LastErrorMessageEv
AGj:__ZNK6il2cpp8metadata14Il2CppTypeLessclEPK10Il2CppTypeS4_
M_h:__Z51RuntimeInvoker_UInt32_t2149682021_Int16_t4041245914PK10MethodInfoPvPS2_
KKf:_InterpreterFactory_get_NamesMapping_m3186583301
Oyi:_ConfigHandler_ReadCustomProviderData_m784203316
p8f:__ZL87Input_t1785128008_CustomAttributesCacheGenerator_Input_get_compositionString_m636835668P21CustomAttributesCache
oqe:_Enumerator_System_Collections_IEnumerator_Reset_m3052395060_gshared
n9c:__ZN22UnityWebRequestManager10InitializeEv
OGe:_Collection_1_System_Collections_ICollection_get_SyncRoot_m1997144145_gshared
Vnf:_Kernel_DwordDivMod_m3728402123
$Cb:__ZN13MonoBehaviour13AwakeFromLoadE17AwakeFromLoadMode
p1c:__ZZN2UI14CanvasRenderer15InitializeClassEvEN38FunctorImpl_810kCanvasHierarchyChanged4CallEPviR11MessageData
bJb:__ZL26Transfer_SimpleNativeClassI17RemapPPtrTransfer8GradientLb1EEvRK29SerializationCommandArgumentsR31RuntimeSerializationCommandInfo
u6b:__ZN12CachedWriter9InitWriteER15CacheWriterBase
a5b:__Z21UnsignedInt64ToStringy
XFg:_UTF7Decoder__ctor_m549434986
Fch:_Quaternion_ToString_m2638853272
OLh:_InternalEnumerator_1_get_Current_m1025321669_AdjustorThunk
ibh:_Object_t1021602117_marshal_pinvoke
ehc:__Z36MonoBehaviour_CUSTOM_InvokeRepeatingP12Il2CppObjectP12Il2CppStringff
fkc:__Z66Register_UnityEngine_Transform_INTERNAL_CALL_InverseTransformPointv
WGh:_InternalEnumerator_1_MoveNext_m2720582493_gshared
xLi:_X509CrlEntry_get_RevocationDate_m1257876856
wLi:_X509Crl_VerifySignature_m1390212587
EJf:_Group__ctor_m4103922028
kRa:__ZN6Camera26ClearIntermediateRenderersEj
Ybj:__ZNSt3__214__split_bufferI6pollfdRNS_9allocatorIS1_EEEC2EjjS4_
wQa:_UNITY_png_write_pCAL
a1j:_glLinkProgram__wrapper
Xja:__ZN6prcoreL12RemapGenericI17TexFormatARGB888815TexFormatBGR888EEvPKNS_9InnerInfoE
abd:_MD5CryptoServiceProvider_ProcessFinalBlock_m1052610785
sE:__Z79AnimatorControllerPlayable_CUSTOM_INTERNAL_CALL_GetNextAnimatorClipInfoInternalR9HPlayablei
qxd:_BitArray_Set_m2878881714
L4i:__ZL25UnresolvedVirtualCall_201P12Il2CppObjectPK10MethodInfo
LKe:_Collection_1_get_Item_m4215988522_gshared
NZe:_Guid_CompareTo_m2203922782_AdjustorThunk
dyh:_Selectable_get_colors_m3501193396
twj:__ZN6il2cpp6icalls8mscorlib6System13Globalization11CultureInfo35construct_internal_locale_from_nameEP17Il2CppCultureInfoP12Il2CppString
uSh:__Z58RuntimeInvoker_Il2CppObject_Int32_t2071877448_Il2CppObjectPK10MethodInfoPvPS2_
PKb:__ZL22Transfer_ManagedObjectI24GenerateTypeTreeTransferLb1EEvRK29SerializationCommandArgumentsR31RuntimeSerializationCommandInfo
Tag:__ZL72SceneManager_t90660965_CustomAttributesCacheGenerator_activeSceneChangedP21CustomAttributesCache
EUf:__ZL55COMException_t1790481504_CustomAttributesCacheGeneratorP21CustomAttributesCache
ngf:_ASN1_get_Count_m404940548
hAi:_ContextAttribute_Equals_m53324298
qmi:_Canvas_ForceUpdateCanvases_m2446828475
$j:_emscripten_set_main_loop_timing
rec:__Z34Display_CUSTOM_GetRenderingExtImpl13Il2Cpp_IntPtrPiS0_
MPg:_WeakReference_AllocateHandle_m1783929473
Kza:__ZN14DataBufferGLES12RecordRenderEv
e6a:__ZN14ImageReference10FlipImageYEv
opi:_DebugLogHandler_LogFormat_m177245518
ojb:__Z32TransferEnumWithNameForceIntSizeI14SafeBinaryRead13TargetEyeMaskEvRT_RT0_PKc17TransferMetaFlags
Nmc:__Z14GetDefaultSkini
LPd:_CultureInfo_get_Name_m3316229893
KHd:_DateTime_get_Ticks_m310281298_AdjustorThunk
IF:__ZN4FMOD3DSP9setBypassEb
SLe:_Collection_1_System_Collections_IList_get_Item_m287847793_gshared
dbb:__Z19NormalizeWheelInputf
qJf:_CaptureCollection_CopyTo_m1982767892
m9a:__Z29StdTemplateConversionFunctionIsaEbPvR14SafeBinaryRead
p9d:_Array_InternalArray__ICollection_Remove_TisLink_t865133271_m1984184141_gshared
bwc:__Z29Transfer_Blittable_ArrayFieldI8JSONReadhEvRT_R9ArrayInfoRK23StaticTransferFieldInfo
G7d:_LayoutRebuilder_IsDestroyed_m3442208294
G9b:__ZN11MonoManager25GetImageFromAssemblyIndexEi
BNj:__ZN6il2cpp2os20ThreadLocalValueImpl8SetValueEPv
IRa:__ZN22RenderingCommandBuffer20CleanupCommandBufferEv
eOa:__ZZ23InitPlayerLoopCallbacksvEN43PostLateUpdateClearImmediateRenderersstruct7ForwardEv
Hrc:__Z18Transfer_BlittableI9JSONWriteLb1EtEvRK29SerializationCommandArgumentsR31RuntimeSerializationCommandInfo
I3e:_FileLoadException__ctor_m918124939
rk:___syscall85
ATa:__ZNSt3__26__sortIRPFbP10GUIElementS2_EPS2_EEvT0_S7_T_
Cof:_SequentialSearchPrimeGeneratorBase_GenerateSearchBase_m2930465198
N3b:__ZN16GraphicsSettings12CleanupClassEv
$L:__ZNK11AudioSource26GetTypeInfoVirtualInternalEv
J$i:__ZN6il2cpp2vmL21SetupInterfacesLockedEP11Il2CppClassRKNS_2os12FastAutoLockE
VEb:__ZN11MonoManager23VirtualRedirectTransferER24GenerateTypeTreeTransfer
rA:__ZN23AnimationPlayableOutput17SetSourcePlayableEP8Playable
eJf:_Capture__ctor_m885749277
S5g:_GUIStyle_set_clipOffset_m3871613343
y3d:_SubmitEvent__ctor_m222860306
Yi:_emscripten_glUniformMatrix4fv
lR:__ZN11UnityEngine15CloudWebService14DataDispatcher15SetupWebRequestEv
iZh:__Z94RuntimeInvoker_Int32_t2071877448_Il2CppObject_Int32_t2071877448_Il2CppObject_Int32_t2071877448PK10MethodInfoPvPS2_
S7e:_TextWriter__cctor_m4047845042
Oxf:_ReceiveRecordAsyncResult_get_Record_m1336421357
d6c:__ZN11UnityEngine15PlatformWrapper13GetShaderCapsEv
a0a:__ZNSt3__211__sift_downIR26RenderDeferredObjectSorterP16RenderObjectDataEEvT0_S5_T_NS_15iterator_traitsIS5_E15difference_typeES5_
w$f:__ZL76Convert_t2607082565_CustomAttributesCacheGenerator_Convert_ToByte_m509311047P21CustomAttributesCache
S3d:_InputField_CaretBlink_m3960486606
bk:_emscripten_glGetProgramiv
qif:_SmallXmlParser_ReadCharacters_m1966365555
xzf:_InternalAsyncResult_get_CompletedWithError_m3993955322
w4b:__ZN21FixedBehaviourManager6UpdateEv
Xbc:__ZN9Transform9SetParentEPS_NS_15SetParentOptionE
VOe:_ReadOnlyCollection_1_System_Collections_IList_Add_m527174473_gshared
i0:__ZN19ShaderPropertySheet8SetFloatEN9ShaderLab16FastPropertyNameEfNS_8SetFlagsE
lpg:__ZL68InputField_t1631627530_CustomAttributesCacheGenerator_m_AsteriskCharP21CustomAttributesCache
tna:__ZN19RuntimeSceneManager24BeginIntegrateMainThreadEP10UnityScene
z2h:__Z42RuntimeInvoker_RuntimePlatform_t1869584967PK10MethodInfoPvPS2_
J0h:__Z80RuntimeInvoker_Void_t1841601450_Il2CppObject_Int32_t2071877448_Int16_t4041245914PK10MethodInfoPvPS2_
mDj:__ZNSt3__2plIcNS_11char_traitsIcEENS_9allocatorIcEEEENS_12basic_stringIT_T0_T1_EERKS9_S6_
CXh:__Z53RuntimeInvoker_MonoEventInfo_t2190036573_Il2CppObjectPK10MethodInfoPvPS2_
J8e:_LocalDataStoreSlot__cctor_m1192669356
FTb:__ZN9ShaderLab20SerializedSubProgramaSERKS0_
xTj:_roundf
Tld:_String_CreateString_m2556700934
Dib:__ZN18StreamedBinaryReadILb0EE21TransferSTLStyleArrayINSt3__26vectorI17SortingLayerEntryNS2_9allocatorIS4_EEEEEEvRT_17TransferMetaFlags
jyh:_Selectable_get_targetGraphic_m137842753
_r:__ZN8Animator15SetPrepareStageEv
yzh:_Slider_get_axis_m162140813
VZg:_MonoEventInfo_t2190036573_marshal_pinvoke
K$i:__ZN6il2cpp2vmL24SetupTypeHierarchyLockedEP11Il2CppClassRKNS_2os12FastAutoLockE
kbb:__ZL11TextHandleriPK23EmscriptenKeyboardEventPv
lZa:__Z20CalculateLightMatrixRK15SharedLightDataP10Matrix4x4f
Wxh:_ScrollRect_SetLayoutHorizontal_m3486408020
wNc:_destroy_face
WZi:_GenericEqualityComparer_1_GetHashCode_m116190842_gshared
Sri:_AnimationOffsetPlayable_INTERNAL_CALL_GetPosition_m602003518
pSf:__ZL55StreamWriter_t3858580635_CustomAttributesCacheGeneratorP21CustomAttributesCache
jKc:__ZN5physx19PxAllocatorCallbackD2Ev
mNa:__ZN24dense_hashtable_iteratorINSt3__24pairIKN4core12basic_stringIcNS2_20StringStorageDefaultIcEEEEP20ArchiveStorageReaderEES6_20StringHash32FunctionIS6_EN14dense_hash_mapIS6_S9_SC_NS0_8equal_toIS6_EE13stl_allocatorISA_L18MemLabelIdentifier54ELi16EEE9SelectKeyESF_SI_EC2EPK15dense_hashtableISA_S6_SC_SK_SF_SI_EPSA_SQ_b
KKj:__ZN6il2cpp6icalls8mscorlib6System8Security12Cryptography24RNGCryptoServiceProvider13RngInitializeEP11Il2CppArray
LAe:_List_1_System_Collections_ICollection_get_IsSynchronized_m227393674_gshared
gDf:_IPAddress__cctor_m3624830012
kM:__ZN20SoundChannelInstance7setMuteEb
rmb:__ZN4PPtrI5LightE8TransferI19StreamedBinaryWriteILb0EEEEvRT_
ycg:__ZL115AnimatorStateInfo_t2577870592_CustomAttributesCacheGenerator_AnimatorStateInfo_t2577870592____nameHash_PropertyInfoP21CustomAttributesCache
_Ef:_AsnEncodedData_EnhancedKeyUsageExtension_m1452131166
FOb:__Z19TransferField_ArrayI18StreamedBinaryReadILb1EE27Converter_SimpleNativeClassI17AnimationCurveTplIfEEEvRK23StaticTransferFieldInfoR31RuntimeSerializationCommandInfoRT0_
KIc:__ZN7b2World18SetContactListenerEP17b2ContactListener
LJf:_GroupCollection_get_IsSynchronized_m1100663675
sAa:__ZN18GfxFramebufferGLES22MakeCurrentFramebufferENS_7BuiltinE
AKj:__ZN6il2cpp2vm12MarshalAlloc4FreeEPv
kKf:_Interpreter_Close_m1500459069
m3i:__ZL25UnresolvedVirtualCall_122P12Il2CppObject32ScriptableRenderContext_t4271526S0_PK10MethodInfo
vk:_JS_SystemInfo_GetWidth
Wpa:__ZN12CachedReader4ReadEPvj
Ndg:__ZL113AnimatorControllerPlayable_t4078305555_CustomAttributesCacheGenerator_AnimatorControllerPlayable_Play_m3114724599P21CustomAttributesCache
dVc:_cf2_blues_init
CFh:_InternalEnumerator_1_System_Collections_IEnumerator_get_Current_m3600601141_gshared
Hdd:_SHA1Internal_HashFinal_m3188468925
_Qi:_Vector3_op_Inequality_m799191452
lud:_Char_GetHashCode_m2343577184
DYa:__Z24CalculateLightShadowFadeRK6CamerafffR8Vector4f
H1:__ZN19RuntimeSceneManagerD2Ev
x2f:__ZL55HeaderHandler_t324204131_CustomAttributesCacheGeneratorP21CustomAttributesCache
Uxi:_ChannelData_get_CustomProperties_m1470957369
pja:__ZN6prcore17GetIntegerBlitterE13TextureFormatS0_N14ImageReference8BlitModeE
Gli:_Camera_INTERNAL_CALL_ScreenPointToRay_m2752248646
qlj:__ZN6il2cpp2gc19AppendOnlyGCHashMapINSt3__24pairIPK11Il2CppImageP11Il2CppClassEEP22Il2CppReflectionModule17ReflectionMapHashIS9_ENS2_8equal_toIS9_EEE11TryGetValueERKS9_PSB_
fgh:_Enumerator_VerifyState_m3173176371_AdjustorThunk
kCf:_TypeConverterAttribute__cctor_m506796812
Hnd:_Encoding_get_IsReadOnly_m3729101432
Hbc:__ZN9BlobWrite14ReduceCopyImplERK14ReduceCopyDataj
gPg:_ValueType_t3507792607_marshal_pinvoke_back
dOh:_Comparer_1_System_Collections_IComparer_Compare_m1790257529_gshared
xgi:__Z37RuntimeInvoker_Enumerator_t3220004478PK10MethodInfoPvPS2_
ZYg:_MethodInfo_get_ContainsGenericParameters_m572340060
LAc:__ZNK12b2WheelJoint10GetAnchorAEv
dYj:_glShaderSource__wrapper
MKa:__ZN25MultiBlocksMemoryFileData17AdjustBlocksCountEj
atj:__ZNSt3__214__split_bufferIN6il2cpp2vm22EmbeddedResourceRecordERNS_9allocatorIS3_EEED2Ev
xtf:_TlsClientHello__ctor_m1699671541
d3b:__ZZN12MeshRenderer15InitializeClassEvEN29FunctorImpl_134kDidModifyMesh4CallEPviR11MessageData
BLc:__ZN13TextRendering4Font8TransferI24GenerateTypeTreeTransferEEvRT_
Czi:_Context_NotifyGlobalDynamicSinks_m2916447645
tNa:__ZN23ManagedAttributeManager15InitializeClassEv
gec:__Z27CullingGroup_CUSTOM_DisposeP12Il2CppObject
Hch:_Random_Range_m2884721203
psj:__ZN6il2cpp6icalls8mscorlib6SystemL23CheckWideningConversionEjjj
dSa:__ZN13ComputeShader15SetTextureParamEjRKN9ShaderLab16FastPropertyNameE9TextureID16TextureDimension
Pyh:_Shadow_set_effectDistance_m1951993364
P2g:_GUILayoutEntry_ApplyStyleSettings_m371609721
gmh:_Dictionary_2_ContainsKey_m416495915_gshared
kJe:_Collection_1_Remove_m1798559666_gshared
Bm:_glStencilMask
HCj:__ZN6il2cpp2os10ThreadImpl16GetCurrentThreadEv
juf:_TlsServerHelloDone__ctor_m2125611008
Xyd:_Hashtable__ctor_m2337481811
Mfh:_Enumerator_System_Collections_IEnumerator_get_Current_m2010873149_gshared
j_d:_Resources_t2975512894_marshal_pinvoke_cleanup
Kii:_AnimationEvent_get_messageOptions_m3547411650
pPf:__ZL88Type_t_CustomAttributesCacheGenerator_Type_MakeGenericType_m2765875033____typeArguments0P21CustomAttributesCache
lrg:__ZL74SpriteState_t1353336012_CustomAttributesCacheGenerator_m_HighlightedSpriteP21CustomAttributesCache
uwg:_RealProxy__ctor_m2505535530
bIj:_GC_push_conditional_with_exclusions
dNg:_UInt32_System_IConvertible_ToUInt16_m2798641702_AdjustorThunk
vyg:_BinaryFormatter_get_DefaultSurrogateSelector_m219714691
Yx:__ZN21AnimationPosePlayableD0Ev
_9f:__ZL76Time_t31991979_CustomAttributesCacheGenerator_Time_get_deltaTime_m2233168104P21CustomAttributesCache
G7:__ZN15dense_hashtableINSt3__24pairIKiiEEi21InstanceIDHashFunctorN14dense_hash_mapIiiS4_NS0_8equal_toIiEE13stl_allocatorIS3_L18MemLabelIdentifier65ELi16EEE9SelectKeyES7_SA_E9copy_fromERKSD_j
QLe:_Collection_1_System_Collections_IList_get_IsFixedSize_m3252091801_gshared
lbi:__Z57RuntimeInvoker_Boolean_t3825574718_LabelFixup_t4090909514PK10MethodInfoPvPS2_
uZd:_FloatTween_get_ignoreTimeScale_m4161298485_AdjustorThunk
z$g:_MonoProperty_GetOptionalCustomModifiers_m3827844355
Ejh:_ValueCollection_System_Collections_ICollection_get_IsSynchronized_m45572582_gshared
Tyi:__ZN21InterfaceFuncInvoker1IP8String_tS1_E6InvokeEjP11Il2CppClassP12Il2CppObjectS1_
zdf:_SimpleCollator_GetSortKey_m2188419329
dsg:__ZL56LayoutElement_t2808691390_CustomAttributesCacheGeneratorP21CustomAttributesCache
nvh:_Scrollbar_Set_m244028386
Qhc:__Z33Register_UnityEngine_Random_Rangev
ykc:__Z27Object_CUSTOM_DestroyObjectP12Il2CppObjectf
wmb:__ZN14RenderSettings27UpdateIndirectSpecularColorEv
hzb:__ZN14PlayerSettings8TransferI18StreamedBinaryReadILb0EEEEvRT_
cej:__ZN6il2cpp6icalls8mscorlib6System8MonoType16GetMethodsByNameEP20Il2CppReflectionTypeP12Il2CppStringibS5_
Fwi:_GCHandle__ctor_m2952050298
Ile:_LayoutGroup_SetProperty_TisAxis_t1431825778_m2174054513_gshared
Mqb:__ZN4PPtrI10GameObjectE8TransferI14SafeBinaryReadEEvRT_
Xsh:_Mask_IsRaycastLocationValid_m62488857
F$:__ZN17DirectorFrameTime10SampleTimeEfff
Rsa:__ZNSt3__27__sort3IRNS_4lessIN22BuiltinResourceManager8ResourceEEEPS3_EEjT0_S7_S7_T_
rNh:_DefaultComparer_Compare_m3472472212_gshared
g4e:_MonoIO_GetLength_m2812344043
NTc:_ps_hints_t2mask
elg:__ZL68UsedByNativeCodeAttribute_t3212052468_CustomAttributesCacheGeneratorP21CustomAttributesCache
jF:__Z110Register_UnityEngine_Experimental_Director_AnimatorControllerPlayable_INTERNAL_CALL_GetParametersArrayInternalv
Yub:__ZN10BlendShape8TransferI19StreamedBinaryWriteILb0EEEEvRT_
Z4i:__ZL25UnresolvedVirtualCall_215P12Il2CppObject40CustomAttributeTypedArgument_t1498197914PK10MethodInfo
Vui:_PlayableHandle_INTERNAL_CALL_IsValidInternal_m2792360706
EPi:_Transform_IsChildOf_m10844547
mG:__Z32TransferEnumWithNameForceIntSizeI14SafeBinaryReadN10SampleClip8LoadTypeEEvRT_RT0_PKc17TransferMetaFlags
A1e:__Z21il2cpp_codegen_sizeofP11Il2CppClass
nba:__Z19GetTimeSinceStartupv
lid:_SecurityFrame_get_Assembly_m2816566490
xCj:__ZN6il2cpp2os10ThreadImpl11SetPriorityENS0_14ThreadPriorityE
cZc:_TT_Load_Composite_Glyph
q5i:__ZL25UnresolvedVirtualCall_234P12Il2CppObjecti19Vector3_t2243707580PK10MethodInfo
JRi:_NetFxCoreExtensions_CreateDelegate_m2492743074
fRh:__Z51RuntimeInvoker_Boolean_t3825574718_Int64_t909078037PK10MethodInfoPvPS2_
Gpd:_Array_Sort_m2994254654
uCe:_List_1__ctor_m593058937_gshared
ybe:_Array_InternalArray__IEnumerable_GetEnumerator_TisColor32_t874517518_m2198639025_gshared
ZWa:__ZN29RenderNodeQueuePrepareContextC2Ev
XN:__ZN10SampleClipC2E18MemLabelIdentifier18ObjectCreationMode
DUb:__ZN9ShaderLab20SerializedSubProgram16TextureParameter8TransferI24GenerateTypeTreeTransferEEvRT_
RHg:_Thread_set_Name_m1343706609
nMj:__ZN6il2cpp2os11MutexHandle4WaitEj
Cac:__ZL34GetComponentsImplementationRecurseILb1ELi1ELi1EEbR10GameObjectbRK17CompareParametersRK39GetComponentsImplementation_ReturnValue
mMj:__ZN6il2cpp2os11MutexHandle4WaitEv
avd:_ArrayList_set_Capacity_m592558035
ela:__ZN6prcoreL17RemapGenericFloatI15TexFormatRGHalf18TexFormatARGBFloatEEvPKNS_9InnerInfoE
S9e:_MonoEnumInfo_t2335995564_marshal_pinvoke_cleanup
jda:__ZNK13RenderTexture13GetDataHeightEv
$Qa:__ZN13RenderManager23AddRemoveCamerasDelayedEv
yQa:_UNITY_png_write_pHYs
jma:__ZN23PreloadManagerOperation11GetPriorityEv
iOd:_Exception_get_InnerException_m3722561235
J9d:_Array_InternalArray__ICollection_Remove_TisILTokenInfo_t149559338_m1523907845_gshared
a4c:__ZN11UnityEngine9Analytics15AnalyticsConfigC2Ev
yoi:_ContactFilter2D_CheckConsistency_m1391185667
J7f:__ZL84RectOffset_t3387826427_CustomAttributesCacheGenerator_RectOffset_get_left_m439065308P21CustomAttributesCache
jze:_List_1_GetEnumerator_m4053501645_gshared
Cbj:__ZN6il2cpp2gc9AllocatorIP17Il2CppAsyncResultE10deallocateEPvj
_Zi:_Enumerator_CheckState_m1761755727_gshared
ozd:_Hashtable_Rehash_m2877670513
x3a:__ZN13RenderTexture8SetWidthEi
Q5d:_InputField_Insert_m1593238693
O$b:__ZNK28RectTransformPropertyBinding12SetPPtrValueERKN11UnityEngine9Animation10BoundCurveEi
wPb:__Z18Transfer_BlittableI18StreamedBinaryReadILb0EELb0EfEvRK29SerializationCommandArgumentsR31RuntimeSerializationCommandInfo
kvb:__ZN10MeshFilterD0Ev
eZc:_UNITY_FT_GlyphLoader_CheckSubGlyphs
sZh:__Z132RuntimeInvoker_Int32_t2071877448_Il2CppObject_Int32_t2071877448_Int32_t2071877448_Il2CppObject_Int32_t2071877448_Int32U26_t455636984PK10MethodInfoPvPS2_
Ebj:__ZN6il2cpp2vm21ThreadPoolCompartment20SpawnNewWorkerThreadEv
Hee:_Array_InternalArray__ICollection_Add_TisCustomAttributeTypedArgument_t1498197914_m3260005285_gshared
fZa:__Z25SetupObjectBakedOcclusionbRK15SharedLightDataRK26SharedLightmapSettingsDataRK15LightmapIndicesR17ShaderPassContext
dAd:_SyncHashtable_GetObjectData_m3774367030
yCi:__ZN21InterfaceFuncInvoker4IP17Match_t3164245899P17Regex_t1803876613P8String_tiiE6InvokeEjP11Il2CppClassP12Il2CppObjectS3_S5_ii
QZe:_Guid_GetHashCode_m1401300871
NYi:_ListPool_1_U3Cs_ListPoolU3Em__0_m1243609651_gshared
xpc:__Z42Register_UnityEngine_GUIStyle_set_fontSizev
x$d:_FontData__ctor_m3822008992
Kji:_LogCallback__ctor_m898185969
d1i:__ZL23UnresolvedVirtualCall_5P12Il2CppObjectsPK10MethodInfo
bB:__ZN4PPtrI6AvatarE8TransferI19StreamedBinaryWriteILb0EEEEvRT_
ks:__ZN8Animator9BuildJobsERK13dynamic_arrayIP14PlayableOutputLj4EERS0_INS_11AnimatorJobELj4EEPS7_bb
Skh:_Dictionary_2_System_Collections_IDictionary_set_Item_m115188189_gshared
J$:__ZN9ShaderLab16FastPropertyName4InitEPKc
szc:__ZN11b2GearJointD0Ev
V_b:__Z13RegisterClassIN2UI13RectTransformEEvv
Xcf:_MSCompatUnicodeTable_ToWidthCompat_m2299599532
L_i:__ZN13Il2CppHashMapIPK22Il2CppGenericParameterP11Il2CppClassN6il2cpp5utils11PointerHashIS1_EENSt3__28equal_toIS2_EENS9_9allocatorINS9_4pairIK10KeyWrapperIS2_ES4_EEEEEC2EjRKS8_RKSB_
Jbf:_NumberFormatter_get_IsFloatingSource_m2830957202
zsb:__ZN10VertexData8TransferI17RemapPPtrTransferEEvRT_
Pca:__ZN13RenderTexture9SetMipMapEb
a6i:__ZN15dense_hashtableINSt3__24pairIK10KeyWrapperIPK11Il2CppClassEPKcEES6_N6il2cpp5utils11PointerHashIS3_EEN14dense_hash_mapIS6_S9_SE_NS6_14EqualsComparerINS0_8equal_toIS5_EEEENS0_9allocatorISA_EEE9SelectKeyESJ_SL_E13set_empty_keyERKSA_
Wwh:_ScrollRect_set_verticalScrollbarSpacing_m2356851539
RZ:__Z18GetDirectorManagerv
qcf:_OperatingSystem_GetObjectData_m2276196875
aib:__ZNK10TagManager26GetTypeInfoVirtualInternalEv
ufh:_ResourceRequest_t2560315377_marshal_pinvoke_back
QBb:__ZN21ArchiveStorageCreator13AppendRawNodeERKN4core12basic_stringIcNS0_20StringStorageDefaultIcEEEEN20ArchiveStorageHeader9NodeFlagsEyy
Ejc:__Z38Transform_CUSTOM_INTERNAL_get_rotationP12Il2CppObjectP11Quaternionf
lij:__ZNSt3__26vectorIN6il2cpp2vm17TypeNameParseInfoENS_9allocatorIS3_EEE8allocateEj
iui:_AnimatorControllerPlayable_CrossFadeInFixedTime_m1082259778
zUf:__ZL66CriticalFinalizerObject_t1920899984_CustomAttributesCacheGeneratorP21CustomAttributesCache
A4i:__ZL25UnresolvedVirtualCall_190P12Il2CppObject20TimeSpan_t3430258949S1_PK10MethodInfo
flj:__ZNK15dense_hashtableINSt3__24pairIK10KeyWrapperINS1_IPK10MethodInfoP11Il2CppClassEEEjEES9_17ReflectionMapHashIS8_EN14dense_hash_mapIS9_jSD_NS9_14EqualsComparerINS0_8equal_toIS8_EEEENS0_9allocatorISB_EEE9SelectKeyESI_SK_E5beginEv
GCa:__ZN7ApiGLES19UploadBufferSubDataEjN2gl12BufferTargetEllPKv
Hjd:_String_System_IConvertible_ToInt32_m1927223638
dae:_Array_InternalArray__ICollection_Remove_TisContentType_t1028629049_m3085152315_gshared
P4h:__Z62RuntimeInvoker_AnimatorStateInfo_t2577870592_Int32_t2071877448PK10MethodInfoPvPS2_
fmi:_Canvas_set_sortingOrder_m2922819993
uXi:__ZL18div128DecadeFactorPyS_i
Mfi:__Z72RuntimeInvoker_KeyValuePair_2_t3749587448_Int32_t2071877448_Il2CppObjectPK10MethodInfoPvPS2_
naj:__ZNSt3__26__treeINS_12__value_typeIP11Il2CppClassS3_EENS_19__map_value_compareIS3_S4_NS_4lessIS3_EELb1EEENS_9allocatorIS4_EEE25__emplace_unique_key_argsIS3_JNS_4pairIS3_S3_EEEEENSD_INS_15__tree_iteratorIS4_PNS_11__tree_nodeIS4_PvEEiEEbEERKT_DpOT0_
Ild:_ASCIIEncoding__ctor_m4127831672
odg:__ZL117AnimatorControllerPlayable_t4078305555_CustomAttributesCacheGenerator_AnimatorControllerPlayable_CrossFade_m437921439P21CustomAttributesCache
GGb:__Z19TransferField_ArrayI14SafeBinaryRead27Converter_SimpleNativeClassI8GUIStyleEEvRK23StaticTransferFieldInfoR31RuntimeSerializationCommandInfoRT0_
eGg:_UTF8Encoding__ctor_m3336862259
rvj:__ZN15dense_hashtableINSt3__24pairIK10KeyWrapperIP14Il2CppIUnknownEjEES5_N6il2cpp5utils11PointerHashIS3_EEN14dense_hash_mapIS5_jSB_NS5_14EqualsComparerINS0_8equal_toIS4_EEEENS0_9allocatorIS7_EEE9SelectKeyESG_SI_ED2Ev
VKj:__ZN6il2cpp5utils10MemoryPoolC2Ej
i7h:__Z54RuntimeInvoker_Boolean_t3825574718_HitInfo_t1761367055PK10MethodInfoPvPS2_
tHf:_X509Chain_GetAuthorityKeyIdentifier_m2607407678
RKj:__ZN6il2cpp5utils10MemoryPoolC2Ev
Ylb:__ZN14RenderSettings5ResetEv
wtj:__ZNSt3__212basic_stringIDsNS_11char_traitsIDsEENS_9allocatorIDsEEE6appendEPKDsj
OUd:_RaycastResult_set_gameObject_m1138581891_AdjustorThunk
dli:_Bounds_get_extents_m4077324178_AdjustorThunk
hVh:__Z117RuntimeInvoker_Int32_t2071877448_Il2CppObject_Il2CppObject_Int32_t2071877448_Int32_t2071877448_BooleanU26_t3168250738PK10MethodInfoPvPS2_
IKh:_InternalEnumerator_1_get_Current_m3724267862_AdjustorThunk
_ke:_Dictionary_2_Do_ICollectionCopyTo_TisKeyValuePair_2_t3716250094_m1740410536_gshared
I1g:_GUI_CallWindowDelegate_m2039577415
rCj:__ZN6il2cpp2os10ThreadImplD2Ev
wjf:_RSAManaged_Dispose_m3018788098
Mzc:__ZN12b2MouseJoint23InitVelocityConstraintsERK12b2SolverData
xqc:__ZN8Gradient8TransferI9JSONWriteEEvRT_
kHg:_Monitor_Monitor_pulse_m2135582245
Tuf:_Context_get_ReceivedConnectionEnd_m3369356276
IBf:_NameObjectCollectionBase_get_Count_m2353593692
Kbb:__ZNK12TLSAllocatorI14StackAllocatorE22GetAllocatedMemorySizeEv
qTf:__ZL54AssemblyName_t894705941_CustomAttributesCacheGeneratorP21CustomAttributesCache
eGd:_Convert_ToUInt32_m3394039268
G5a:__ZN17RemapPPtrTransfer12PushMetaFlagE17TransferMetaFlags
hN:__ZNK7WeakPtrI20SoundChannelInstanceE10SharedData9GetRawPtrEv
BLa:__ZN12HandlerChain4NameEv
Ixb:__ZNSt3__26vectorI9InputAxisNS_9allocatorIS1_EEE10deallocateEv
K8i:__ZNK15dense_hashtableINSt3__24pairIK10KeyWrapperI13dynamic_arrayIPK10Il2CppTypeLj4EEEPFvvEEES8_N6il2cpp8metadata19Il2CppSignatureHashEN14dense_hash_mapIS8_SB_SF_NS8_14EqualsComparerINSE_22Il2CppSignatureCompareEEENS0_9allocatorISC_EEE9SelectKeyESJ_SL_E10test_emptyERK30dense_hashtable_const_iteratorISC_S8_SF_SN_SJ_SL_E
O_e:_Int16_Equals_m3925135434_AdjustorThunk
w2c:__Z44Register_UnityEngine_CanvasRenderer_get_cullv
Fih:_Enumerator_Dispose_m2532362830_AdjustorThunk
$Qf:__ZL60IHashCodeProvider_t1980576455_CustomAttributesCacheGeneratorP21CustomAttributesCache
p$b:__ZN13ProduceHelperI13MonoBehaviourLb0EE7ProduceE18MemLabelIdentifier18ObjectCreationMode
Epe:_Enumerator_VerifyState_m1677639504_AdjustorThunk
O9a:__Z29StdTemplateConversionFunctionIbbEbPvR14SafeBinaryRead
VEj:__ZNK15dense_hashtableINSt3__24pairIK10KeyWrapperIPK19Il2CppGenericMethodEP10MethodInfoEES6_N6il2cpp8metadata23Il2CppGenericMethodHashEN14dense_hash_mapIS6_S9_SD_NS6_14EqualsComparerINSC_26Il2CppGenericMethodCompareEEENS0_9allocatorISA_EEE9SelectKeyESH_SJ_E12test_deletedEj
Hsf:_CipherSuiteCollection_get_Item_m280627160
mFb:__Z44InitializeTransferFunctionScriptingTraitsForI17RemapPPtrTransferEvR31TransferFunctionScriptingTraits
Ovg:_SerializationInfoEnumerator_MoveNext_m1876990879
wJg:_TimeSpan_Duration_m4205681645
d7a:__ZN14UnityWebStream24UpdateAllUnityWebStreamsEv
dGe:_Collection_1_System_Collections_IList_get_IsReadOnly_m2329986891_gshared
DPf:__ZL60ObsoleteAttribute_t3878847927_CustomAttributesCacheGeneratorP21CustomAttributesCache
tHi:_Uri_ParseAsWindowsAbsoluteFilePath_m1108586962
euf:_Context_get_HandshakeState_m3443153737
dge:_Array_InternalArray__ICollection_CopyTo_TisRaycastHit2D_t4063908774_m3837098618_gshared
rna:__ZN18LoadSceneOperation21MustCompleteNextFrameEv
NK:__ZNK12AudioManager16GetAudioListenerEv
a_g:_MonoField_get_FieldType_m598011426
cGe:_Collection_1_System_Collections_IList_get_IsFixedSize_m1624702704_gshared
kSd:_EventTrigger_OnScroll_m626934407
F5f:__ZL48Camera_t189460977_CustomAttributesCacheGeneratorP21CustomAttributesCache
S2a:__ZNSt3__26vectorI11CameraStackNS_9allocatorIS1_EEE8__appendEj
Wsj:__ZNSt3__212basic_stringIcNS_11char_traitsIcEENS_9allocatorIcEEE6__initINS_11__wrap_iterIPcEEEENS_9enable_ifIXsr21__is_forward_iteratorIT_EE5valueEvE4typeESB_SB_
OBc:__ZNK11Rigidbody2D20GetAttachedCollidersER13dynamic_arrayIP10Collider2DLj4EE
Z4d:_InputField_OnDisable_m1865339380
aNg:_UInt32_System_IConvertible_ToType_m747769316
Bx:__ZN7mecanim9animation12GetHumanPoseERKNS0_18ClipMuscleConstantEPKNS0_10ValueDeltaERNS_5human9HumanPoseE
Wlj:__ZN6il2cpp2vm10Reflection17GetPropertyObjectEP11Il2CppClassPK12PropertyInfo
M3c:__ZN11UnityEngine9Analytics15UserCustomEvent12CustomParams6InsertEPKcRNS1_11CustomValueE
DZj:_glDeleteVertexArrays__wrapper
KMb:__Z29Transfer_Blittable_ArrayFieldI19StreamedBinaryWriteILb0EEjEvRT_R9ArrayInfoRK23StaticTransferFieldInfo
DX:__Z13GetFileSystemv
g6:__ZNK5Unity4Type21FindAllDerivedClassesER13dynamic_arrayIPKS0_Lj4EENS0_17TypeFilterOptionsE
$6:__ZN13RuntimeStaticI15GUIEventManagerLb0EE16StaticInitializeEPv
Hwb:__ZN14SafeBinaryRead8TransferIfEEvRT_PKc17TransferMetaFlags
qQb:__ZL12InvokeMethodI18StreamedBinaryReadILb0EEEvRK29SerializationCommandArgumentsR31RuntimeSerializationCommandInfo
KXe:_DaylightTime_get_Delta_m2316831491
eGc:__ZNSt3__27__sort5IR24RayHitsByDepthComparitorP12RaycastHit2DEEjT0_S5_S5_S5_S5_T_
e9d:_Array_InternalArray__ICollection_Contains_TisUILineInfo_t3621277874_m1175659630_gshared
MIg:_WaitHandle_WaitOne_m370363697
xmg:__ZL114PointerEventData_t1599784723_CustomAttributesCacheGenerator_PointerEventData_set_pointerCurrentRaycast_m2431897513P21CustomAttributesCache
zJf:_FactoryCache_Lookup_m1681894361
mId:_DateTime_Subtract_m698282245_AdjustorThunk
owb:__ZThn32_N14SpriteRenderer15AddAsRenderNodeER15RenderNodeQueueRK20DeprecatedSourceData
NNh:_DefaultComparer__ctor_m2470932885_gshared
PRf:__ZL55BinaryReader_t2491843768_CustomAttributesCacheGeneratorP21CustomAttributesCache
OMe:_Collection_1_InsertItem_m724820684_gshared
e1f:__ZL79Convert_t2607082565_CustomAttributesCacheGenerator_Convert_ToUInt64_m1896191125P21CustomAttributesCache
qSa:__ZN19ShaderPropertySheet9SetMatrixEN9ShaderLab16FastPropertyNameERK10Matrix4x4fNS_8SetFlagsE
_bd:_RIPEMD160Managed_Initialize_m3365407578
Aob:__Z29GetTextureSizeAllowedMultiple13TextureFormat
fDf:_IPAddress_HostToNetworkOrder_m1092199707
Iae:_SetPropertyUtility_SetStruct_TisSpriteState_t1353336012_m2898060836_gshared
pgd:_SecurityAttribute__ctor_m3425755778
V4b:__ZN21IntermediateRenderers3AddEP20IntermediateRenderer
Efj:_il2cpp_array_element_size
m5h:__Z80RuntimeInvoker_Int32_t2071877448_PlayableHandleU26_t3483893774_Int32_t2071877448PK10MethodInfoPvPS2_
zdg:__ZL139AnimatorControllerPlayable_t4078305555_CustomAttributesCacheGenerator_AnimatorControllerPlayable_INTERNAL_CALL_CrossFadeInternal_m698817831P21CustomAttributesCache
bg:_glCheckFramebufferStatus
Ieg:__ZL55TextGenerator_t647235000_CustomAttributesCacheGeneratorP21CustomAttributesCache
Wbe:_Array_compare_TisInt32_t2071877448_m840310202_gshared
DYh:__Z57RuntimeInvoker_Il2CppObject_Il2CppObject_Byte_t3683104436PK10MethodInfoPvPS2_
QMh:_InternalEnumerator_1_System_Collections_IEnumerator_get_Current_m442726479_AdjustorThunk
dDg:_DESTransform_ECB_m2629024873
qLh:_InternalEnumerator_1_System_Collections_IEnumerator_get_Current_m790514740_AdjustorThunk
Xyc:__ZNK15b2DistanceJoint17GetReactionTorqueEf
Hld:__Z37il2cpp_codegen_get_executing_assemblyPK10MethodInfo
ZXb:__ZN9Transform23VirtualRedirectTransferER17RemapPPtrTransfer
XPf:__ZL57TypedReference_t1025199857_CustomAttributesCacheGeneratorP21CustomAttributesCache
ade:_Array_InternalArray__IndexOf_TisByte_t3683104436_m3605266236_gshared
h7g:_GUIStyle_set_richText_m1853532836
xMe:_Collection_1_System_Collections_IList_Insert_m435904526_gshared
_uh:_RaycastAllCallback_Invoke_m981876639
TEg:_UnicodeEncoding__ctor_m72484327
_Nf:__ZL74Il2CppArray_CustomAttributesCacheGenerator_Array_GetUpperBound_m1352329707P21CustomAttributesCache
uvj:__ZN14dense_hash_mapI10KeyWrapperIP14Il2CppIUnknownEjN6il2cpp5utils11PointerHashIS1_EENS3_14EqualsComparerINSt3__28equal_toIS2_EEEENS9_9allocatorINS9_4pairIKS3_jEEEEE15set_deleted_keyERSF_
L6:__ZN22BuiltinResourceManager16StaticInitializeEPv
NWe:_NumberFormatter_ScaleOrder_m1915154678
Drj:__ZN6il2cpp2gc9AllocatorIP12Il2CppThreadE10deallocateEPvj
tyc:__ZN24b2ChainAndCapsuleContact8EvaluateEP10b2ManifoldRK11b2TransformS4_
MWi:_UnityEvent_1_GetDelegate_m2720691419_gshared
Cuf:_ClientSessionInfo_SetContext_m2649357891
F$e:_Int32_System_IConvertible_ToInt64_m3790029067_AdjustorThunk
MSh:__Z69RuntimeInvoker_Boolean_t3825574718_Il2CppObject_DoubleU26_t1208767207PK10MethodInfoPvPS2_
ORd:_RaycasterManager_GetRaycasters_m1154876874
Pzf:_SslStreamBase_InternalReadCallback_m2524917586
J5:__ZN8Remapper6RemoveEi
Due:_List_1_CheckCollection_m2608305187_gshared
SKa:__ZN10MemoryFile4ReadEyPvPy
nLg:_Type_get_ContainsGenericParameters_m505913180
dOc:__ZL36CleanupTextRenderingScriptingClassesv
w9f:__ZL82Material_t193706927_CustomAttributesCacheGenerator_Material_SetIntImpl_m4157631275P21CustomAttributesCache
t3a:__ZN15ReflectionProbe17UseRendererResultEP13ProbeRenderer
mpd:_Array_BinarySearch_m3270245097
Ggc:__Z34Mesh_CUSTOM_SetArrayForChannelImplP12Il2CppObject30InternalScriptingShaderChannel34InternalScriptingVertexChannelTypeiP11Il2CppArrayi
u3e:_MonoIO_DeleteFile_m3273821223
lKh:_InternalEnumerator_1_Dispose_m3642485841_AdjustorThunk
Hef:_BigInteger_GenerateRandom_m2507308768
cHd:_DateTime_System_IConvertible_ToDouble_m1431748426_AdjustorThunk
Ndi:__Z76RuntimeInvoker_Void_t1841601450_Int32_t2071877448_ContactPoint2D_t3659330976PK10MethodInfoPvPS2_
S8d:_Array_InternalArray__ICollection_Contains_TisUInt16_t986882611_m510319131_gshared
ehe:_Array_InternalArray__Insert_TisRaycastHit2D_t4063908774_m3174907903_gshared
CKd:_Decimal_ToString_m541380585
mKf:_RepeatContext_get_Previous_m808449037
ZZh:__Z60RuntimeInvoker_DateTime_t693205669_Il2CppObject_Il2CppObjectPK10MethodInfoPvPS2_
wYg:_MemberFilter__ctor_m1775909550
Wfj:_il2cpp_class_is_valuetype
V8c:__ZZN18UnityConnectClient23RegisterGlobalCallbacksEvEN41EarlyUpdateUnityConnectClientUpdatestruct7ForwardEv
NB:__ZN11UnityEngine9Animation28GenericAnimationBindingCache25RegisterIAnimationBindingEPKN5Unity4TypeEiP17IAnimationBinding
ZE:__Z106Register_UnityEngine_Experimental_Director_AnimatorControllerPlayable_INTERNAL_CALL_GetLayerWeightInternalv
A2c:__Z70RectTransformUtility_CUSTOM_INTERNAL_CALL_RectangleContainsScreenPointP12Il2CppObjectRK13Vector2fIcallS0_
GNd:_Enum_ToObject_m2601523252
$Tj:dynCall_viiffiii
ozf:_InternalAsyncResult_get_FromWrite_m2893408424
B$i:__ZN6il2cpp2vm5Class15GetElementClassEP11Il2CppClass
x7d:_U3CDelayedSetDirtyU3Ec__Iterator0_System_Collections_IEnumerator_get_Current_m851854792
FVa:__Z20RenderSceneDepthPassRK19SharedRendererSceneRK17ShaderReplaceDatabR17ShaderPassContext
u3c:__ZN14UnityAnalytics25UnregisterGlobalCallbacksEv
w1a:__Z40ProcessCameraIndexListIsNodeVisibleInOutRK22SceneCullingParametersPK9SceneNodePK4AABBR9IndexList
Ykb:__ZN16GraphicsSettings8TransferI17RemapPPtrTransferEEvRT_
vof:_BigInteger_op_LessThanOrEqual_m3528380540
B6e:_StreamReader__ctor_m2654332332
_$c:__ZN2UI6Canvas13UpdateBatchesEb
dFc:__ZN17PolygonCollider2D15TransformPointsERK13dynamic_arrayI8Vector2fLj4EERK10Matrix4x4fRKS1_fP6b2Vec2
jqa:__ZN7Texture19SupportsAsyncUploadI19StreamedBinaryWriteILb0EEEEbRT_
vaf:_MonoType_GetFields_internal_m2022019979
Jse:_List_1_CheckCollection_m3968030679_gshared
nTi:_Predicate_1_BeginInvoke_m3556950370_gshared
xEg:_StringBuilder_ToString_m617673931
nua:__ZNK13GfxDeviceGLES12GetWireframeEv
mRe:_ReadOnlyCollection_1_System_Collections_ICollection_get_IsSynchronized_m3127987432_gshared
C6c:__ZN11UnityEngine7Connect13ConfigHandler12GetListenersERKN4core12basic_stringIcNS2_20StringStorageDefaultIcEEEE
Fva:__ZN9GfxDevice18AllocRenderSurfaceEb
wZb:__ZN10TagManager32GetSortingLayerUniqueIDFromValueEi
uFi:_AnchorInfo_get_IsComplete_m1247624133
R_d:_Dropdown_Show_m324374589
A_:__ZL27CleanupCoreScriptingClassesv
y6f:__ZL85Component_t3819376471_CustomAttributesCacheGenerator_Component_SendMessage_m913946877P21CustomAttributesCache
XNe:_ReadOnlyCollection_1_System_Collections_ICollection_get_SyncRoot_m769863805_gshared
fUd:_RaycastResult_get_isValid_m2482925612
vgc:__Z26AnimationCurve_CUSTOM_InitP12Il2CppObjectP11Il2CppArray
H$j:_glUniform1uiv__wrapper
ayc:__ZNK14b2PolygonShape5CloneEP16b2BlockAllocator
tnj:__ZN6il2cpp2vm10Reflection7IsEventEP12Il2CppObject
Z9i:__ZNSt3__26__treeINS_12__value_typeIPFvvEPK10MethodInfoEENS_19__map_value_compareIS3_S7_NS_4lessIS3_EELb1EEENS_9allocatorIS7_EEE16__insert_node_atEPNS_16__tree_node_baseIPvEERSI_SI_
q2:__ZN17PersistentManager26GetStreamNameSpaceInternalEi
uG:__ZN4FMOD6System11createSoundEPKcjP22FMOD_CREATESOUNDEXINFOPPNS_5SoundE
Zmi:_CanvasRenderer_get_cull_m3577089379
jJe:__ZN23InterfaceActionInvoker2Ii22UICharInfo_t3056636800E6InvokeEjP11Il2CppClassP12Il2CppObjectiS0_
bo:FUNCTION_TABLE_iiifiiii
g6h:__Z66RuntimeInvoker_Void_t1841601450_Int32_t2071877448_Rect_t3681755626PK10MethodInfoPvPS2_
ubh:_Object_Destroy_m4145850038
S4h:__Z109RuntimeInvoker_Void_t1841601450_PlayableHandleU26_t3483893774_Int32_t2071877448_SByte_t454417549_Il2CppObjectPK10MethodInfoPvPS2_
Mij:__ZN6il2cpp2vm4Type14IsSystemDBNullEPK10Il2CppType
F0:__ZN9ShaderLab19CommonPropertyNames13StaticCleanupEPv
y3:__Z31scripting_method_get_returntype18ScriptingMethodPtr
cxh:_ScrollRect_UpdateBounds_m3266596336
Jpb:__ZN15SerializeTraitsI12LightmapDataE8TransferI24GenerateTypeTreeTransferEEvRS0_RT_
eQa:_unity_z_zcfree
yYd:_ColorBlock_GetHashCode_m649325222
fYj:_glStencilOpSeparate__wrapper
a8b:__ZN4Mesh5SetUvEiPKfjj
Una:__ZN7Texture13SetAnisoLimitENS_20AnisotropicFilteringE
joa:__ZN28LightProbeProxyVolumeManager25UpdateSHCoeffsTextureDataER21LightProbeProxyVolume
DJa:__Z18CreateDecompressor15CompressionType18MemLabelIdentifier
QO:__ZN11AudioModule16SetListenerPauseEb
Vh:_emscripten_glCompressedTexSubImage2D
WDa:__ZN13GfxDeviceGLES22MemoryBarrierImmediateEyN2gl17MemoryBarrierTypeE
dGd:_Convert_ToUInt32_m1336475941
eeg:__ZL132AnimatorControllerPlayable_t4078305555_CustomAttributesCacheGenerator_AnimatorControllerPlayable_INTERNAL_CALL_SetBoolID_m2987425503P21CustomAttributesCache
huj:__ZN6il2cpp6icalls8mscorlib6System4Type18internal_from_nameEP12Il2CppStringbb
tla:__ZN6prcoreL26RemapGenericFloatToIntegerI18TexFormatARGBFloat17TexFormatARGB8888EEvPKNS_9InnerInfoE
b_b:__ZN6Object27GetOffsetOfInstanceIdMemberEv
lXc:_cff_ps_has_glyph_names
ZUi:_InvokableCall_1__ctor_m2837611051_gshared
oph:_EqualityComparer_1__ctor_m1389939323_gshared
Mhh:_Transform_1_EndInvoke_m1025924012_gshared
YNf:__ZL81Il2CppArray_CustomAttributesCacheGenerator_Array_GetValue_m3550694941____indices0P21CustomAttributesCache
iSe:_ReadOnlyCollection_1_System_Collections_Generic_ICollectionU3CTU3E_get_IsReadOnly_m2873538493_gshared
gDi:_PatternCompiler_EmitPosition_m3013268572
XIf:_X509SubjectKeyIdentifierExtension__ctor_m1109455121
QYb:__Z13tessTesselateP14TESStesselatoriiiiPKf
R1i:__ZL24UnresolvedVirtualCall_45P12Il2CppObject19DateTime_t693205669PK10MethodInfo
b1d:_Graphic_CreateColorFromAlpha_m2614574534
lFg:_UnicodeEncoding_GetHashCode_m2443440683
Jpc:__Z44Register_UnityEngine_GUIStyle_SetDefaultFontv
yVg:_GenericTypeParameterBuilder_GetPropertyImpl_m3566422383
_6b:__ZN19SpriteMeshGenerator9MakeShapeEP11ColorRGBA32iifhbjfi
eNb:__Z18Transfer_BlittableI18StreamedBinaryReadILb1EELb1EiEvRK29SerializationCommandArgumentsR31RuntimeSerializationCommandInfo
Xs:__ZN9BlobWrite8TransferI22OffsetPtrArrayTransferIKN4math7_float3EEEEvRT_PKc17TransferMetaFlags
kfd:_TripleDES_IsWeakKey_m483013953
kGf:_X509Certificate2_get_PrivateKey_m2662162956
Lih:_Enumerator__ctor_m3819430617_AdjustorThunk
imj:__ZN15dense_hashtableINSt3__24pairIK10KeyWrapperINS1_IPK12PropertyInfoP11Il2CppClassEEEjEES9_17ReflectionMapHashIS8_EN14dense_hash_mapIS9_jSD_NS9_14EqualsComparerINS0_8equal_toIS8_EEEENS0_9allocatorISB_EEE9SelectKeyESI_SK_E12maybe_shrinkEv
wNb:__Z18Transfer_BlittableI18StreamedBinaryReadILb1EELb1EsEvRK29SerializationCommandArgumentsR31RuntimeSerializationCommandInfo
oz:__ZN26AnimatorControllerPlayable17IsMultithreadableEv
Pid:_Single_System_IConvertible_ToSByte_m3757385387
gbi:__Z51RuntimeInvoker_Boolean_t3825574718_Slot_t2022531261PK10MethodInfoPvPS2_
u4e:_StreamAsyncResult_SetComplete_m2141125667
Zna:__ZL21SetAnisoLimitEnumImplN7Texture20AnisotropicFilteringEb
h5c:__ZN22BaseUnityConnectClient17OnEnterStateReadyEv
AY:__GLOBAL__sub_I_platformdependent_webgl_source_lump_cpp
DW:__Z21GetManagerFromContexti
Lve:_List_1_get_Count_m634584594_gshared
Gkb:__ZN14GrowableBufferD2Ev
y8g:_Keyframe_get_tangentMode_m1869200796_AdjustorThunk
Qfc:__Z29Input_CUSTOM_GetMouseButtonUpi
Cej:__ZN6il2cpp6icalls8mscorlib6System8MonoType16InternalGetEventEP20Il2CppReflectionTypeP12Il2CppStringi
eNg:_UInt32_System_IConvertible_ToUInt32_m1257480358_AdjustorThunk
aSf:__ZL50FileMode_t236403845_CustomAttributesCacheGeneratorP21CustomAttributesCache
WQc:_UNITY_tt_face_load_maxp
$fc:__Z46Input_CUSTOM_INTERNAL_set_compositionCursorPosRK13Vector2fIcall
qu:__ZN7mecanim5human12FullBodyMaskEv
Y_f:__ZL98Activator_t1850728717_CustomAttributesCacheGenerator_Activator_CreateInstance_m1465989661____args1P21CustomAttributesCache
g4i:__ZL25UnresolvedVirtualCall_170P12Il2CppObject19Vector3_t2243707580PK10MethodInfo
e0:__ZN19ShaderPropertySheet11ComputeHashEv
Kgi:__Z111RuntimeInvoker_Il2CppObject_AnimatorClipInfo_t3905751349_AnimatorClipInfo_t3905751349_Il2CppObject_Il2CppObjectPK10MethodInfoPvPS2_
Dyc:__ZN12b2EPCollider24ComputePolygonSeparationEv
jOb:__ZN4PPtrI6ObjectE8TransferI18StreamedBinaryReadILb1EEEEvRT_
UYd:_ColorTween_get_tweenMode_m2919867230_AdjustorThunk
Wge:_Array_InternalArray__Insert_TisUInt16_t986882611_m2263078_gshared
CXd:_CanvasScaler_HandleScaleWithScreenSize_m80056230
PR:__ZN11UnityEngine15CloudWebService16SessionContainer16GetJsonDataBlockEjRKN4core12basic_stringIcNS2_20StringStorageDefaultIcEEEERS6_PjSA_
r7f:__ZL89GameObject_t1756533147_CustomAttributesCacheGenerator_GameObject_AddComponent_m3757565614P21CustomAttributesCache
Ldj:__ZNK6il2cpp5utils10functional6FilterINSt3__212basic_stringIcNS3_11char_traitsIcEENS3_9allocatorIcEEEENS0_11StringUtils21CaseSensitiveComparerEEclIPKcEEbRKT_
LVg:_GenericTypeParameterBuilder_get_AssemblyQualifiedName_m902593295
OFg:_UTF7Encoding_InternalGetBytes_m2772055844
Tqh:_EqualityComparer_1__ctor_m831468288_gshared
hdf:_SimpleCollator__cctor_m2693747668
vKd:_Decimal_CompareTo_m2454501434_AdjustorThunk
F2:__ZN14SafeBinaryReadD2Ev
NLg:_UInt16_System_IConvertible_ToChar_m4055364664
O_b:__Z13RegisterClassI7TextureEvv
yGi:_ExpressionCollection_OnValidate_m1703610065
DOb:__ZN8Gradient8TransferI18StreamedBinaryReadILb1EEEEvRT_
iih:_Enumerator_Dispose_m2369319718_AdjustorThunk
A0f:__ZL79Convert_t2607082565_CustomAttributesCacheGenerator_Convert_ToUInt16_m3991499696P21CustomAttributesCache
tpc:__Z45Register_UnityEngine_GUIStyle_SetFontInternalv
JEc:__ZN19CollisionListener2DD0Ev
Kdj:__ZN6il2cpp6icalls8mscorlib6SystemL16CheckMemberMatchI9FieldInfoNS_5utils10functional6FilterINSt3__212basic_stringIcNS8_11char_traitsIcEENS8_9allocatorIcEEEENS5_11StringUtils21CaseSensitiveComparerEEEEEbPKT_PK11Il2CppClassSN_iRKT0_
wDe:_Enumerator_Dispose_m1520016780_AdjustorThunk
kuj:__ZN6il2cpp6icalls8mscorlib6System4Type15MakeGenericTypeEP20Il2CppReflectionTypeP11Il2CppArray
oj:_SDL_PauseAudio
$fj:_il2cpp_class_from_type
Upd:_Array_Sort_m2323017822
QHj:_GC_clear_mark_bit
Gvh:_Scrollbar_UpdateDrag_m3839695926
H3g:_GUILayoutUtility__cctor_m2957755459
Iki:_AudioConfigurationChangeHandler_EndInvoke_m2237100787
E0:__ZN9ShaderLab19CommonPropertyNames16StaticInitializeEPv
f9e:_MissingMemberException__ctor_m3710131950
Dma:__ZN13MemoryManager31DisallowAllocationsOnThisThreadEv
DA:__ZN7mecanim9animation18CreateAvatarOutputEPKNS0_14AvatarConstantEbbRNS_6memory9AllocatorE
Tpc:__Z45GUIUtility_CUSTOM_Internal_GetKeyboardControlv
FCg:_CspParameters__ctor_m2546931874
dM:__ZN11AudioSource23VirtualRedirectTransferER24GenerateTypeTreeTransfer
g4c:__ZN14UnityAnalytics15SendCustomEventERN11UnityEngine9Analytics15UserCustomEventE
atb:__ZN14Texture2DArray23VirtualRedirectTransferER14SafeBinaryRead
yYa:__ZNK6Camera21CalculateCanDoShadowsEv
Rmh:_Dictionary_2_make_pair_m2631942124_gshared
j1d:_Graphic__cctor_m1643894470
dCj:__ZN6il2cpp2os6Thread12SetStackSizeEj
GGf:_X509ChainElementEnumerator_get_Current_m2232618221
nBb:__ZNK20ArchiveStorageReader15HasStreamBlocksEv
v8b:__ZNK8Renderer16IsVisibleInSceneEv
G4h:__Z44RuntimeInvoker_AnimatorStateInfo_t2577870592PK10MethodInfoPvPS2_
Qki:_Behaviour_get_isActiveAndEnabled_m3838334305
Ywh:_ScrollRect_set_onValueChanged_m3957749575
bY:__Z13VFormatBufferPciPKcz
vPb:__Z18Transfer_BlittableI18StreamedBinaryReadILb0EELb1EhEvRK29SerializationCommandArgumentsR31RuntimeSerializationCommandInfo
SSi:_U3CCreateWhereIteratorU3Ec__Iterator1D_1_Dispose_m1879652802_gshared
bVf:__ZL90SafeHandle_t2733794115_CustomAttributesCacheGenerator_SafeHandle_get_IsInvalid_m3910183075P21CustomAttributesCache
BZb:__ZL24GenerateTilingJobCombineP22GenerateTilingAreaInfo
b3d:_Image_GenerateSimpleSprite_m4275440988
ypi:_Display_get_systemHeight_m3377672024
CMg:_UInt16_ToString_m3280699191
FWi:_UnityEvent_1_GetDelegate_m2566156550_gshared
xla:__ZN6prcoreL27StretchGenericFloatBilinearI15TexFormatRFloatEEvPKNS_9InnerInfoE
YVf:__ZL62IDynamicMessageSink_t3056162262_CustomAttributesCacheGeneratorP21CustomAttributesCache
FTh:__Z33RuntimeInvoker_UInt32_t2149682021PK10MethodInfoPvPS2_
jSh:__Z130RuntimeInvoker_Int32_t2071877448_Il2CppObject_Int32_t2071877448_Int32_t2071877448_Il2CppObject_Int32_t2071877448_Int32_t2071877448PK10MethodInfoPvPS2_
Nae:_Array_InternalArray__IEnumerable_GetEnumerator_TisBoolean_t3825574718_m798244337_gshared
cAe:_List_1_CopyTo_m158925060_gshared
kXh:__Z102RuntimeInvoker_Il2CppObject_Int32_t2071877448_Int32_t2071877448_Il2CppObject_Il2CppObject_Il2CppObjectPK10MethodInfoPvPS2_
Mce:_Array_IndexOf_TisCustomAttributeNamedArgument_t94157543_m745056346_gshared
fCa:__Z14PadImageBorderR14ImageReferenceii
Nkj:__ZN15dense_hashtableINSt3__24pairIK10KeyWrapperINS1_IPK10MethodInfoP11Il2CppClassEEEjEES9_17ReflectionMapHashIS8_EN14dense_hash_mapIS9_jSD_NS9_14EqualsComparerINS0_8equal_toIS8_EEEENS0_9allocatorISB_EEE9SelectKeyESI_SK_E4findERSA_
Taj:__ZN6il2cpp2vm13MetadataCache28GetFieldDefaultValueForFieldEPK9FieldInfo
yCh:_ArrayReadOnlyList_1_ReadOnlyError_m2289309720_gshared
Hy:__ZN27AnimationLayerMixerPlayableD2Ev
jcj:__ZN6il2cpp2vm8basepathEPKc
Doh:_DefaultComparer_GetHashCode_m320514092_gshared
tI:__ZN12AudioManager39HandlePendingAudioConfigurationCallbackEv
kk:_emscripten_glIsFramebuffer
VEa:__ZNK13TranslateGLES9GetFormatE13TextureFormat17TextureColorSpace
k4b:__ZN12_GLOBAL__N_16qAtan2Eff
oFd:_Convert_ToInt64_m954367741
R3i:__ZL25UnresolvedVirtualCall_153P12Il2CppObject40CustomAttributeTypedArgument_t1498197914S1_PK10MethodInfo
ok:_JS_Sound_SetLoopPoints
Uud:_ArrayList__ctor_m1467563650
oN:__ZN12AudioManager17ShouldSourcePauseEb
kLj:__ZN6il2cpp2vm26MetadataAllocGenericMethodEv
xGa:__ZN19ConstantBuffersGLES12RecordRenderEv
qqa:__ZN18AsyncUploadManager22UploadStreamingTextureEP28FileTextureUploadInstruction
zsc:__ZN9JSONWrite8TransferI10RectOffsetEEvRT_PKc17TransferMetaFlags
NBa:__ZN4crnd12symbol_codec11decode_bitsEj
lLi:_X509Crl_get_Extensions_m1795830276
Eyc:__ZN15b2CircleContact8EvaluateEP10b2ManifoldRK11b2TransformS4_
Mje:_Array_Sort_TisRaycastResult_t21186376_TisRaycastResult_t21186376_m38820193_gshared
Xii:_Animator_ResetTriggerString_m1445965342
v4b:__ZN21FixedBehaviourManagerD0Ev
Ibg:__ZL55RaycastHit2D_t4063908774_CustomAttributesCacheGeneratorP21CustomAttributesCache
E3e:_StreamReader__ctor_m3454466728
yI:__ZN4FMOD6System12createReverbEPPNS_6ReverbE
cOg:_UInt64_Equals_m1243465002
VPi:_Vector2_get_Item_m2792130561
Fma:__Z16MarkDependenciesR27GarbageCollectorThreadStatej
yIf:_X509ChainElementEnumerator_Reset_m3832280427
slg:__ZL75EventSystem_t3466835263_CustomAttributesCacheGenerator_U3CU3Ef__mgU24cache0P21CustomAttributesCache
nbf:_MulticastDelegate_RemoveImpl_m2024746777
MXd:_CanvasUpdateRegistry_ParentCount_m2367607495
hbf:_MulticastDelegate_Equals_m3064081489
$8h:__Z54RuntimeInvoker_Void_t1841601450_ColorBlock_t2652774230PK10MethodInfoPvPS2_
smf:_Activator_CreateInstance_m1465989661
z0:__ZNK9Transform11GetPositionEv
VGi:_PositionAssertion_GetWidth_m2294218483
Tkg:__ZL111PlayerConnection_t3517219175_CustomAttributesCacheGenerator_PlayerConnection_MessageCallbackInternal_m267902474P21CustomAttributesCache
eTa:__ZN23SharedMeshRenderingData18UnloadVertexStreamEi
eRi:_Vector4_set_Item_m3077071044
U4b:__ZN31CanvasBatchIntermediateRenderer11AddSubBatchERK16DrawBuffersRangePK19ShaderPropertySheet
u3b:__ZN19RenderEventsContextC2Ei
bQ:__Z6simd4fRKf
_fe:_Array_InternalArray__ICollection_CopyTo_TisColor32_t874517518_m379086718_gshared
wzh:_Slider_ClampValue_m2851810895
Rk:_emscripten_glEnable
f4g:_GUISkin_set_font_m4009958323
EWi:_UnityEvent_1_FindMethod_Impl_m3813546_gshared
Xxj:__ZN6il2cpp2gc16GarbageCollector29RegisterFinalizerForNewObjectEP12Il2CppObject
gib:__ZN10TagManager23VirtualRedirectTransferER14SafeBinaryRead
axi:_MarshalAsAttribute__ctor_m1892084128
qQc:_UNITY_FT_Init_Class_ft_grays_raster
b3h:__Z53RuntimeInvoker_Void_t1841601450_Vector3U26_t425862308PK10MethodInfoPvPS2_
p$a:__Z15InitLightMeshesv
T_f:__ZL97WaitHandle_t677569169_CustomAttributesCacheGenerator_WaitHandle_t677569169____Handle_PropertyInfoP21CustomAttributesCache
Qne:_KeyValuePair_2_ToString_m1391611625_AdjustorThunk
Cn:FUNCTION_TABLE_iifiii
Nzi:__ZN23InterfaceActionInvoker1IP18Context_t502196753E6InvokeEjP11Il2CppClassP12Il2CppObjectS1_
Daf:_MonoType_HasElementTypeImpl_m1040892148
PRa:__ZN22RenderingCommandBuffer36AcquireAndRegisterSharedMaterialDataEP8Material
Xte:_List_1_System_Collections_Generic_IEnumerableU3CTU3E_GetEnumerator_m1503548298_gshared
ILb:__Z18Transfer_BlittableI19StreamedBinaryWriteILb0EELb1E8Vector2fEvRK29SerializationCommandArgumentsR31RuntimeSerializationCommandInfo
lVc:_cf2_arrstack_init
HUf:__ZL65ClassInterfaceAttribute_t910653559_CustomAttributesCacheGeneratorP21CustomAttributesCache
$ij:__ZN15dense_hashtableINSt3__24pairIK10KeyWrapperINS1_IPK14Il2CppAssemblyP11Il2CppClassEEEjEES9_17ReflectionMapHashIS8_EN14dense_hash_mapIS9_jSD_NS9_14EqualsComparerINS0_8equal_toIS8_EEEENS0_9allocatorISB_EEE9SelectKeyESI_SK_E15insert_noresizeERKSB_
KV:__Z15CleanLogHandler7LogTypePKcz
eVb:__ZN9ShaderLab19SerializedSubShader8TransferI19StreamedBinaryWriteILb0EEEEvRT_
CN:__ZN14AudioBehaviour15ThreadedCleanupEv
rFg:_UTF32Encoding_GetBytes_m2290150495
vDb:__ZN6Camera17RemoveImageFilterERK11ImageFilter
wDa:__ZNSt3__218__insertion_sort_3IR25ValueParameterArraySorterPN20GpuProgramParameters14ValueParameterEEEvT0_S6_T_
wDc:__ZN10ClipperLib7Clipper27ProcessEdgesAtTopOfScanbeamEx
pig:__ZL102GUIUtility_t3275770671_CustomAttributesCacheGenerator_GUIUtility_EndContainerGUIFromException_m8097082P21CustomAttributesCache
T0c:__ZZN2UI11CanvasGroup15InitializeClassEvEN38FunctorImpl_117kTransformParentChanged4CallEPviR11MessageData
ush:_LayoutUtility_GetLayoutProperty_m4052007472
bVi:_InvokableCall_1_Invoke_m3239892614_gshared
pTc:_Horizontal_Sweep_Init
NSa:__ZNSt3__214__split_bufferI20ComputeShaderVariantRNS_9allocatorIS1_EEED2Ev
pLc:__ZNSt3__26vectorIN4core12basic_stringIcNS1_20StringStorageDefaultIcEEEE13stl_allocatorIS5_L18MemLabelIdentifier34ELi16EEE7reserveEj
Nmj:__ZNK10KeyWrapperINSt3__24pairIPK9EventInfoP11Il2CppClassEEE14EqualsComparerINS0_8equal_toIS7_EEEclERKS8_SE_
_uf:_Context_set_WriteSequenceNumber_m3356252710
G0c:__ZN2UI26InitializeDeviceForOverlayEi
OZe:_Guid_Equals_m2389236871
U0:__Z27LogRepeatingStringWithFlagsRKN4core12basic_stringIcNS_20StringStorageDefaultIcEEEE15LogMessageFlagsi
Tw:__ZNK8Playable11GetDurationEv
lx:__ZN17AnimationPlayable28ComputeNeedsBindingRebuildedEv
wNh:_DefaultComparer__ctor_m2859550749_gshared
Gii:_AnimationEvent_get_functionName_m4178006856
Lre:_List_1_CheckIndex_m3609163576_gshared
s8i:__ZNK15dense_hashtableINSt3__24pairIK10KeyWrapperI13dynamic_arrayIPK10Il2CppTypeLj4EEEPFvvEEES8_N6il2cpp8metadata19Il2CppSignatureHashEN14dense_hash_mapIS8_SB_SF_NS8_14EqualsComparerINSE_22Il2CppSignatureCompareEEENS0_9allocatorISC_EEE9SelectKeyESJ_SL_E12test_deletedERK30dense_hashtable_const_iteratorISC_S8_SF_SN_SJ_SL_E
tzb:__ZN15ResourceManagerD0Ev
gGf:_X509ExtensionCollection__ctor_m1324282194
B7c:__ZN18UnityConnectClient33OnPlayerSessionStateChangedStaticEPS_jyy
FQf:__ZL74CaseInsensitiveHashCodeProvider_t2307530285_CustomAttributesCacheGeneratorP21CustomAttributesCache
wOg:_UIntPtr__ctor_m3900568171_AdjustorThunk
Yya:__ZN7ApiGLES4LoadE16GfxDeviceLevelGL
Wpb:__ZN18StreamedBinaryReadILb0EE21TransferSTLStyleArrayI13dynamic_arrayI31EnlightenSystemAtlasInformationLj8EEEEvRT_17TransferMetaFlags
GBa:__ZN4crnd12crn_unpacker22decode_color_endpointsEv
cxj:__ZN15dense_hashtableI10KeyWrapperIP18Il2CppGenericClassES3_N6il2cpp8metadata22Il2CppGenericClassHashEN14dense_hash_setIS3_S6_NS3_14EqualsComparerINS5_25Il2CppGenericClassCompareEEENSt3__29allocatorIS3_EEE8IdentityESA_SD_E15insert_noresizeERKS3_
WOe:_ReadOnlyCollection_1_System_Collections_IList_Clear_m3006875897_gshared
B2b:__ZZL31RegisterOtherRendererPropertiesR22GenericPropertyBindingEN30Wrapper_RendererReceiveShadows13GetFloatValueEPv
Yqe:_Enumerator_System_Collections_IEnumerator_get_Current_m3866069145_gshared
uef:_PreviousInfo_t581002487_marshal_pinvoke_cleanup
Jba:__ZN8Material11SetPassFastEPN9ShaderLab4PassER17ShaderPassContextP6Shaderib
w7a:__ZNK13ScreenManager13GetLockCursorEv
z7c:__ZN11UnityEngine7Connect20BasePersistentValues10SaveValuesER9JSONWrite
Cdh:_Rect_get_max_m96665935_AdjustorThunk
Chg:__ZL87GUIStyle_t1799908754_CustomAttributesCacheGenerator_GUIStyle_set_fixedWidth_m2562018757P21CustomAttributesCache
mwi:_RuntimeHelpers_InitializeArray_m3920580167
OSd:_ExecuteEvents_get_pointerDownHandler_m1172742772
dHe:_Collection_1_RemoveAt_m560005219_gshared
dGc:__ZNSt3__27__sort4IR24RayHitsByDepthComparitorP12RaycastHit2DEEjT0_S5_S5_S5_T_
g9b:__Z14ScaleCurveTimeR17AnimationCurveTplIfEf
VHf:_X509CertificateEnumerator_System_Collections_IEnumerator_MoveNext_m3708362145
jVa:__Z12SetupLODFadeR9GfxDeviceR17ShaderPassContextf
BBc:__ZN26b2PolygonAndCapsuleContact6CreateEP9b2FixtureiS1_iP16b2BlockAllocator
$Ji:_X501_ToString_m3328169518
c$a:__ZL24CollectForwardObjectsJobP27CollectForwardObjectsHeader
YZ:__ZN8Playable13SetGameObjectEP10GameObject
laj:__ZNK15dense_hashtableINSt3__24pairIK10KeyWrapperIPK11Il2CppClassEPKcEES6_N6il2cpp5utils11PointerHashIS3_EEN14dense_hash_mapIS6_S9_SE_NS6_14EqualsComparerINS0_8equal_toIS5_EEEENS0_9allocatorISA_EEE9SelectKeyESJ_SL_E12test_deletedERK24dense_hashtable_iteratorISA_S6_SE_SN_SJ_SL_E
gYf:__ZL53HMACSHA256_t2622794722_CustomAttributesCacheGeneratorP21CustomAttributesCache
K2a:__ZNK25CameraStackRenderingState24ResolveTempToEyeTexturesEv
W0a:__Z13IsNodeVisibleRK9SceneNodeRK4AABBRK22SceneCullingParameters
dYg:_EventInfo__ctor_m1190141300
qEh:_InternalEnumerator_1_MoveNext_m3585886944_gshared
C2c:__Z57RectTransformUtility_CUSTOM_INTERNAL_CALL_PixelAdjustRectP12Il2CppObjectS0_R5RectTIfE
cyg:_DelayedFixupRecord_FixupImpl_m4249966635
E1j:_emscripten_glStencilMask__wrapper
vOc:__ZZ29InitializeTextRenderingModulevEN40CleanUpTextRenderingGarbageCollectstruct7ForwardEv
M3:__ZN11TypeManager19ClassNameToTypeInfoEPKcb
Tef:_BigInteger_ToString_m3837784224
KRa:__ZN15RenderNodeQueue7CleanupEv
iMa:__ZNK17ArchiveFileSystem8PositionERK13FileEntryData
lKc:__ZN16NovodexAllocator8allocateEjPKcS1_i
XLd:_DllNotFoundException__ctor_m267198482
D_a:__Z17PrepareShadowMapsRK11CullResultsRK11ActiveLightRK10MinMaxAABB
Mpg:__ZL81U3CMouseDragOutsideRectU3Ec__Iterator1_t2599668326_CustomAttributesCacheGeneratorP21CustomAttributesCache
TGg:_NativeEventCalls_CreateEvent_internal_m1605829321
Dse:_List_1_GetIndex_m3409004147_gshared
pjg:__ZL73RuntimePlatform_t1869584967_CustomAttributesCacheGenerator_MetroPlayerX64P21CustomAttributesCache
l1i:__ZL24UnresolvedVirtualCall_13P12Il2CppObjectaPK10MethodInfo
_Hh:_InternalEnumerator_1_System_Collections_IEnumerator_get_Current_m3239681450_AdjustorThunk
_Sb:__ZNSt3__26vectorIN9ShaderLab20SerializedSubProgram15VectorParameterENS_9allocatorIS3_EEEC2ERKS6_
$_a:__ZN9ShaderLab10GrabPassesD2Ev
Qah:_MonoBehaviour_set_useGUILayout_m2666356651
ltb:__ZN14Texture2DArray13UploadTextureEv
l9h:__Z69RuntimeInvoker_TextGenerationSettings_t2543476768_Vector2_t2243707579PK10MethodInfoPvPS2_
aid:_SecurityFrame_t1002202659_marshal_pinvoke
ESc:_tt_cmap14_done
una:__ZN18AwakeFromLoadQueue25RegisterObjectInstanceIDsEv
ksd:_Buffer_BlockCopy_m1586717258
GXf:__ZL93X509Certificate_t283079845_CustomAttributesCacheGenerator_X509Certificate_GetName_m2354987368P21CustomAttributesCache
lMc:__ZN20TextRenderingPrivate19NativeTextGenerator15InsertCharacterEiPj
cGh:_InternalEnumerator_1__ctor_m3589241961_AdjustorThunk
qDc:__ZTv0_n12_N10ClipperLib7ClipperD0Ev
pPd:_CompareInfo_GetSortKey_m3691382873
yAc:__ZN11b2RopeJoint24SolveVelocityConstraintsERK12b2SolverData
pJd:_DBNull_ToString_m3228904745
lEf:_WebHeaderCollection_AddWithoutValidate_m1479880592
Ndd:_SHA1Managed_HashCore_m2658295635
c0h:__Z80RuntimeInvoker_Void_t1841601450_Int32_t2071877448_Int32_t2071877448_Il2CppObjectPK10MethodInfoPvPS2_
Xy:__ZN17AnimationPlayableD0Ev
Pqf:_RC4_get_IV_m506011366
iLi:_X509Crl__ctor_m2469408229
pMb:__Z18Transfer_BlittableI19StreamedBinaryWriteILb0EELb0EyEvRK29SerializationCommandArgumentsR31RuntimeSerializationCommandInfo
VUf:__ZL82SafeHandle_t2733794115_CustomAttributesCacheGenerator_SafeHandle_Close_m1146946803P21CustomAttributesCache
HPh:_Enumerator_get_CurrentValue_m3562053380_AdjustorThunk
bJf:_X509SubjectKeyIdentifierExtension_CopyFrom_m136762226
Voe:_Enumerator_System_Collections_IEnumerator_Reset_m610822832_AdjustorThunk
vhc:__Z41MonoBehaviour_Set_Custom_PropUseGUILayoutP12Il2CppObjecth
gNc:_UNITY_FT_Open_Face
vZj:_glGenRenderbuffers__wrapper
pli:_Bounds_ToString_m1966597703
Off:_BigInteger_op_Division_m1581119694
qRb:__ZN16ScriptingManagerD0Ev
Nhi:_UnityAnalyticsHandler_CustomEvent_m2884790978
pzg:_CallbackHandler_Invoke_m1498072969
kDg:_DSACryptoServiceProvider__ctor_m701823690
x3g:_Mathf_Clamp_m2354025655
RRg:_CustomAttributeData_GetCustomAttributes_m2421330738
kyf:_SecurityParameters_set_ClientWriteMAC_m1970377285
uzj:__ZN30dense_hashtable_const_iteratorINSt3__24pairIK10KeyWrapperINS1_IPKcS4_EEEiEES6_24NamespaceAndNamePairHashN14dense_hash_mapIS6_iS9_NS6_14EqualsComparerI26NamespaceAndNamePairEqualsEENS0_9allocatorIS8_EEE9SelectKeyESD_SF_EppEv
sKg:_Type_get_IsEnum_m313908919
Zdc:__Z44Register_UnityEngine_Component_get_transformv
pAe:_List_1_Reverse_m3395936565_gshared
qHe:_Collection_1_System_Collections_ICollection_CopyTo_m1335644572_gshared
kye:_List_1_CheckMatch_m2830747427_gshared
wJa:__ZN17ArchiveFileSystem12MountArchiveEPKcS1_
GLd:_StackFrame_GetMethod_m72881026
Jrc:__Z18Transfer_BlittableI9JSONWriteLb1E8Vector4fEvRK29SerializationCommandArgumentsR31RuntimeSerializationCommandInfo
E_:__Z11RequireTypePKcS0_S0_
TPh:_Enumerator_System_Collections_IEnumerator_Reset_m70453843_gshared
Aqb:__ZThn32_NK8Renderer14GetSubsetIndexEi
xQi:_Vector3_get_Item_m3616014016
grg:__ZL59Slider_t297367283_CustomAttributesCacheGenerator_m_MinValueP21CustomAttributesCache
p1b:__ZN13ProduceHelperI15ResourceManagerLb0EE7ProduceE18MemLabelIdentifier18ObjectCreationMode
uwa:__ZN9GfxDevice15ImmediateVertexEfff
v_b:__Z13RegisterClassI8MaterialEvv
YYf:__ZL51Evidence_t1407710183_CustomAttributesCacheGeneratorP21CustomAttributesCache
Zjb:__ZN16GraphicsSettings13AwakeFromLoadE17AwakeFromLoadMode
vOd:_FieldAccessException__ctor_m3893881490
s6h:__Z82RuntimeInvoker_Int32_t2071877448_Rect_t3681755626_Il2CppObject_Vector2_t2243707579PK10MethodInfoPvPS2_
Hp:__ZN6Object13AwakeFromLoadE17AwakeFromLoadMode
gua:__ZN13GfxDeviceGLES15SetStencilStateEPK18DeviceStencilStatei
Qkj:__ZN15dense_hashtableINSt3__24pairIK10KeyWrapperINS1_IPK10MethodInfoP11Il2CppClassEEEjEES9_17ReflectionMapHashIS8_EN14dense_hash_mapIS9_jSD_NS9_14EqualsComparerINS0_8equal_toIS8_EEEENS0_9allocatorISB_EEE9SelectKeyESI_SK_E6insertERKSB_
CPj:_cycle
ZNi:_TextGenerator_Populate_m4139823822
V2f:__ZL72PKCS12_t1362584795_CustomAttributesCacheGenerator_U3CU3Ef__switchU24map5P21CustomAttributesCache
Ld:_emscripten_glUniform1iv
TAh:_Text_get_preferredHeight_m452532789
CFc:__ZN15b2DistanceProxy3SetEPK7b2Shapei
Fjd:_String_System_IConvertible_ToDouble_m3860911722
dab:__ZN16MemoryFileSystemD2Ev
Zkh:_Dictionary_2_System_Collections_Generic_ICollectionU3CSystem_Collections_Generic_KeyValuePairU3CTKeyU2CTValueU3EU3E_Contains_m842343255_gshared
iUb:__ZN9ShaderLab18SerializedPropertyD2Ev
xMc:__Z17dynamic_pptr_castIP9Texture2D7TextureET_RK4PPtrIT0_E
Jx:__ZN7mecanim14ValueArrayLoopERKNS_10ValueArrayES2_RS0_fRKNS_14ValueArrayMaskE
lQe:_ReadOnlyCollection_1_System_Collections_IList_set_Item_m1272038804_gshared
CDh:_InternalEnumerator_1_System_Collections_IEnumerator_get_Current_m1931522460_AdjustorThunk
lgd:_SecurityPermission_IsEmpty_m1869313067
OHf:_X509CertificateCollection__ctor_m3709509050
Bdc:__Z37Register_UnityEngine_Camera_get_depthv
$if:_EncryptedPrivateKeyInfo_get_Salt_m2734354394
hSe:_ReadOnlyCollection_1_System_Collections_Generic_IListU3CTU3E_set_Item_m1918537449_gshared
UFe:_Collection_1_System_Collections_ICollection_CopyTo_m3896480607_gshared
sTd:_PointerEventData_set_position_m794507622
q6h:__Z115RuntimeInvoker_Void_t1841601450_Rect_t3681755626_Il2CppObject_Int32_t2071877448_Int32_t2071877448_Int32_t2071877448PK10MethodInfoPvPS2_
z9:__ZN15dense_hashtableINSt3__24pairIKPKcPK4RTTIEES3_N11TypeManager23ConstCharPtrHashFunctorEN14dense_hash_mapIS3_S7_SA_NS9_19ConstCharPtrEqualToE13stl_allocatorIS8_L18MemLabelIdentifier6ELi16EEE9SelectKeyESC_SF_E12resize_deltaEjj
RZb:__ZN15ApplicationInfo16GetInstallerNameEv
Q9a:__Z23ConvertIntegerToTypePtrItEbPvR14SafeBinaryRead
eti:_AnimatorControllerPlayable_IsParameterControlledByCurveID_m4183631446
Gu:__ZN7mecanim5human29HumanGetGoalOrientationOffsetENS0_4GoalE
ae:_emscripten_glStencilFunc
xXh:__Z101RuntimeInvoker_Void_t1841601450_Il2CppObject_Il2CppObject_Il2CppObject_Il2CppObject_Int32_t2071877448PK10MethodInfoPvPS2_
Kwd:_SynchronizedArrayListWrapper_get_Capacity_m2541698837
e1i:__ZL23UnresolvedVirtualCall_6P12Il2CppObjectiPK10MethodInfo
Anh:_DefaultComparer_GetHashCode_m3315096533_gshared
T_g:_MonoMethod_MakeGenericMethod_impl_m2063853616
bid:__Z46il2cpp_codegen_get_marshal_directive_exceptionPKc
gWb:__ZN9ShaderLab20SerializedSubProgram14AddMatrixParamEPKcii15ShaderParamTypei
ge:_glGetActiveUniformBlockName
U$d:_FontData_set_verticalOverflow_m4211463083
CD:__ZN26AnimatorControllerPlayable23ValidateParameterStringE17GetSetValueResultRKN4core12basic_stringIcNS1_20StringStorageDefaultIcEEEE
MOf:__ZL65Il2CppArray_CustomAttributesCacheGenerator_Array_Sort_m2090966156P21CustomAttributesCache
WZe:_Guid_AppendByte_m2890893073
BWg:_MethodBuilder_Invoke_m1874904900
ZCf:__ZN21InterfaceFuncInvoker1IbP13Uri_t19570940E6InvokeEjP11Il2CppClassP12Il2CppObjectS1_
wtd:_Char_System_IConvertible_ToType_m3106771703_AdjustorThunk
a4i:__ZL25UnresolvedVirtualCall_164P12Il2CppObject22UILineInfo_t3621277874PK10MethodInfo
eLf:_Interval_Intersects_m3480157390_AdjustorThunk
qgc:__Z39Quaternion_CUSTOM_INTERNAL_CALL_InverseRK11QuaternionfRS_
Mwi:_GCHandle_Alloc_m1063472408
qJ:__ZN4FMOD7Channel20set3DConeOrientationEP11FMOD_VECTOR
gng:__ZL86StandaloneInputModule_t70867863_CustomAttributesCacheGenerator_m_InputActionsPerSecondP21CustomAttributesCache
rn:FUNCTION_TABLE_iiifii
hPh:_Comparer_1__ctor_m4052560291_gshared
Gcg:__ZL54SkeletonBone_t345082847_CustomAttributesCacheGeneratorP21CustomAttributesCache
sCg:_CryptoConfig_CreateFromName_m391442950
tAj:__ZN6il2cpp2vm12GenericClass11SetupEventsEP11Il2CppClass
MYc:_tt_delta_interpolate
xSc:_tt_cmap12_get_info
wAd:_SortedList__ctor_m3698381356
dfi:__Z31RuntimeInvoker_Slot_t2022531261PK10MethodInfoPvPS2_
Xvj:__ZN6il2cpp2vm15ReboxIReferenceEP14Il2CppIUnknownP11Il2CppClass
e7e:_StreamWriter_LowLevelWrite_m4205372900
kXi:__ZN6il2cpp6icalls8mscorlib6System7Decimal14decimalCompareEP19il2cpp_decimal_reprS5_
$Jj:__ZThn4_N6il2cpp2vm13CachedCCWBaseINS0_13ManagedObjectEE7ReleaseEv
bZg:_Module__ctor_m3853650010
ayd:_CollectionBase_System_Collections_IList_get_Item_m2370387510
VWf:__ZL59RemotingException_t109604560_CustomAttributesCacheGeneratorP21CustomAttributesCache
Bje:_Array_Sort_TisCustomAttributeNamedArgument_t94157543_m3436077809_gshared
I_j:_glCopyTexImage2D__wrapper
wfh:_ResourceRequest__ctor_m3340010930
d_f:__ZL88UTF7Encoding_t741406939_CustomAttributesCacheGenerator_UTF7Encoding_GetBytes_m3015176946P21CustomAttributesCache
G6d:_LayoutElement__ctor_m789941073
Ilg:__ZL77ExecuteEvents_t1693084770_CustomAttributesCacheGenerator_U3CU3Ef__mgU24cache9P21CustomAttributesCache
Kli:_Camera_FireOnPreCull_m1679634170
kUf:__ZL68TargetInvocationException_t4098620458_CustomAttributesCacheGeneratorP21CustomAttributesCache
a2f:__ZL56RankException_t1539875949_CustomAttributesCacheGeneratorP21CustomAttributesCache
_ia:__Z18ClearByDrawingQuad13GfxClearFlagsRK10ColorRGBAffjR17ShaderPassContext
wzi:_DynamicPropertyCollection_FindProperty_m1233265924
Vka:__ZN6prcoreL17RemapGenericFloatI14TexFormatRHalf15TexFormatRFloatEEvPKNS_9InnerInfoE
YUa:__Z16ShouldUseShadowsb
NZ:__ZN15DirectorManager21RebuildStageCallbacksEv
Wla:__ZN19RuntimeSceneManager9LoadSceneERKN4core12basic_stringIcNS0_20StringStorageDefaultIcEEEES6_S6_RK9UnityGUIDiNS_11LoadingModeE
D1i:__ZL24UnresolvedVirtualCall_31P12Il2CppObjectiS0_S0_PK10MethodInfo
Gci:__Z55RuntimeInvoker_Int32_t2071877448_UICharInfo_t3056636800PK10MethodInfoPvPS2_
zCa:__ZN7ApiGLES10DrawArraysE16GfxPrimitiveTypejjj
kqi:_Event_PopEvent_m1952528237
ZG:__ZN10SampleClip13LoadBaseSoundEv
XVh:__Z62RuntimeInvoker_Il2CppObject_Int32_t2071877448_SByte_t454417549PK10MethodInfoPvPS2_
jyj:__ZN15dense_hashtableINSt3__24pairIK10KeyWrapperIP12Il2CppObjectEN6il2cpp2gc9CachedCCWEEES5_NS7_5utils11PointerHashIS3_EEN14dense_hash_mapIS5_S9_SD_NS5_14EqualsComparerINS0_8equal_toIS4_EEEENS0_9allocatorISA_EEE9SelectKeyESI_SK_E15insert_noresizeERKSA_
AKe:_Collection_1_Contains_m643401393_gshared
Zia:__ZN22DeviceMVPMatricesStateC2ER9GfxDevice
s_h:__Z48RuntimeInvoker_Int64_t909078037_Int64_t909078037PK10MethodInfoPvPS2_
xjd:_String__ctor_m372528291
bn:FUNCTION_TABLE_iifii
Ipj:__ZN6il2cpp2vm10Reflection12HasAttributeEP9FieldInfoP11Il2CppClass
dna:__ZNSt3__26__treeIiNS_4lessIiEE13stl_allocatorIiL18MemLabelIdentifier1ELi16EEE7destroyEPNS_11__tree_nodeIiPvEE
oc:invoke_viiifi
xri:_AnimationClipPlayable_GetSpeed_m668389965
caf:_LongComparer_Compare_m3981323622
RTh:__Z64RuntimeInvoker_UInt64_t2909196914_Il2CppObject_Int32_t2071877448PK10MethodInfoPvPS2_
BYd:_ContentSizeFitter_get_horizontalFit_m892469688
Wsg:__ZL109LayoutUtility_t4076838048_CustomAttributesCacheGenerator_LayoutUtility_U3CGetFlexibleHeightU3Em__7_m947156537P21CustomAttributesCache
pif:__ZN23InterfaceActionInvoker2IP8String_tP12Il2CppObjectE6InvokeEjP11Il2CppClassS3_S1_S3_
Izh:_Slider_FindSelectableOnUp_m15474611
Wra:__ZNK11AssetBundle14GetPreloadDataEiR13dynamic_arrayIiLj4EE
hkf:_EncryptedData_get_EncryptedContent_m2732115576
HYh:__Z81RuntimeInvoker_Boolean_t3825574718_SByte_t454417549_Il2CppObject_SByte_t454417549PK10MethodInfoPvPS2_
qf:_JS_Sound_SetPosition
wEi:_Assertion_set_FalseExpression_m1781616372
ZIf:_X509SubjectKeyIdentifierExtension_FromHexChars_m2515150420
bpa:__ZNK9Texture3D26CanReuploadDataToGfxDeviceEv
uaj:__ZL13GetSharedInstPK17Il2CppGenericInst
tPf:__ZL51IReflect_t3412036974_CustomAttributesCacheGeneratorP21CustomAttributesCache
rVd:_StandaloneInputModule_SendSubmitEventToSelectedObject_m3421155293
OIc:__ZN13ProduceHelperI10Collider2DLb1EE7ProduceE18MemLabelIdentifier18ObjectCreationMode
$ni:_Component_GetComponentsInChildren_m908027537
p5c:__ZN22BaseUnityConnectClient17SaveSessionValuesEv
jBi:_CallContextRemotingData_Clone_m2226242476
e2:__Z63ThreadAndSerializationSafeCheckSetMonoBehaviourBeingTransferredP13MonoBehaviour
f$a:__Z24SetupActiveLightsContextR21ActiveLightingContextRK12ActiveLightsRK11CullResultsP14ShadowMapCacheRK10MinMaxAABB
Plh:_Dictionary_2_System_Collections_Generic_ICollectionU3CSystem_Collections_Generic_KeyValuePairU3CTKeyU2CTValueU3EU3E_Contains_m3400497673_gshared
Mic:__Z38Sprite_CUSTOM_INTERNAL_get_textureRectP12Il2CppObjectP5RectTIfE
lJd:_DBNull_System_IConvertible_ToUInt32_m2681284284
uoj:__ZNK15dense_hashtableINSt3__24pairIK10KeyWrapperIPK22Il2CppGenericParameterEPK24MonoGenericParameterInfoEES6_N6il2cpp5utils11PointerHashIS4_EEN14dense_hash_mapIS6_SA_SF_NS6_14EqualsComparerINS0_8equal_toIS5_EEEENS0_9allocatorISB_EEE9SelectKeyESK_SM_E3endEv
L7g:_HumanBone_set_boneName_m2410239828_AdjustorThunk
pjb:__ZN6Camera8TransferI24GenerateTypeTreeTransferEEvRT_
vqh:_EqualityComparer_1__cctor_m416314417_gshared
Ka:invoke_iiiiiiif
Ga:invoke_iiiiiiii
YBb:__ZN24RingBufferMemoryFileData16ConsumeReadBytesEy
cah:_Mesh_GetUVChannel_m364477864
qHf:_X509ChainElementCollection_Contains_m3599995067
s2a:__ZN8Renderer17PendingAddToSceneEv
y2j:b123
x2j:b122
A2j:b125
z2j:b124
C2j:b127
B2j:b126
E2j:b129
aic:__Z52Register_UnityEngine_RectTransform_INTERNAL_get_rectv
wQh:__Z53RuntimeInvoker_Il2CppObject_Il2CppObject_Il2CppObjectPK10MethodInfoPvPS2_
q_:__Z21PostprocessStacktracePKcRN4core12basic_stringIcNS1_20StringStorageDefaultIcEEEE
vze:_List_1_ToArray_m2390522926_gshared
cVf:__ZL70TypeLibImportClassAttribute_t2390314680_CustomAttributesCacheGeneratorP21CustomAttributesCache
lca:__ZN19RenderBufferManager13GetTempBufferEii17DepthBufferFormat19RenderTextureFormatj22RenderTextureReadWrite14VRTextureUsagei
lzb:__ZN18StreamedBinaryReadILb0EE21TransferSTLStyleArrayI13dynamic_arrayI16SplashScreenLogoLj4EEEEvRT_17TransferMetaFlags
FOa:__ZNSt3__26vectorIPN9ShaderLab9SubShaderENS_9allocatorIS3_EEE21__push_back_slow_pathIKS3_EEvRT_
P9d:_Array_InternalArray__ICollection_Remove_TisX509ChainStatus_t4278378721_m4127982424_gshared
Mdc:__Z47Register_UnityEngine_Camera_get_allCamerasCountv
ugi:__Z37RuntimeInvoker_Enumerator_t2809602155PK10MethodInfoPvPS2_
Lcd:___clang_call_terminate
s5c:__ZN22BaseUnityConnectClient20StartEventDispatcherEv
j8b:__ZNSt3__26vectorIj13stl_allocatorIjL18MemLabelIdentifier1ELi16EEE6assignIPKtEENS_9enable_ifIXaasr21__is_forward_iteratorIT_EE5valuesr16is_constructibleIjNS_15iterator_traitsIS9_E9referenceEEE5valueEvE4typeES9_S9_
zs:__ZN7mecanim9animation16EvaluateAvatarIKEPKNS0_14AvatarConstantEPKNS0_11AvatarInputEPNS0_12AvatarOutputEPNS0_12AvatarMemoryEPNS0_15AvatarWorkspaceEb
aDa:__ZL25ProgramUniformMatrix4x3fvPK7ApiGLESjiihPKv
h9a:__Z29StdTemplateConversionFunctionIsiEbPvR14SafeBinaryRead
y4h:__Z83RuntimeInvoker_Il2CppObject_RayU26_t3651946800_Single_t2076509932_Int32_t2071877448PK10MethodInfoPvPS2_
LOa:__ZN12InputManager13InputEndFrameEv
bAd:_SyncHashtable__ctor_m2029869827
Zdj:__ZNSt3__26__treeIP11Il2CppClassNS_4lessIS2_EENS_9allocatorIS2_EEE25__emplace_unique_key_argsIS2_JRKS2_EEENS_4pairINS_15__tree_iteratorIS2_PNS_11__tree_nodeIS2_PvEEiEEbEERKT_DpOT0_
Grj:__ZN6il2cpp2vm6Thread5SetupEP12Il2CppThread
wTe:_ReadOnlyCollection_1_System_Collections_IList_Remove_m2200089035_gshared
PFe:_Collection_1_CheckWritable_m2756357359_gshared
HQj:___munmap
$3d:_InputField_get_characterLimit_m2386380888
Tng:__ZL68ColorBlock_t2652774230_CustomAttributesCacheGenerator_m_PressedColorP21CustomAttributesCache
aFd:_Convert_ToInt64_m1722087499
hg:_localtime_r
o3h:__Z74RuntimeInvoker_Vector3_t2243707580_Vector3_t2243707580_Vector3_t2243707580PK10MethodInfoPvPS2_
J2h:__Z80RuntimeInvoker_Il2CppObject_Ray_t2469606224_Single_t2076509932_Int32_t2071877448PK10MethodInfoPvPS2_
$_f:__ZL81AppDomain_t2719102437_CustomAttributesCacheGenerator_assembly_resolve_in_progressP21CustomAttributesCache
QUf:__ZL65InterfaceTypeAttribute_t4113096249_CustomAttributesCacheGeneratorP21CustomAttributesCache
jg:_strftime
vca:__ZN7Texture33SetStoredColorSpaceNoDirtyNoApplyE17TextureColorSpace
jY:__ZN12FileAccessorD2Ev
Vha:__ZN10ColorRGBAf8TransferI18StreamedBinaryReadILb0EEEEvRT_
Utb:__ZN14VertexDataInfoC2Ev
qOd:_Exception_GetObjectData_m2653827630
S8f:__ZL75Mesh_t1356156583_CustomAttributesCacheGenerator_Mesh_HasChannel_m3616583481P21CustomAttributesCache
EQi:_Vector3_Equals_m2692262876_AdjustorThunk
JGh:_InternalEnumerator_1_get_Current_m2415979394_gshared
aOb:__ZL17Transfer_GUIStyleI18StreamedBinaryReadILb1EELb1EEvRK29SerializationCommandArgumentsR31RuntimeSerializationCommandInfo
Iwh:_ScrollRect_SetDirtyCaching_m1491302821
sej:__ZN6il2cpp6icalls8mscorlib6SystemL9IsPrivateEPK12PropertyInfo
TRg:_CustomAttributeData_GetCustomAttributes_m3258419955
Q0:__ZN9shadertag10InitializeEv
lVa:__ZN13BatchRenderer20RenderSingleWithPassER17ShaderPassContextPK18SharedMaterialDataP6ShaderPN9ShaderLab4PassEiPKNS7_10GrabPassesEjib15BatchBreakCause
Jag:__ZL80Object_t1021602117_CustomAttributesCacheGenerator_Object_Instantiate_m2489341053P21CustomAttributesCache
dnd:_EncoderFallback__ctor_m1639180960
YD:__Z92Register_UnityEngine_Experimental_Director_AnimationOffsetPlayable_INTERNAL_CALL_SetRotationv
kNh:_InternalEnumerator_1_MoveNext_m1441038493_gshared
Irb:__ZN15QualitySettings14QualitySetting8TransferI24GenerateTypeTreeTransferEEvRT_
Mfe:_Array_InternalArray__ICollection_CopyTo_TisParameterModifier_t1820634920_m4127516211_gshared
Dmd:_DecoderReplacementFallback__ctor_m2344783488
ugh:_Enumerator_System_Collections_IDictionaryEnumerator_get_Key_m467957770_AdjustorThunk
agf:_SequentialSearchPrimeGeneratorBase_GenerateNewPrime_m545729286
xZc:__Z28Font_Get_Custom_PropMaterialP12Il2CppObject
hKj:__ZN6il2cpp6icalls8mscorlib6System9Threading16NativeEventCalls19ResetEvent_internalE12Il2CppIntPtr
ylg:__ZL65EventTrigger_t1967201810_CustomAttributesCacheGenerator_delegatesP21CustomAttributesCache
wxc:__ZL34CleanupModule_PerformanceReportingv
PHe:_Collection_1_Remove_m4136193368_gshared
gSd:_EventTrigger_OnPointerUp_m2791622548
Ryh:_Shadow_set_useGraphicAlpha_m141905402
C6b:__ZN22BlockMemoryCacheWriter14LockCacheBlockEjPPhS1_
eCj:__ZN6il2cpp2os6Thread10RunWrapperEPv
dmc:__ZNSt3__218__insertion_sort_3IRPFbPKN5IMGUI9GUIWindowES4_EPPS2_EEvT0_SA_T_
RZi:_GenericEqualityComparer_1_Equals_m1109000020_gshared
Hwg:_RealProxy_InternalGetTransparentProxy_m3415358600
Suc:__Z22TransferField_NonArrayI8JSONRead27Converter_SimpleNativeClassI8GUIStyleEEvRK23StaticTransferFieldInfoR31RuntimeSerializationCommandInfoRT0_
B7i:__ZN15dense_hashtableI10KeyWrapperIPK19Il2CppGenericMethodES4_N6il2cpp8metadata23Il2CppGenericMethodHashEN14dense_hash_setIS4_S7_NS4_14EqualsComparerINS6_26Il2CppGenericMethodCompareEEENSt3__29allocatorIS4_EEE8IdentityESB_SE_E16reset_thresholdsEv
use:__ZN23InterfaceActionInvoker2IP24ObjectU5BU5D_t3614634134iE6InvokeEjP11Il2CppClassP12Il2CppObjectS1_i
Vdg:__ZL131AnimatorControllerPlayable_t4078305555_CustomAttributesCacheGenerator_AnimatorControllerPlayable_PlayInternal_m3385259863____layer2P21CustomAttributesCache
Pg:_llvm_eh_typeid_for
B4b:__Z13RegisterClassI10GameObjectEvv
VQf:__ZL53HashValues_t2390200547_CustomAttributesCacheGeneratorP21CustomAttributesCache
aGf:_X509BasicConstraintsExtension_get_PathLengthConstraint_m3004531343
DSf:__ZL125GenericTypeParameterBuilder_t1370236603_CustomAttributesCacheGenerator_GenericTypeParameterBuilder_GetConstructors_m103067670P21CustomAttributesCache
l9e:_MissingMemberException__ctor_m4277447068
Bse:_List_1_Find_m1881447651_gshared
h0g:_StrongNameKeyPair_System_Runtime_Serialization_ISerializable_GetObjectData_m1693082120
ZBf:_NameValueCollection__ctor_m1767369537
RPb:__Z18Transfer_BlittableI18StreamedBinaryReadILb0EELb1E8Vector4fEvRK29SerializationCommandArgumentsR31RuntimeSerializationCommandInfo
msh:_EqualityComparer_1__ctor_m3155445483_gshared
TCj:__ZN6il2cpp2vm6Method8GetParamEPK10MethodInfoj
R0e:_Int64_CompareTo_m1953686218
mZi:_GenericComparer_1__ctor_m221205314_gshared
$uj:__ZN6il2cpp6icalls8mscorlib6System2IO6MonoIO4ReadE12Il2CppIntPtrP11Il2CppArrayiiPi
e1j:_glBindVertexArray__wrapper
gDg:_DSA_Create_m3450041777
Pga:__ZN8Material8TransferI14SafeBinaryReadEEvRT_
jpi:_Debug_LogWarningFormat_m79553173
Dnb:__ZN12CubemapArray17UploadToGfxDeviceEv
ixh:_ScrollRect_AdjustBounds_m1033723448
gla:__ZN6prcoreL17RemapGenericFloatI15TexFormatRGHalf17TexFormatRGBAHalfEEvPKNS_9InnerInfoE
Upe:_Enumerator_System_Collections_IEnumerator_Reset_m2200349770_gshared
wLe:_Collection_1_get_Item_m3791221403_gshared
qYf:__ZL54PaddingMode_t3032142640_CustomAttributesCacheGeneratorP21CustomAttributesCache
qrj:__ZN24dense_hashtable_iteratorINSt3__24pairIK10KeyWrapperIP11Il2CppClassES4_EES5_N6il2cpp8metadata16SZArrayClassHashEN14dense_hash_mapIS5_S4_SA_NS5_14EqualsComparerINS9_19SZArrayClassCompareEEENS0_9allocatorIS7_EEE9SelectKeyESE_SG_E30advance_past_empty_and_deletedEv
xai:__Z75RuntimeInvoker_Void_t1841601450_ConstraintU26_t2775779428_Int32_t2071877448PK10MethodInfoPvPS2_
SPg:_OrdinalComparer__ctor_m2952942058
s0h:__Z107RuntimeInvoker_Boolean_t3825574718_Int32_t2071877448_Int64U5BU5DU26_t2476256456_StringU5BU5DU26_t3730240492PK10MethodInfoPvPS2_
OGf:_X509Chain_CheckRevocationOnChain_m2441901351
UJj:__ZN6il2cpp2vm13ManagedObject14QueryInterfaceERK10Il2CppGuidPPv
Xed:_SymmetricAlgorithm_CreateDecryptor_m4240570785
ZKg:_Type_GetMethod_m3650909507
tH:__ZN11AudioSource4StopEb
iPj:_frexp
KHb:__ZN14SafeBinaryRead21TransferSTLStyleArrayI13dynamic_arrayI10Matrix4x4fLj4EEEEvRT_17TransferMetaFlags
BLe:_Collection_1_CheckWritable_m732350052_gshared
xsd:_Byte_System_IConvertible_ToDecimal_m1036493607
R_f:__ZL47Timer_t791717973_CustomAttributesCacheGeneratorP21CustomAttributesCache
pba:__Z25GetSplashScreenBackgroundRK5RectTIfE
y9:__ZN14dense_hash_mapIPKcPK4RTTIN11TypeManager23ConstCharPtrHashFunctorENS5_19ConstCharPtrEqualToE13stl_allocatorINSt3__24pairIKS1_S4_EEL18MemLabelIdentifier6ELi16EEEixERSB_
_og:__ZL65Image_t2042527209_CustomAttributesCacheGenerator_m_PreserveAspectP21CustomAttributesCache
v8c:__ZN13RuntimeStaticI19UnityConnectServiceLb0EE16StaticInitializeEPv
KNh:_DefaultComparer_Compare_m1247109616_gshared
w0g:_ResourceManager__ctor_m498829021
dHa:__ZN18GlslGpuProgramGLESD2Ev
S6a:__ZN13RenderTexture14SetVolumeDepthEi
qzg:_SerializationCallbacks__ctor_m722356782
wvc:__ZN10Matrix4x4f8TransferI8JSONReadEEvRT_
O3:__ZN14dense_hash_mapIPKcPK4RTTIN11TypeManager23ConstCharPtrHashFunctorENS5_19ConstCharPtrEqualToE13stl_allocatorINSt3__24pairIKS1_S4_EEL18MemLabelIdentifier6ELi16EEE5beginEv
RUf:__ZL49Marshal_t785896760_CustomAttributesCacheGeneratorP21CustomAttributesCache
U1:__ZN17PersistentManager18ReadObjectThreadedEi
gya:__ZN25TransformFeedbackSkinning31CleanupTransformFeedbackShadersEv
xGj:__ZN6il2cpp6icalls8mscorlib6System7Runtime16CompilerServices14RuntimeHelpers15InitializeArrayEP11Il2CppArray12Il2CppIntPtr
gIh:_InternalEnumerator_1_System_Collections_IEnumerator_get_Current_m2851415307_gshared
nMc:__ZNK20TextRenderingPrivate8FontImpl19GetCharacterAdvanceEjijfPj
uMj:__ZN6il2cpp6icalls8mscorlib4Mono8Security12Cryptography18KeyPairPersistence16_IsUserProtectedEP12Il2CppString
sRe:_ReadOnlyCollection_1_Contains_m3936562733_gshared
oCf:_DefaultUriParser__ctor_m4218024811
rTg:_DerivedType_GetField_m3960169619
OJd:_Decimal_System_IConvertible_ToInt16_m3159038792_AdjustorThunk
Dsb:__ZN10VertexData8TransferI18StreamedBinaryReadILb0EEEEvRT_
Mkf:_PKCS12_GetExistingParameters_m2413397265
YSi:_Nullable_1_get_Value_m1743067844_gshared
OJe:_Collection_1_ClearItems_m4268731177_gshared
c7a:__ZN14PreloadManager16UpdatePreloadingEv
Jib:__ZN12BaseRendererD2Ev
YIi:_X509CertificateCollection__ctor_m858704242
Uqe:_Enumerator__ctor_m425576865_AdjustorThunk
aVh:__Z148RuntimeInvoker_Int32_t2071877448_Il2CppObject_Int32_t2071877448_Int32_t2071877448_Il2CppObject_Int32_t2071877448_Int32_t2071877448_Int32_t2071877448PK10MethodInfoPvPS2_
tTe:_ReadOnlyCollection_1_System_Collections_IList_Contains_m1545447998_gshared
rEj:__ZN14dense_hash_mapI10KeyWrapperIPK19Il2CppGenericMethodEP10MethodInfoN6il2cpp8metadata23Il2CppGenericMethodHashENS4_14EqualsComparerINS8_26Il2CppGenericMethodCompareEEENSt3__29allocatorINSD_4pairIKS4_S6_EEEEEC2EjRKS9_RKSC_
kcb:__ZNK21UnityDefaultAllocatorI17LowLevelAllocatorE8ContainsEPKv
Bbj:__ZNSt3__213__vector_baseI6pollfdNS_9allocatorIS1_EEED2Ev
vuf:_ClientSessionInfo_get_Id_m3046630969
Zh:_emscripten_get_main_loop_timing
k3e:_DirectoryInfo__ctor_m3750996792
KWd:_BaseMeshEffect_ModifyMesh_m2134816219
Kie:_Array_qsort_TisVector2_t2243707579_m3527759534_gshared
Hrb:__ZN24GenerateTypeTreeTransfer21TransferSTLStyleArrayINSt3__26vectorIN15QualitySettings14QualitySettingENS1_9allocatorIS4_EEEEEEvRT_17TransferMetaFlags
vfh:_ResourceRequest_t2560315377_marshal_pinvoke_cleanup
g5a:__ZN23ManagedAttributeManager52CallManagedGetParentTypeDisallowingMultipleInclusionE17ScriptingClassPtr
Bme:_Array_InternalArray__get_Item_TisAnimatorClipInfo_t3905751349_m2163447872_gshared
Fze:_List_1_System_Collections_Generic_IEnumerableU3CTU3E_GetEnumerator_m166627113_gshared
Exb:__ZNSt3__26vectorI9InputAxisNS_9allocatorIS1_EEE6resizeEj
uce:__ZN21InterfaceFuncInvoker2Ii19Vector2_t2243707579S0_E6InvokeEjP11Il2CppClassP12Il2CppObjectS0_S0_
sVa:__ZN13BatchRendererC2ER15RenderLoopStatsRK15RenderNodeQueuebbb
sgd:_SecurityElement_IsValidAttributeValue_m483287146
Bmd:_Decoder_set_Fallback_m1780632169
np:getTempRet0
t5h:__Z81RuntimeInvoker_Void_t1841601450_PlayableHandleU26_t3483893774_Vector3_t2243707580PK10MethodInfoPvPS2_
Eri:_AnimationClipPlayable_set_applyFootIK_m1054409049
dod:_ArithmeticException__ctor_m104771799
LXh:__Z114RuntimeInvoker_Void_t1841601450_Il2CppObject_Il2CppObject_Int32_t2071877448_Il2CppObject_Il2CppObject_Il2CppObjectPK10MethodInfoPvPS2_
jRg:_AssemblyTitleAttribute__ctor_m1696431446
j3d:_Image_AddQuad_m1603575622
XEj:__ZN24dense_hashtable_iteratorINSt3__24pairIK10KeyWrapperIPK19Il2CppGenericMethodEP10MethodInfoEES6_N6il2cpp8metadata23Il2CppGenericMethodHashEN14dense_hash_mapIS6_S9_SD_NS6_14EqualsComparerINSC_26Il2CppGenericMethodCompareEEENS0_9allocatorISA_EEE9SelectKeyESH_SJ_E30advance_past_empty_and_deletedEv
Kqf:_PrivateKeyInfo_RemoveLeadingZero_m3396807048
iNe:_ReadOnlyCollection_1_System_Collections_Generic_ICollectionU3CTU3E_get_IsReadOnly_m1251192075_gshared
sse:_List_1_GrowIfNeeded_m185971996_gshared
Bsj:__ZN6il2cpp6icalls8mscorlib6System9ThreadingL21lookup_cached_cultureEP12Il2CppThreadi
b0a:__ZN18DeferredRenderLoopD2Ev
wVg:_GenericTypeParameterBuilder_GetMethods_m1243855818
H4:__ZNK16TypeTreeIterator4NameEv
IX:__ZN15FileSystemEntry3SetEPKc
Jgj:_il2cpp_method_has_attribute
LMh:_InternalEnumerator_1__ctor_m2808001655_gshared
Iad:_MACTripleDES__ctor_m884945242
$I:__ZN20SoundChannelInstance15ParameterBuffer5ApplyEPN4FMOD7ChannelE
Y1i:__ZL24UnresolvedVirtualCall_52P12Il2CppObjectPK10MethodInfo
Rvb:__ZN23SharedMeshRenderingDataD0Ev
bF:__Z117Register_UnityEngine_Experimental_Director_AnimatorControllerPlayable_INTERNAL_CALL_GetAnimatorTransitionInfoInternalv
kMc:__ZN20TextRenderingPrivate19NativeTextGenerator9InsertTabEv
HNf:__ZL73Enum_t2459695545_CustomAttributesCacheGenerator_Enum_ToObject_m1688724857P21CustomAttributesCache
N2g:_Rect_set_y_m4294916608
F5c:__ZN11UnityEngine15PlatformWrapper24GetRuntimePlatformStringEv
Hi:_glIsEnabled
ARb:__ZN15CacheWriterBaseD2Ev
jrg:__ZL56Slider_t297367283_CustomAttributesCacheGenerator_m_ValueP21CustomAttributesCache
$Db:__Z25scripting_class_get_image17ScriptingClassPtr
x9f:__ZL85Material_t193706927_CustomAttributesCacheGenerator_Material_GetTextureImpl_m623159197P21CustomAttributesCache
Li:_emscripten_glDrawElementsInstanced
Dz:__ZN26AnimatorControllerPlayable27SetupStateMachineBehavioursEv
kpf:_ARC4Managed_Dispose_m4102232694
Epf:_HMAC_Initialize_m3052649104
Rqa:__ZN18JobBatchDispatcherD2Ev
hXb:__ZN9Transform17MainThreadCleanupEv
HIj:_GC_clear_hdr_marks
cYj:_glScissor__wrapper
$1j:_emscripten_glCreateShader__wrapper
N3d:_InputField_get_caretSelectPositionInternal_m3523572533
PUc:_cff_fd_select_get
Adg:__ZL123AnimatorControllerPlayable_t4078305555_CustomAttributesCacheGenerator_AnimatorControllerPlayable_PlayInFixedTime_m172593751P21CustomAttributesCache
vUf:__ZL73CompilationRelaxationsAttribute_t238494011_CustomAttributesCacheGeneratorP21CustomAttributesCache
Mfg:__ZL95CanvasRenderer_t261436805_CustomAttributesCacheGenerator_CanvasRenderer_SetMaterial_m1462355522P21CustomAttributesCache
SAh:_Text_get_minHeight_m1562513104
ved:_SHA512Managed_processBlock_m3220567420
DBf:_NameObjectCollectionBase_get_Keys_m446053925
Vi:_emscripten_glGetShaderiv
Fhh:_Transform_1__ctor_m353209818_gshared
MNa:__ZZ23InitPlayerLoopCallbacksvEN41EarlyUpdateUpdateAllUnityWebStreamsstruct7ForwardEv
bK:__ZN4FMOD6System10getVersionEPj
L3e:_FileLoadException_GetObjectData_m2047020314
Vig:__ZL96RemoteSettings_t392466225_CustomAttributesCacheGenerator_RemoteSettings_CallOnUpdate_m1624968574P21CustomAttributesCache
Cde:_Array_InternalArray__IndexOf_TisSByte_t454417549_m1427585061_gshared
zRh:__Z75RuntimeInvoker_Byte_t3683104436_Il2CppObject_Int32_t2071877448_Il2CppObjectPK10MethodInfoPvPS2_
e_c:__ZN2UI6Canvas23VirtualRedirectTransferER24GenerateTypeTreeTransfer
hCd:_Decimal_u64_m3991988111
ERi:_YieldInstruction_t3462875981_marshal_pinvoke
DTi:_Predicate_1_BeginInvoke_m2959352225_gshared
Qmh:_Dictionary_2_CopyToCheck_m2147716750_gshared
qJi:_X509Certificate_Parse_m1764345628
zAi:_SynchronizationAttribute_GetClientContextSink_m1264319894
SKc:__ZN13TextRendering4Font13AwakeFromLoadE17AwakeFromLoadMode
fva:__ZN9GfxDevice21ReleaseSharedMeshDataEP14SharedMeshData
$lf:_SmallXmlParser_Peek_m2814840810
uyb:__ZNSt3__27__sort5IRNS_6__lessINS_4pairIPKN5Unity4TypeE7Hash128EES8_EEPS8_EEjT0_SC_SC_SC_SC_T_
IIe:_Collection_1_ConvertItem_m3168406667_gshared
t6i:__ZNK15dense_hashtableINSt3__24pairIK10KeyWrapperIPKcEP11Il2CppClassEES5_N6il2cpp5utils11StringUtils12StringHasherIS4_EEN14dense_hash_mapIS5_S8_SE_NS5_14EqualsComparerINSC_21CaseSensitiveComparerEEENS0_9allocatorIS9_EEE9SelectKeyESI_SK_E10test_emptyEj
xVi:_UnityAction_1_EndInvoke_m2822290096_gshared
OHj:_GC_unreachable_finalize_mark_proc
K4h:__Z75RuntimeInvoker_Il2CppObject_PlayableHandleU26_t3483893774_Int32_t2071877448PK10MethodInfoPvPS2_
kJj:_maybe_finalize
zHe:_Collection_1_System_Collections_ICollection_get_SyncRoot_m2547259708_gshared
wBi:_ConstructionCall_GetObjectData_m3974358557
Uhc:__Z43RectTransform_CUSTOM_INTERNAL_get_anchorMaxP12Il2CppObjectP13Vector2fIcall
UId:_DateTimeOffset_get_DateTime_m229084964_AdjustorThunk
Cga:__ZN8Material28UpdateHashesOnPropertyChangeEN9ShaderLab16FastPropertyNameE
Gic:__Z53Register_UnityEngine_SortingLayer_GetLayerValueFromIDv
Tpe:_Enumerator__ctor_m3512622280_AdjustorThunk
orh:_EqualityComparer_1_System_Collections_IEqualityComparer_Equals_m349194518_gshared
Gxd:_CaseInsensitiveComparer_Compare_m1192858479
NFb:__Z18Transfer_BlittableI14SafeBinaryReadLb1E8Vector4fEvRK29SerializationCommandArgumentsR31RuntimeSerializationCommandInfo
t6e:_StreamAsyncResult_set_Done_m4272090534
D7d:_LayoutRebuilder_Clear_m2390054824
UIe:_Collection_1_System_Collections_IList_Insert_m2968289909_gshared
DRg:_Default_SelectMethod_m622251293
hM:__ZN11AudioSource12AddToManagerEv
Qr:__ZN8Animator23VirtualRedirectTransferER19StreamedBinaryWriteILb0EE
$Ai:_AsyncResult_get_NextSink_m1172723924
Tv:__ZN11UnityEngine9Animation32CreateAnimatorGenericBindingsOptERKNS0_20AnimationSetBindingsER9TransformPKN7mecanim9animation14AvatarConstantEPKNS0_21AvatarBindingConstantEbRNS6_6memory9AllocatorER8Animator
Uyj:__ZN6il2cpp2vm5Image13ClassFromNameEPK11Il2CppImagePKcS6_
eUj:dynCall_vdddddd
sUb:__ZN24GenerateTypeTreeTransfer21TransferSTLStyleArrayINSt3__26vectorIN9ShaderLab14SerializedPassENS1_9allocatorIS4_EEEEEEvRT_17TransferMetaFlags
z1:__ZL32MarkLevelGameManagerDependenciesR27GarbageCollectorThreadState
M1h:__Z49RuntimeInvoker_Void_t1841601450_UInt16_t986882611PK10MethodInfoPvPS2_
pxa:__ZNK13GfxDeviceGLES26HasActiveRandomWriteTargetEv
hfi:__Z37RuntimeInvoker_ILTokenInfo_t149559338PK10MethodInfoPvPS2_
VYj:_glGetActiveUniformsiv__wrapper
Dic:__Z43Register_UnityEngine_Material_EnableKeywordv
Z2:__ZN13MonoBehaviour19SetupScriptingCacheE17ScriptingClassPtrP10MonoScript
b0h:__Z59RuntimeInvoker_Il2CppObject_Double_t4078015681_Il2CppObjectPK10MethodInfoPvPS2_
gr:__Z20AnimationEventToMonoRK14AnimationEventR18MonoAnimationEvent
T8f:__ZL85Mesh_t1356156583_CustomAttributesCacheGenerator_Mesh_ExtractArrayFromList_m1349408169P21CustomAttributesCache
V0h:__Z83RuntimeInvoker_Void_t1841601450_Il2CppObject_Il2CppObject_Il2CppObject_Il2CppObjectPK10MethodInfoPvPS2_
D1:__ZNK15dense_hashtableINSt3__24pairIKiiEEi21InstanceIDHashFunctorN14dense_hash_mapIiiS4_NS0_8equal_toIiEE13stl_allocatorIS3_L18MemLabelIdentifier1ELi16EEE9SelectKeyES7_SA_E13find_positionERS2_
Tth:_Navigation_get_selectOnLeft_m3980387574_AdjustorThunk
hDe:_List_1_Sort_m2158253314_gshared
mkg:__ZL74UnityEventBase_t828812576_CustomAttributesCacheGenerator_m_PersistentCallsP21CustomAttributesCache
wnh:_DefaultComparer__ctor_m2265472997_gshared
Duj:__ZN6il2cpp2vm13LivenessState18ShouldProcessValueEP12Il2CppObjectP11Il2CppClass
Ewb:__ZN4PPtrI6SpriteE8TransferI14SafeBinaryReadEEvRT_
wqj:__ZN15dense_hashtableINSt3__24pairIK10KeyWrapperIP11Il2CppClassES4_EES5_N6il2cpp8metadata16SZArrayClassHashEN14dense_hash_mapIS5_S4_SA_NS5_14EqualsComparerINS9_19SZArrayClassCompareEEENS0_9allocatorIS7_EEE9SelectKeyESE_SG_E16reset_thresholdsEv
vXh:__Z45RuntimeInvoker_Il2CppObject_IntPtr_t_IntPtr_tPK10MethodInfoPvPS2_
QTb:__ZNSt3__26vectorIN9ShaderLab14SerializedPassENS_9allocatorIS2_EEE8__appendEj
hTb:__ZNSt3__26vectorIN9ShaderLab20SerializedSubProgram13BufferBindingENS_9allocatorIS3_EEEC2INS_11__wrap_iterIPS3_EEEET_SB_RKS5_PNS_9enable_ifIXaasr21__is_forward_iteratorISB_EE5valuesr16is_constructibleIS3_NS_15iterator_traitsISB_E9referenceEEE5valueEvE4typeE
Xuf:_Context_get_SupportedCiphers_m2172827298
vW:__ZNK13ScreenManager21IsMultiDisplayEnabledEv
SAc:__ZN12b2WheelJoint24SolveVelocityConstraintsERK12b2SolverData
jVh:__Z170RuntimeInvoker_Int32_t2071877448_Il2CppObject_Int32_t2071877448_Int32_t2071877448_Il2CppObject_Int16_t4041245914_Int32_t2071877448_SByte_t454417549_ContextU26_t3131521781PK10MethodInfoPvPS2_
Pob:__ZN9Texture2D23VirtualRedirectTransferER18StreamedBinaryReadILb0EE
rCc:__ZN10Collider2D8TransferI24GenerateTypeTreeTransferEEvRT_
vMd:_Double_System_IConvertible_ToUInt16_m286326038_AdjustorThunk
Axg:_TypeInfo__ctor_m1475908211
vib:__ZNSt3__26__treeINS_12__value_typeIN4core12basic_stringIcNS2_20StringStorageDefaultIcEEEEjEENS_19__map_value_compareIS6_S7_NS_4lessIS6_EELb1EEE13stl_allocatorIS7_L18MemLabelIdentifier6ELi16EEE7destroyEPNS_11__tree_nodeIS7_PvEE
F3:__ZN16ScriptingManager27NativeTypeForScriptingClassE17ScriptingClassPtr
PGf:_X509Chain_WrapUp_m1072032285
MKi:_X509CertificateEnumerator_System_Collections_IEnumerator_MoveNext_m1448966539
RRc:_get_sfnt_table
_me:_Object_FindObjectOfType_TisIl2CppObject_m2967490724_gshared
BGe:_Collection_1_IsSynchronized_m3261594010_gshared
OPa:_unity_z_tr_stored_block
HQh:__Z46RuntimeInvoker_Single_t2076509932_Il2CppObjectPK10MethodInfoPvPS2_
Ybe:_Array_compare_TisIl2CppObject_m1481822507_gshared
uTd:_PointerEventData_set_pressPosition_m2094137883
pqb:__ZN8Renderer20RendererAddedToSceneEv
Qdg:__ZL132AnimatorControllerPlayable_t4078305555_CustomAttributesCacheGenerator_AnimatorControllerPlayable_Play_m1100499576____normalizedTime2P21CustomAttributesCache
p1a:__ZL22ScheduleSceneNodesJobsP25ScheduleSceneNodesJobDataj
Jk:_emscripten_set_canvas_size
FOf:__ZL65Il2CppArray_CustomAttributesCacheGenerator_Array_Sort_m3645766612P21CustomAttributesCache
Ynf:_BigInteger_op_Subtraction_m972393015
aPh:_Comparer_1__cctor_m2253684996_gshared
zTb:__ZNSt3__26vectorIN9ShaderLab20SerializedSubProgramENS_9allocatorIS2_EEE8__appendEj
XU:__ZN20DynamicHeapAllocatorI17LowLevelAllocatorE8AllocateEji
I3c:__ZN11UnityEngine9Analytics15UserCustomEvent12ToJsonStringER9JSONWrite
UVa:__ZN20DynamicPropertySheet15SetVectorQueuedERKN9ShaderLab16FastPropertyNameERK8Vector4fN19ShaderPropertySheet8SetFlagsE
Zkf:_PKCS12_get_IterationCount_m3572300030
pki:_DefaultExecutionOrder_get_order_m1561221759
eRe:_ReadOnlyCollection_1_System_Collections_IEnumerable_GetEnumerator_m4248982967_gshared
xs:__ZN7mecanim9animation22EvaluateAvatarRetargetEPKNS0_14AvatarConstantEPKNS0_11AvatarInputEPNS0_12AvatarOutputEPNS0_12AvatarMemoryEPNS0_15AvatarWorkspaceEb
N7d:_LayoutRebuilder_GetHashCode_m2745108660
_lb:__ZN14RenderSettings23VirtualRedirectTransferER19StreamedBinaryWriteILb0EE
Yrc:__ZL26Transfer_SimpleNativeClassI9JSONWrite10RectOffsetLb0EEvRK29SerializationCommandArgumentsR31RuntimeSerializationCommandInfo
gIj:_GC_push_conditional
V3c:__ZN21UnityAnalyticsManager23VirtualRedirectTransferER24GenerateTypeTreeTransfer
RAa:__ZN17GenericDynamicVBO10AllocateVBEjR21DynamicVBOChunkHandle
Ste:_List_1_get_Item_m1547593893_gshared
Vci:__Z70RuntimeInvoker_Void_t1841601450_CustomAttributeNamedArgument_t94157543PK10MethodInfoPvPS2_
X2e:_Path_GetPathRoot_m1269357080
Qwj:__ZN30dense_hashtable_const_iteratorI10KeyWrapperIP18Il2CppGenericClassES3_N6il2cpp8metadata22Il2CppGenericClassHashEN14dense_hash_setIS3_S6_NS3_14EqualsComparerINS5_25Il2CppGenericClassCompareEEENSt3__29allocatorIS3_EEE8IdentityESA_SD_EppEv
Gyd:_KeyNotFoundException__ctor_m264393096
LRd:_EventSystem_SetSelectedGameObject_m2211816110
Rhh:_Transform_1__ctor_m4161450529_gshared
fl:_glMapBufferRange
Iob:__ZN9Texture2D8TransferI18StreamedBinaryReadILb0EEEEvRT_
Pfc:__Z31Input_CUSTOM_GetMouseButtonDowni
KOf:__ZL65Il2CppArray_CustomAttributesCacheGenerator_Array_Sort_m1730553742P21CustomAttributesCache
QEj:__ZN15dense_hashtableINSt3__24pairIK10KeyWrapperIPK19Il2CppGenericMethodEP10MethodInfoEES6_N6il2cpp8metadata23Il2CppGenericMethodHashEN14dense_hash_mapIS6_S9_SD_NS6_14EqualsComparerINSC_26Il2CppGenericMethodCompareEEENS0_9allocatorISA_EEE9SelectKeyESH_SJ_E3endEv
m5b:__ZN13PlayableGraph4PlayEv
ETa:__ZNK9Transform16GetLocalPositionEv
n8f:__ZL89Input_t1785128008_CustomAttributesCacheGenerator_Input_get_imeCompositionMode_m4250689464P21CustomAttributesCache
uod:_Array_System_Collections_ICollection_get_Count_m2897196527
$ra:__ZN13LoadOperation19IntegrateTimeSlicedEi
qrb:__ZNK15QualitySettings26GetTypeInfoVirtualInternalEv
DKf:_InterpreterFactory__ctor_m3331468903
rlf:_X501__cctor_m3795360380
Cxa:__ZN13GfxDeviceGLES22DispatchComputeProgramE12ObjectHandleI18ComputeProgram_TagPvE15ComputeBufferIDj
_6g:_GUIStyle_set_contentOffset_m2138084868
FGe:_Collection_1_System_Collections_ICollection_CopyTo_m4193844941_gshared
VEd:_Convert_ToInt32_m2297793940
vqa:__Z17TransformAABBSlowRK4AABBRK10Matrix4x4fRS_
Bpb:__ZN15SerializeTraitsI13dynamic_arrayI7Hash128Lj8EEE19ResizeSTLStyleArrayERS2_i18MemLabelIdentifier
qpj:__ZN13Il2CppHashMapINSt3__24pairIPK9FieldInfoP11Il2CppClassEEj17ReflectionMapHashIS7_ENS0_8equal_toIS7_EENS0_9allocatorINS1_IK10KeyWrapperIS7_EjEEEEEC2EjRKS9_RKSB_
oSb:__ZN9ShaderLab21SerializedShaderState8TransferI14SafeBinaryReadEEvRT_
nRj:_ftruncate
tdd:_RSAPKCS1SignatureFormatter_SetKey_m2365816458
P_e:_Int16_GetHashCode_m304503362_AdjustorThunk
MVc:_cf2_stack_pushInt
jB:__ZN7mecanim9animation20DestroyLayerConstantEPNS0_13LayerConstantERNS_6memory9AllocatorE
HGg:_CompressedStack__ctor_m276924800
_Sd:_ExecuteEvents_get_cancelHandler_m1964324668
Nha:__ZN15SerializeTraitsINSt3__24pairIN4core12basic_stringIcNS2_20StringStorageDefaultIcEEEES6_EEE8TransferI24GenerateTypeTreeTransferEEvRS7_RT_
n$j:b89
m$j:b88
Bgg:__ZL70GUISettings_t622856320_CustomAttributesCacheGenerator_m_SelectionColorP21CustomAttributesCache
G_j:b81
F_j:b80
O_j:b83
i4:__ZN18ResourceImageGroup7CleanupEv
W_j:b85
Psi:_AnimatorControllerPlayable_SetTrigger_m3144166126
l$j:b87
b$j:b86
fq:__ZN11Quaternionf8TransferI24GenerateTypeTreeTransferEEvRT_
cBh:_ToggleGroup_RegisterToggle_m3118973598
l3b:__ZN13ProduceHelperI4MeshLb0EE7ProduceE18MemLabelIdentifier18ObjectCreationMode
Iqf:_PrivateKeyInfo_Decode_m1053025782
tIf:_X509ChainElementCollection_System_Collections_ICollection_CopyTo_m1467895312
ukf:_PKCS12_Decrypt_m2457743414
Dcg:__ZL87Animator_t69676727_CustomAttributesCacheGenerator_Animator_SetTriggerString_m2002790359P21CustomAttributesCache
Nmb:__ZN8Playable19SetOutputConnectionEPS_i
M5i:__ZN15dense_hashtableINSt3__24pairIK10KeyWrapperIPK11Il2CppClassEPKcEES6_N6il2cpp5utils11PointerHashIS3_EEN14dense_hash_mapIS6_S9_SE_NS6_14EqualsComparerINS0_8equal_toIS5_EEEENS0_9allocatorISA_EEE9SelectKeyESJ_SL_EC2ERKSO_j
Vl:_glDeleteShader
lOd:_Exception_GetType_m3898489832
bla:__ZN6prcoreL17RemapGenericFloatI15TexFormatRGHalf16TexFormatRGFloatEEvPKNS_9InnerInfoE
GDe:_Stack_1_Peek_m1548778538_gshared
HNa:__ZZ23InitPlayerLoopCallbacksvEN38EarlyUpdateExecuteMainThreadJobsstruct7ForwardEv
kRi:_Vector4_Dot_m2285943745
Oyh:_Shadow_set_effectColor_m3110056844
jch:_Physics2D_GetColliderFromInstanceID_m95920619
xbc:__Z27scripting_add_internal_callPKcPKv
Zge:_Array_InternalArray__Insert_TisUriScheme_t1876590943_m2728325409_gshared
apj:__ZN13Il2CppHashMapINSt3__24pairIPK9EventInfoP11Il2CppClassEEj17ReflectionMapHashIS7_ENS0_8equal_toIS7_EENS0_9allocatorINS1_IK10KeyWrapperIS7_EjEEEEEC2EjRKS9_RKSB_
uxj:__GLOBAL__sub_I_GarbageCollector_cpp
n0:__Z17GetPlayerSettingsv
V9h:__Z65RuntimeInvoker_KeyValuePair_2_t38854645_Il2CppObject_Il2CppObjectPK10MethodInfoPvPS2_
at:__ZN34BlobWriteTransferSTLStyleArrayImplI22OffsetPtrArrayTransferIiEEclERS1_17TransferMetaFlagsR9BlobWrite
ZKi:_X509Store_CheckStore_m1027496478
Nbi:__Z87RuntimeInvoker_Int32_t2071877448_UIVertex_t1204258818_UIVertex_t1204258818_Il2CppObjectPK10MethodInfoPvPS2_
RTf:__ZL82MethodBase_t904190842_CustomAttributesCacheGenerator_MethodBase_Invoke_m1075809207P21CustomAttributesCache
E5h:__Z93RuntimeInvoker_TextGenerationError_t780770201_Il2CppObject_TextGenerationSettings_t2543476768PK10MethodInfoPvPS2_
Vu:__ZN26AnimatorControllerPlayable18SetLayerAutoWeightEv
Kb:invoke_vffff
PRj:__ZNSt3__212basic_stringIcNS_11char_traitsIcEENS_9allocatorIcEEEC2ERKS5_jjRKS4_
Okd:_String_Contains_m4017059963
lke:_Array_swap_TisCustomAttributeNamedArgument_t94157543_TisCustomAttributeNamedArgument_t94157543_m3600072996_gshared
oNh:_DefaultComparer_Compare_m1606207039_gshared
o0c:__ZN2UI14CanvasRenderer12SyncMaterialENS0_8SyncFlagE
iMj:__ZN6il2cpp2vm9Parameter30GetDefaultParameterValueObjectEPK10MethodInfoPK13ParameterInfoPb
Lhe:_Array_InternalArray__set_Item_TisLabelData_t3712112744_m2253365137_gshared
vZg:_MonoCMethod_get_Attributes_m3914742834
AKh:_InternalEnumerator_1__ctor_m142220063_AdjustorThunk
xah:_MonoBehaviour_Invoke_m666563676
WSg:_ConstructorBuilder_get_DeclaringType_m4264602248
l7e:_StringReader__ctor_m643998729
jDf:_IPv6Address_TryParse_m2220524278
o$h:__Z75RuntimeInvoker_DateTime_t693205669_DateTime_t693205669_TimeSpan_t3430258949PK10MethodInfoPvPS2_
w7d:_U3CDelayedSetDirtyU3Ec__Iterator0_System_Collections_Generic_IEnumeratorU3CobjectU3E_get_Current_m2210283424
bag:__ZL86Time_t31991979_CustomAttributesCacheGenerator_Time_get_realtimeSinceStartup_m357614587P21CustomAttributesCache
IRc:_UNITY_tt_face_done_kern
nzi:_Context_get_DefaultContext_m2211922324
PRg:_CustomAttributeData_get_NamedArguments_m708818174
Hoc:__Z59GUIStyle_CUSTOM_Internal_GetNumCharactersThatFitWithinWidth13Il2Cpp_IntPtrP12Il2CppStringf
Zqf:_RSAManaged_GetPaddedValue_m2972141669
xxh:_ScrollRect_OnDrag_m1424848249
pwf:_TlsServerCertificate_ProcessAsSsl3_m277089231
tbe:_Array_InternalArray__IEnumerable_GetEnumerator_TisUInt16_t986882611_m3665860884_gshared
Faa:__Z19scripting_gc_enablev
pFi:_AnchorInfo__ctor_m617409099
M8a:__Z29StdTemplateConversionFunctionIihEbPvR14SafeBinaryRead
xVg:_GenericTypeParameterBuilder_GetMethodImpl_m528545634
i2c:__Z55Register_UnityEngine_CanvasRenderer_DisableRectClippingv
iLf:_Interval_CompareTo_m2909556284_AdjustorThunk
Qtb:__ZN14SafeBinaryRead21TransferSTLStyleArrayI13dynamic_arrayI11ColorRGBA32Lj4EEEEvRT_17TransferMetaFlags
hFh:_InternalEnumerator_1_System_Collections_IEnumerator_Reset_m1090540230_AdjustorThunk
Kkg:__ZL83Logger_t3328995178_CustomAttributesCacheGenerator_Logger_get_logHandler_m4190583509P21CustomAttributesCache
Hth:_Navigation_t1571958496_marshal_pinvoke
$Jf:_Interpreter_GetLastDefined_m2450713313
GEi:_Parser_ParseAssertionType_m3316669790
pyh:_Selectable_get_isPointerDown_m774209881
LNf:__ZL73Enum_t2459695545_CustomAttributesCacheGenerator_Enum_ToObject_m2460371738P21CustomAttributesCache
bXb:__ZNSt3__27__sort4IRNS_6__lessIN4core12basic_stringIcNS2_20StringStorageDefaultIcEEEES6_EEPS6_EEjT0_SA_SA_SA_T_
KUj:dynCall_viiiifii
och:_Plane_get_distance_m1834776091_AdjustorThunk
Enj:__ZN6il2cpp2gc19AppendOnlyGCHashMapINSt3__24pairIPK11Il2CppImageP11Il2CppClassEEP22Il2CppReflectionModule17ReflectionMapHashIS9_ENS2_8equal_toIS9_EEEC2Ev
R1:__Z20GetPersistentManagerv
ZYc:_UNITY_TT_Set_Var_Design
mzi:_Context_Finalize_m1386439645
gaa:__ZN21SystemInfoStringCache16StaticInitializeEPv
usf:_TlsStream__ctor_m4117943603
rkj:__ZN15dense_hashtableINSt3__24pairIK10KeyWrapperIPK10Il2CppTypeEjEES6_N6il2cpp8metadata14Il2CppTypeHashEN14dense_hash_mapIS6_jSB_NS6_14EqualsComparerINSA_26Il2CppTypeEqualityComparerEEENS0_9allocatorIS8_EEE9SelectKeyESF_SH_E12maybe_shrinkEv
eAh:_Text_FontTextureChanged_m4236993972
HDj:__ZN6il2cpp2gc16GarbageCollector23MakeDescriptorForObjectEPji
Bxj:__ZNK10KeyWrapperIP12Il2CppObjectE14EqualsComparerINSt3__28equal_toIS1_EEEclERKS2_S9_
Y$g:_ParameterModifier_t1820634920_marshal_pinvoke
cDb:__ZNK13MonoBehaviour7GetNameEv
Fuj:__ZN13dynamic_arrayIP12Il2CppObjectLj4EE9push_backEv
Lma:__ZN19ScriptingInvocation28AdjustArgumentsToMatchMethodEv
axj:__ZN15dense_hashtableI10KeyWrapperIP18Il2CppGenericClassES3_N6il2cpp8metadata22Il2CppGenericClassHashEN14dense_hash_setIS3_S6_NS3_14EqualsComparerINS5_25Il2CppGenericClassCompareEEENSt3__29allocatorIS3_EEE8IdentityESA_SD_E6insertERKS3_
kQd:_AbstractEventData_Use_m1797212290
plb:__Z20RenderMultipleMeshesRK15RenderNodeQueueRK18RenderMultipleData17ShaderChannelMask
sog:__ZL150U3CDelayedDestroyDropdownListU3Ec__Iterator0_t3461999471_CustomAttributesCacheGenerator_U3CDelayedDestroyDropdownListU3Ec__Iterator0_Reset_m3485957852P21CustomAttributesCache
zij:__ZN6il2cpp2vm4Type19GetGenericParameterEPK10Il2CppType
K1c:__Z51Register_UnityEngine_CanvasGroup_get_blocksRaycastsv
TLh:_InternalEnumerator_1_get_Current_m2826780083_gshared
u2j:b119
tvc:__ZN8JSONRead21TransferSTLStyleArrayI13dynamic_arrayI11ColorRGBA32Lj4EEEEvRT_18MemLabelIdentifier17TransferMetaFlags
Tsg:__ZL105LayoutUtility_t4076838048_CustomAttributesCacheGenerator_LayoutUtility_U3CGetMinHeightU3Em__4_m1769295917P21CustomAttributesCache
fnh:_Dictionary_2_GetEnumerator_m1752238884_gshared
Nlj:__ZNK15dense_hashtableINSt3__24pairIK10KeyWrapperINS1_IPK11Il2CppImageP11Il2CppClassEEEjEES9_17ReflectionMapHashIS8_EN14dense_hash_mapIS9_jSD_NS9_14EqualsComparerINS0_8equal_toIS8_EEEENS0_9allocatorISB_EEE9SelectKeyESI_SK_E3endEv
mdh:_RaycastHit2D_get_collider_m2568504212
WMh:_InternalEnumerator_1__ctor_m2782443954_AdjustorThunk
Ad:_glBeginQuery
rQg:_Assembly_GetCustomAttributes_m95309865
Y1g:_GUILayoutUtility_INTERNAL_CALL_Internal_GetWindowRect_m3236664463
Ncj:_BackgroundController__ctor_m3863892641
hJc:__ZN10Effector2D25CheckEffectorColliderMaskEP10Collider2DS1_
gRa:__ZN6Camera12RenderStereoENS_10RenderFlagE8CullFlagPNS_24PerformEyeRenderFunctionE
RW:__ZN20LocalFileSystemPosix10ToAbsoluteEPKc
B1d:_GridLayoutGroup__ctor_m1099847132
gVh:__Z136RuntimeInvoker_Boolean_t3825574718_Il2CppObject_Il2CppObject_Int32_t2071877448_Int32_t2071877448_SByte_t454417549_ContextU26_t3131521781PK10MethodInfoPvPS2_
YBd:_Convert_ToBoolean_m48997236
LQa:_UNITY_png_default_flush
op:__ZN6Object17MainThreadCleanupEv
Mvd:_ArrayListWrapper_set_Capacity_m2792463350
Kkb:__Z32TransferEnumWithNameForceIntSizeI14SafeBinaryRead7HDRModeEvRT_RT0_PKc17TransferMetaFlags
dQj:_getcwd
DEg:_StringBuilder_Append_m1128243247
xBc:__ZN16b2CapsuleContact6CreateEP9b2FixtureiS1_iP16b2BlockAllocator
qFi:_AnchorInfo_get_Offset_m142119297
Vbb:__ZN25ThreadsafeLinearAllocatorD2Ev
JGd:_DateTime_get_Year_m1985210972
cba:__Z21SendMessageToEveryoneRK17MessageIdentifier11MessageData
X4g:_GUISkin_get_settings_m626844463
v7:__ZN21BillboardBatchManager16StaticInitializeEPv
$4g:_Object_get_name_m2079638459
s2j:b117
wZ:__ZN12_GLOBAL__N_138ArchiveRedirectFileSystemStaticDestroyEPv
xUi:_InvokableCall_1_add_Delegate_m3048312905_gshared
cOd:_EventHandler_Invoke_m1137722757
G8i:__ZNK15dense_hashtableINSt3__24pairIK10KeyWrapperI13dynamic_arrayIPK10Il2CppTypeLj4EEEPFvvEEES8_N6il2cpp8metadata19Il2CppSignatureHashEN14dense_hash_mapIS8_SB_SF_NS8_14EqualsComparerINSE_22Il2CppSignatureCompareEEENS0_9allocatorISC_EEE9SelectKeyESJ_SL_E5beginEv
Iaf:_MonoType_IsSubclassOf_m2211166238
p0g:_TypeFilter_EndInvoke_m997625354
bIe:_Collection_1_System_Collections_ICollection_CopyTo_m2859266050_gshared
Qu:__ZN7mecanim14ValueArrayCopyEPKNS_10ValueArrayEPS0_PKNS_14ValueArrayMaskE
fOh:_Comparer_1__ctor_m2876014041_gshared
RIj:_GC_continue_reclaim
T1e:_InvalidCastException__ctor_m2730571470
uIf:_X509ChainElementCollection_System_Collections_IEnumerable_GetEnumerator_m2559704689
P2f:__ZL86BigInteger_t925946153_CustomAttributesCacheGenerator_BigInteger_op_Implicit_m622924526P21CustomAttributesCache
bog:__ZL59Dropdown_t1985816271_CustomAttributesCacheGenerator_m_ValueP21CustomAttributesCache
HKf:_InterpreterFactory_set_Gap_m2761943153
KFf:_PublicKey_get_Key_m126090744
eNc:__ZNSt3__23mapIN20TextRenderingPrivate7FontRefEP11FT_FaceRec_NS_4lessIS2_EENS_9allocatorINS_4pairIKS2_S4_EEEEEixERS9_
BJa:__ZN17ArchiveFileSystem10AddStorageEP20ArchiveStorageReader
W2i:__ZL25UnresolvedVirtualCall_104P12Il2CppObjectS0_S0_S0_iPK10MethodInfo
Gni:_Color_Equals_m661618137
yzc:__ZNK12b2MotorJoint16GetReactionForceEf
bFa:__ZN12_GLOBAL__N_112UploadFormatE13TextureFormat
vph:_EqualityComparer_1_System_Collections_IEqualityComparer_GetHashCode_m1203798961_gshared
ohg:__ZL89GUIStyle_t1799908754_CustomAttributesCacheGenerator_GUIStyle_AssignRectOffset_m2998103580P21CustomAttributesCache
C$i:__ZN6il2cpp2vm5Class15GetEnumBaseTypeEP11Il2CppClass
h3e:_DirectoryNotFoundException__ctor_m3713860966
OOh:_Comparer_1_get_Default_m4282764954_gshared
aob:__ZNK9Texture2D16GetNpotTexelSizeEv
JFh:_InternalEnumerator_1__ctor_m245588437_gshared
kJf:_Capture_get_Text_m3472127896
Msh:_Mask_get_rectTransform_m3304369086
umi:_WillRenderCanvases_EndInvoke_m3215676440
wOi:_TooltipAttribute__ctor_m2640804852
k2h:__Z35RuntimeInvoker_Category_t1984577050PK10MethodInfoPvPS2_
yui:_AnimatorControllerPlayable_INTERNAL_CALL_PlayInFixedTimeInternal_m847261734
WAa:__ZN9GfxDevice22GetDefaultVertexBufferE26GfxDefaultVertexBufferTypej
pLi:_X509Crl_get_NextUpdate_m45665244
DGe:_Collection_1__ctor_m3903788797_gshared
BQe:_ReadOnlyCollection_1_System_Collections_ICollection_CopyTo_m1129689124_gshared
vQj:___fseeko_unlocked
y9h:__Z162RuntimeInvoker_Void_t1841601450_Il2CppObject_Int32_t2071877448_SByte_t454417549_SByte_t454417549_SingleU26_t4173844468_SingleU26_t4173844468_SingleU26_t4173844468PK10MethodInfoPvPS2_
Q_j:_glGetActiveUniform__wrapper
nQj:_sscanf
lLe:_Collection_1_Contains_m1999290510_gshared
hub:__ZN14SafeBinaryRead21TransferSTLStyleArrayINSt3__26vectorI17BlendShapeChannelNS1_9allocatorIS3_EEEEEEvRT_17TransferMetaFlags
bja:__Z17BeginSplashScreenv
tQi:_Vector3__ctor_m2638739322_AdjustorThunk
cVb:__ZN9ShaderLab16SerializedShader8TransferI19StreamedBinaryWriteILb0EEEEvRT_
uMg:_UInt32_Parse_m2400360707
AA:__ZN7mecanim9animation18CreateAvatarMemoryEPKNS0_14AvatarConstantERNS_6memory9AllocatorE
uBd:_Stack_Pop_m3788808882
KPh:_Enumerator_VerifyCurrent_m4246196125_AdjustorThunk
bmh:_Dictionary_2_pick_value_m3484897877_gshared
tId:_DateTime_op_Equality_m1867073872
Pt:__ZN7mecanim8skeleton16SkeletonPoseCopyIN4math4trsXENS2_7affineXEEEvPKNS0_13SkeletonPoseTIT_EEPNS5_IT0_EE
rve:_List_1_CopyTo_m1916701891_gshared
lMb:__Z18Transfer_BlittableI19StreamedBinaryWriteILb0EELb0EaEvRK29SerializationCommandArgumentsR31RuntimeSerializationCommandInfo
CAa:__ZN18GfxFramebufferGLES18GetFramebufferNameERK20GfxRenderTargetSetup
jTj:_saveSetjmp
Xuj:__ZN6il2cpp6icalls8mscorlib6System2IO6MonoIO11GetFileTypeE12Il2CppIntPtrPi
hnc:__Z30Event_Get_Custom_PropCharacterP12Il2CppObject
WZ:__ZN13PlayableGraph27SchedulePlayableDestructionERK9HPlayable
YXj:_glGetFramebufferAttachmentParameteriv__wrapper
FGb:__Z22scripting_array_length17ScriptingArrayPtr
ogd:_SecurityElement_GetAttribute_m4288291176
iIi:_UriParser_get_DefaultPort_m1377931533
RXi:_IndexedSet_1_get_Count_m2839545138_gshared
Tpa:__ZN14SafeBinaryRead20TransferTypelessDataEjPvi
y0g:_RenderPipelineManager_get_currentPipeline_m679160301
yUf:__ZL66StringFreezingAttribute_t2691375565_CustomAttributesCacheGeneratorP21CustomAttributesCache
Wqc:__ZN9rapidjson13GenericReaderINS_4UTF8IcEES2_13JSONAllocatorE10ParseFalseILj1ENS_25GenericInsituStringStreamIS2_EENS_15GenericDocumentIS2_S3_S3_EEEEvRT0_RT1_
Zye:_List_1_AddCollection_m3284813601_gshared
ieb:__ZN33AssetBundleLoadFromAsyncOperation7PerformEv
Arg:__ZL102ToggleGroup_t1030026315_CustomAttributesCacheGenerator_ToggleGroup_U3CActiveTogglesU3Em__1_m4052653494P21CustomAttributesCache
w3h:__Z69RuntimeInvoker_Single_t2076509932_Int32_t2071877448_Int32_t2071877448PK10MethodInfoPvPS2_
l0:__Z19GetActiveColorSpacev
Jph:_EqualityComparer_1__cctor_m1672307556_gshared
Fvg:_SoapTypeAttribute_get_IsInteropXmlElement_m2941294827
gxb:__ZN14SpriteRenderer18UpdateCachedSpriteEv
Cqe:_Enumerator_System_Collections_IEnumerator_get_Current_m3542273247_gshared
aud:_Char_System_IConvertible_ToUInt32_m1557991717_AdjustorThunk
yld:_Encoding_get_UTF8Unmarked_m628720656
FWe:_NumberFormatter_RoundBits_m1545255255
T0:__Z6StrCmpPKcS0_
_Kh:_InternalEnumerator_1_MoveNext_m2906956792_gshared
xWb:__Z21CheckGpuProgramUsable20ShaderGpuProgramType
ybi:__Z55RuntimeInvoker_Boolean_t3825574718_Keyframe_t1449471340PK10MethodInfoPvPS2_
mRg:_Binder__cctor_m3736115807
jDj:__ZN6il2cpp2os9Directory20GetFileSystemEntriesERKNSt3__212basic_stringIcNS2_11char_traitsIcEENS2_9allocatorIcEEEESA_iiPi
_mh:_Dictionary_2_OnDeserialization_m2160537783_gshared
vqd:_Attribute_GetHashCode_m2653962112
bMc:__ZN20TextRenderingPrivate19NativeTextGenerator5SetupEv
bBi:_AsyncResult_GetReplyMessage_m262842621
Soe:_Enumerator__ctor_m3021143890_AdjustorThunk
jzb:__ZN12AspectRatios8TransferI18StreamedBinaryReadILb0EEEEvRT_
mQf:__ZL66X509ExtensionCollection_t1640144839_CustomAttributesCacheGeneratorP21CustomAttributesCache
M4b:__ZN10GameObject14CopyPropertiesERS_
kpc:__Z44Register_UnityEngine_GUIStyle_get_fixedWidthv
Ocd:_RSACryptoServiceProvider_Common_m2581564813
yJi:_X509CertificateEnumerator_MoveNext_m4060814498
m5e:_MemoryStream_CheckIfClosedThrowDisposed_m2253054610
JCh:_ArrayReadOnlyList_1_GetEnumerator_m634288642_gshared
z7a:__ZNK13ScreenManager12IsFullScreenEv
QQj:_rand
zYj:_emscripten_glFramebufferRenderbuffer__wrapper
VDj:__ZN6il2cpp5utils9PathUtils7CombineIcEENSt3__212basic_stringIT_NS3_11char_traitsIS5_EENS3_9allocatorIS5_EEEERKNS0_10StringViewIS5_EERKSA_
GTe:_ReadOnlyCollection_1_GetEnumerator_m2481390116_gshared
yti:_AnimatorControllerPlayable_INTERNAL_CALL_GetNextAnimatorStateInfoInternal_m1550960895
uHb:__ZN14SafeBinaryRead21TransferSTLStyleArrayINSt3__26vectorI17AnimationCurveTplIfE13stl_allocatorIS4_L18MemLabelIdentifier1ELi16EEEEEEvRT_17TransferMetaFlags
Scc:__Z60Register_UnityEngine_AsyncOperation_set_allowSceneActivationv
Llj:__ZN15dense_hashtableINSt3__24pairIK10KeyWrapperINS1_IPK11Il2CppImageP11Il2CppClassEEEjEES9_17ReflectionMapHashIS8_EN14dense_hash_mapIS9_jSD_NS9_14EqualsComparerINS0_8equal_toIS8_EEEENS0_9allocatorISB_EEE9SelectKeyESI_SK_E12expand_arrayEjN21dense_hash_map_traits17integral_constantIbLb0EEE
Myg:_ObjectManager_RegisterObject_m872610295
Z0a:__Z22PrepareOptimizedPlanesPK5PlaneiPKN4math7_float4E
Fgi:__Z47RuntimeInvoker_Vector3_t2243707580_Il2CppObjectPK10MethodInfoPvPS2_
feh:_RectOffset_t3387826427_marshal_pinvoke
m0d:_Graphic_SetVerticesDirty_m1607014370
t7:__ZN17UniqueIDGenerator15CreatePureIndexEv
D7b:__ZN14dense_hash_mapI12TriangleEdgei16TriangleEdgeHashNSt3__28equal_toIS0_EENS2_9allocatorINS2_4pairIKS0_iEEEEEixERS7_
Hpf:_MD2__ctor_m3133818738
AB:__ZN11UnityEngine9Animation28GenericAnimationBindingCache15DidReloadDomainEv
Fmf:_AppDomain_InternalGetProcessGuid_m1278588156
E5d:_InputField_MoveRight_m386206014
Tzd:_HashValues_get_Count_m234926373
E9d:_Array_InternalArray__ICollection_Remove_TisIl2CppObject_m2425110446_gshared
Bwh:_ScrollRect_set_inertia_m2575649134
n2e:_BinaryReader_ReadBoolean_m2892291883
S_i:__ZN15dense_hashtableINSt3__24pairIK10KeyWrapperIPK22Il2CppGenericParameterEP11Il2CppClassEES6_N6il2cpp5utils11PointerHashIS4_EEN14dense_hash_mapIS6_S9_SE_NS6_14EqualsComparerINS0_8equal_toIS5_EEEENS0_9allocatorISA_EEE9SelectKeyESJ_SL_E14squash_deletedEv
Wzb:__ZNSt3__26__treeINS_12__value_typeIN4core12basic_stringIcNS2_20StringStorageDefaultIcEEEE4PPtrI6ObjectEEENS_19__map_value_compareIS6_SA_NS_4lessIS6_EELb1EEE13stl_allocatorISA_L18MemLabelIdentifier51ELi16EEE7destroyEPNS_11__tree_nodeISA_PvEE
Izc:__ZNK12b2MouseJoint17GetReactionTorqueEf
aYf:__ZL66DSASignatureDeformatter_t2187578719_CustomAttributesCacheGeneratorP21CustomAttributesCache
nlc:__Z14GUIClipTextureP9Texture2DPhiiii
pEh:_InternalEnumerator_1_Dispose_m1064404287_AdjustorThunk
gDa:__ZNSt3__26vectorI27ComputeShaderBuiltinSamplerNS_9allocatorIS1_EEE21__push_back_slow_pathIKS1_EEvRT_
S9h:__Z95RuntimeInvoker_Void_t1841601450_ObjectU5BU5DU26_t3223402458_Int32_t2071877448_Int32_t2071877448PK10MethodInfoPvPS2_
swf:_TlsServerCertificate_validateCertificates_m1988583701
_Zh:__Z52RuntimeInvoker_DateTime_t693205669_Int16_t4041245914PK10MethodInfoPvPS2_
EPf:__ZL61DllImportAttribute_t3000813225_CustomAttributesCacheGeneratorP21CustomAttributesCache
H3i:__ZL25UnresolvedVirtualCall_143P12Il2CppObjectaaPK10MethodInfo
A0:__ZNK9Transform18TransformDirectionERK8Vector3f
IMa:__ZNK17ArchiveFileSystem12GetAssetGUIDERK13FileEntryData
oWb:__ZNSt3__26vectorIN9ShaderLab20SerializedSubProgram15MatrixParameterENS_9allocatorIS3_EEE21__push_back_slow_pathIKS3_EEvRT_
J2g:_GUILayoutEntry_SetHorizontal_m1828181654
C1j:_emscripten_glClearStencil__wrapper
eqh:_EqualityComparer_1_get_Default_m1852501307_gshared
L0h:__Z94RuntimeInvoker_Void_t1841601450_Il2CppObject_ByteU5BU5DU26_t790777611_ByteU5BU5DU26_t790777611PK10MethodInfoPvPS2_
A9i:__ZN15dense_hashtableINSt3__24pairIK10KeyWrapperIPK11Il2CppClassEPKcEES6_N6il2cpp5utils11PointerHashIS3_EEN14dense_hash_mapIS6_S9_SE_NS6_14EqualsComparerINS0_8equal_toIS5_EEEENS0_9allocatorISA_EEE9SelectKeyESJ_SL_E12resize_deltaEjj
ASj:__ZNK10__cxxabiv120__si_class_type_info27has_unambiguous_public_baseEPNS_19__dynamic_cast_infoEPvi
pYe:_NumberFormatInfo_get_PercentNegativePattern_m1162448153
WQf:__ZL56SyncHashtable_t1343674558_CustomAttributesCacheGeneratorP21CustomAttributesCache
zbj:__ZN6il2cpp2vm21ThreadPoolCompartment13QueueWorkItemEP17Il2CppAsyncResult
lCb:__ZN24RingBufferMemoryFileData9SetLengthEy
kWj:_glTexSubImage3D__wrapper
wJf:_FactoryCache_Add_m2602974721
aPa:__Z21WriteImageAsyncThreadPv
x6:__ZL16GetInterfaceImpl18UnityInterfaceGUID
AYe:_RegionInfo_construct_internal_region_from_name_m3316088619
V$i:__ZN6il2cpp2vmL17SetupFieldOffsetsENS0_15FieldLayoutKindEP11Il2CppClassjRKNSt3__26vectorIjNS4_9allocatorIjEEEE
ZGe:_Collection_1_GetEnumerator_m2816357893_gshared
vbg:__ZL105RectTransform_t3349966182_CustomAttributesCacheGenerator_RectTransform_INTERNAL_get_anchorMin_m3180545469P21CustomAttributesCache
pse:_List_1_System_Collections_IList_get_Item_m936612973_gshared
jU:__ZN13EmscriptenWWW7GetSizeEv
sFj:__ZN6il2cpp6icalls8mscorlib6System15MonoCustomAttrs27GetCustomAttributesInternalEP12Il2CppObjectP20Il2CppReflectionTypeb
fZc:_UNITY_TT_Set_MM_Blend
Wyg:_ObjectReader_ReadAssembly_m869834280
Fkb:__ZN22RenderingCommandBufferD0Ev
_Se:_ReadOnlyCollection_1_System_Collections_IList_get_Item_m1831743662_gshared
nMe:_Collection_1_IsSynchronized_m971497175_gshared
u_:__ZNK18ScriptingObjectPtr17ToScriptingStringEv
KSd:_ExecuteEvents_Execute_m1617536317
bAh:_Text_get_cachedTextGeneratorForLayout_m1357670532
wI:__ZL31InitializeAudioScriptingClassesv
zTa:__Z14SortGUIByDepthP10GUIElementS0_
m$e:_NumberFormatter_NumberToString_m126384393
c_j:_emscripten_glVertexAttrib4fv__wrapper
D6:__ZN13RuntimeStaticI13dynamic_arrayIPK31TransferFunctionScriptingTraitsLj4EELb0EE16StaticInitializeEPv
NBi:_LogicalCallContext__ctor_m3173272863
bti:_AnimatorControllerPlayable_IsParameterControlledByCurveString_m4036987523
u9e:_MonoCustomAttrs__cctor_m2608447972
$_e:_Int32_FindSign_m3803672540
VPh:_Enumerator_System_Collections_IEnumerator_Reset_m70453843_AdjustorThunk
T4g:_GUISkin_get_scrollView_m2941173958
AX:__ZNK20LocalFileSystemPosix21GetAvailableDiskSpaceEPKcRy
jaa:__ZNSt3__26__treeIiNS_4lessIiEENS_9allocatorIiEEE7destroyEPNS_11__tree_nodeIiPvEE
bUi:_Predicate_1__ctor_m2995226103_gshared
$af:_MonoType_get_TypeHandle_m3750614457
dGf:_X509Certificate2__ctor_m1095336775
uua:__ZNK9GfxDevice14GetWorldMatrixEv
n$g:_MonoProperty_GetGetMethod_m1100580870
Elh:_Dictionary_2__ctor_m1950568359_gshared
MEj:__ZN15dense_hashtableINSt3__24pairIK10KeyWrapperIPK19Il2CppGenericMethodEP10MethodInfoEES6_N6il2cpp8metadata23Il2CppGenericMethodHashEN14dense_hash_mapIS6_S9_SD_NS6_14EqualsComparerINSC_26Il2CppGenericMethodCompareEEENS0_9allocatorISA_EEE9SelectKeyESH_SJ_E13set_empty_keyERKSA_
jWa:__Z19scripting_array_new17ScriptingClassPtrjj
lN:__ZN11SoundHandle13CreateChannelEb
npb:__ZN14SafeBinaryRead21TransferSTLStyleArrayI13dynamic_arrayI12LightmapDataLj4EEEEvRT_17TransferMetaFlags
Zmf:_ArgumentException__ctor_m3312963299
tgb:__ZN21AssetBundleFileSystem11CreateAsDirER13FileEntryData
GTb:__ZNSt3__26vectorIN9ShaderLab20SerializedSubProgram16TextureParameterENS_9allocatorIS3_EEE6assignIPS3_EENS_9enable_ifIXaasr21__is_forward_iteratorIT_EE5valuesr16is_constructibleIS3_NS_15iterator_traitsISA_E9referenceEEE5valueEvE4typeESA_SA_
$Re:_ReadOnlyCollection_1_get_Item_m1696267180_gshared
BCj:__ZNSt3__26vectorIN6il2cpp2os10ThreadImpl10APCRequestENS_9allocatorIS4_EEE26__swap_out_circular_bufferERNS_14__split_bufferIS4_RS6_EE
RSi:_U3CCreateWhereIteratorU3Ec__Iterator1D_1_MoveNext_m3533253043_gshared
koj:__ZN15dense_hashtableINSt3__24pairIK10KeyWrapperIPK22Il2CppGenericParameterEPK24MonoGenericParameterInfoEES6_N6il2cpp5utils11PointerHashIS4_EEN14dense_hash_mapIS6_SA_SF_NS6_14EqualsComparerINS0_8equal_toIS5_EEEENS0_9allocatorISB_EEE9SelectKeyESK_SM_E15set_deleted_keyERKSB_
xGh:_InternalEnumerator_1_System_Collections_IEnumerator_Reset_m2726857860_AdjustorThunk
vgg:__ZL124GUILayoutUtility_t996096873_CustomAttributesCacheGenerator_GUILayoutUtility_INTERNAL_CALL_Internal_GetWindowRect_m3236664463P21CustomAttributesCache
$If:_X509SubjectKeyIdentifierExtension__ctor_m3887138480
Koe:_Enumerator_System_Collections_IEnumerator_get_Current_m2853089017_AdjustorThunk
TAc:__ZN12b2WheelJoint24SolvePositionConstraintsERK12b2SolverData
Ng:_emscripten_exit_fullscreen
C3d:_InputField_get_mesh_m3276583786
Pwi:_GCHandle_Free_m1639542352_AdjustorThunk
cvf:_Context_set_ClientRandom_m631392719
exi:_OutAttribute__ctor_m1447235100
PBj:__ZN6il2cpp6icalls8mscorlib6System6String19InternalAllocateStrEi
Rvc:__Z29Transfer_Blittable_ArrayFieldI8JSONRead11QuaternionfEvRT_R9ArrayInfoRK23StaticTransferFieldInfo
AWf:__ZL65SoapParameterAttribute_t2780084514_CustomAttributesCacheGeneratorP21CustomAttributesCache
cX:__ZN20LocalFileSystemPosix8SetFlagsER13FileEntryDatajj
Hdc:__Z45Register_UnityEngine_Camera_get_targetDisplayv
T2b:__ZNK24RendererAnimationBinding15GenerateBindingERKN4core12basic_stringIcNS0_20StringStorageDefaultIcEEEEbRN11UnityEngine9Animation14GenericBindingE
rkb:__Z15GetFlareManagerv
PZb:__ZN15ApplicationInfo24GetApplicationIdentifierEv
LRe:_ReadOnlyCollection_1_System_Collections_IList_Contains_m927375828_gshared
Ncb:__ZN9Behaviour8TransferI18StreamedBinaryReadILb0EEEEvRT_
MCi:_Enumerator_System_Collections_IEnumerator_get_Current_m1429268283
iOe:_ReadOnlyCollection_1_System_Collections_Generic_ICollectionU3CTU3E_Clear_m388357963_gshared
POj:___toread
vT:__ZN19CloudServiceHandler10QueueEventEPN11UnityEngine15CloudWebService14CloudEventInfoE
bTj:___cxa_is_pointer_type
eld:_String_Concat_m56707527
vu:__ZN7mecanim9animation16EvaluateAvatarDXEPKNS0_14AvatarConstantEPKNS0_11AvatarInputEPNS0_12AvatarMemoryEPNS0_15AvatarWorkspaceEPNS0_12AvatarOutputE
gEa:__ZN4gles20DestroyRenderSurfaceEP7ApiGLESP17RenderSurfaceGLES
Joe:_Enumerator_System_Collections_IEnumerator_get_Current_m2853089017_gshared
Qjc:__Z34Transform_CUSTOM_SetAsFirstSiblingP12Il2CppObject
ejj:__ZNK15dense_hashtableINSt3__24pairIK10KeyWrapperINS1_IPK14Il2CppAssemblyP11Il2CppClassEEEjEES9_17ReflectionMapHashIS8_EN14dense_hash_mapIS9_jSD_NS9_14EqualsComparerINS0_8equal_toIS8_EEEENS0_9allocatorISB_EEE9SelectKeyESI_SK_E10test_emptyEj
Tqe:_Enumerator_get_Current_m827571811_AdjustorThunk
Seg:__ZL62Font_t4239498691_CustomAttributesCacheGenerator_textureRebuiltP21CustomAttributesCache
Aia:__ZN17PersistentManager40GlobalToLocalSerializedFileIndexInternalERK26SerializedObjectIdentifier
hR:__ZN11UnityEngine15CloudWebService17SessionEventQueue14ParseEventDataERKN4core12basic_stringIcNS2_20StringStorageDefaultIcEEEE
uQd:_BaseEventData_get_selectedObject_m3551206992
Ldf:_SimpleCollator_CompareOrdinal_m2176988387
Jjg:__ZL47Rect_t3681755626_CustomAttributesCacheGeneratorP21CustomAttributesCache
ROd:_CCGregorianCalendar_GetYear_m1289900195
H5h:__Z441RuntimeInvoker_Boolean_t3825574718_Il2CppObject_Il2CppObject_Il2CppObject_ColorU26_t3402129837_Int32_t2071877448_Single_t2076509932_Single_t2076509932_Int32_t2071877448_SByte_t454417549_SByte_t454417549_Int32_t2071877448_Int32_t2071877448_Int32_t2071877448_Int32_t2071877448_SByte_t454417549_Int32_t2071877448_Single_t2076509932_Single_t2076509932_Single_t2076509932_Single_t2076509932_SByte_t454417549_SByte_t454417549_UInt32U26_t2197289955PK10MethodInfoPvPS2_
k$e:_Int16_ToString_m2592645088
_ya:__ZN13TranslateGLES4InitERK12GraphicsCaps16GfxDeviceLevelGL
dRb:__Z29Transfer_Blittable_ArrayFieldI18StreamedBinaryReadILb0EE10ColorRGBAfEvRT_R9ArrayInfoRK23StaticTransferFieldInfo
vAg:_SerializationInfoEnumerator_Reset_m2206466680
Tci:__Z48RuntimeInvoker_Void_t1841601450_Slot_t2267560602PK10MethodInfoPvPS2_
gOa:__ZZ23InitPlayerLoopCallbacksvEN33PostLateUpdateInputEndFramestruct7ForwardEv
D4c:__Z32CustomEventData_CUSTOM_AddUInt32P12Il2CppObjectP12Il2CppStringj
igg:__ZL78Event_t3028476042_CustomAttributesCacheGenerator_Event_get_keyCode_m3364681288P21CustomAttributesCache
XZi:_GenericEqualityComparer_1_Equals_m1934771410_gshared
fRf:__ZL57DebuggingModes_t2073970606_CustomAttributesCacheGeneratorP21CustomAttributesCache
gCb:__ZN24RingBufferMemoryFileDataD0Ev
YIe:_Collection_1_System_Collections_IList_get_IsFixedSize_m993584401_gshared
AAb:__ZNSt3__26vectorIN30RuntimeInitializeOnLoadManager15ClassMethodInfoE13stl_allocatorIS2_L18MemLabelIdentifier12ELi16EEE8__appendEj
F0b:__ZN13ProduceHelperI10TagManagerLb0EE7ProduceE18MemLabelIdentifier18ObjectCreationMode
N0h:__Z84RuntimeInvoker_Il2CppObject_Il2CppObject_Il2CppObject_Il2CppObject_Int32_t2071877448PK10MethodInfoPvPS2_
SMj:__ZN6il2cpp2os6Memory12AlignedAllocEjj
XJh:_InternalEnumerator_1__ctor_m691972083_gshared
zGj:__ZN6il2cpp8metadataL7CompareEPK10Il2CppTypeS3_
UIb:__Z18Transfer_BlittableI17RemapPPtrTransferLb0E11ColorRGBA32EvRK29SerializationCommandArgumentsR31RuntimeSerializationCommandInfo
l7f:__ZL84GameObject_t1756533147_CustomAttributesCacheGenerator_GameObject_get_tag_m1425941094P21CustomAttributesCache
f1g:_GameObject_set_layer_m2712461877
Rqf:_RSAManaged__ctor_m1370411656
HPb:__Z18Transfer_BlittableI18StreamedBinaryReadILb0EELb1E10ColorRGBAfEvRK29SerializationCommandArgumentsR31RuntimeSerializationCommandInfo
snb:__ZN12CubemapArray23VirtualRedirectTransferER17RemapPPtrTransfer
Gac:__ZL27GetComponentsImplementationILb0ELi0EEbR10GameObjectbRK17CompareParametersRK39GetComponentsImplementation_ReturnValue
qEf:_WebHeaderCollection_GetObjectData_m3940120977
LDb:__ZN9Scripting36IsSystemCollectionsGenericDictionaryE17ScriptingClassPtr
Yuh:_Raycast3DCallback_EndInvoke_m3234280377
MFi:_BalancingGroup__ctor_m2474435406
eZd:_ColorTweenCallback__ctor_m3619686788
M4:__ZL16ReadTypeTreeImplILb0EEbR8TypeTreeRK16TypeTreeIteratorRPKhS6_i
Isd:_Byte_System_IConvertible_ToInt32_m1032609763_AdjustorThunk
AWb:__ZN9ShaderLab7ProgramD0Ev
smb:__ZNK22BuiltinResourceManager21GetResourceInstanceIDEPKN5Unity4TypeERKN4core12basic_stringIcNS4_20StringStorageDefaultIcEEEE
Kwa:__ZN9GfxDevice15BeginFrameStatsEv
Sec:__Z42Register_UnityEngine_RectOffset_set_bottomv
Wvd:_ArrayListWrapper_IndexOf_m3574835167
Inc:__Z28GUIStyleState_CUSTOM_CleanupP12Il2CppObject
uWa:__ZN28LightProbeProxyVolumeContext8CopyFromERKS_
Bve:_List_1_Remove_m2660527978_gshared
XWd:_U3COnFinishSubmitU3Ec__Iterator0_System_Collections_Generic_IEnumeratorU3CobjectU3E_get_Current_m1823105495
H2a:__ZN23TransformChangeDispatch32QueueTransformChangeIfHasChangedER18TransformHierarchy
Ned:_SymmetricAlgorithm_get_FeedbackSize_m544664262
m$a:__ZN18DeferredRenderLoop15RenderFinalPassEP13RenderTextureS1_
hEa:__ZN7ApiGLES18DeleteRenderbufferERj
bDa:__ZL23ProgramUniformMatrix4fvPK7ApiGLESjiihPKv
O_f:__ZL67ThreadInterruptedException_t63303933_CustomAttributesCacheGeneratorP21CustomAttributesCache
wKh:_InternalEnumerator_1_MoveNext_m3629145604_gshared
oTb:__ZN9ShaderLab20SerializedSubProgram15MatrixParameter8TransferI14SafeBinaryReadEEvRT_
Y_e:_Int32_Parse_m124693431
Iac:__ZL27GetComponentsImplementationILb0ELi1EEbR10GameObjectbRK17CompareParametersRK39GetComponentsImplementation_ReturnValue
hYc:_Round_Down_To_Grid
zGg:_UTF8Decoder__ctor_m1460357288
tea:__ZN13RenderTexture7ReleaseEv
rvb:__ZN10MeshFilter23VirtualRedirectTransferER14SafeBinaryRead
i$a:__ZN19ShaderPropertySheet26SetTextureWithExplicitSizeEN9ShaderLab16FastPropertyNameE9TextureIDiiff
nCd:_Convert_ToByte_m1201588964
Bvb:__ZN12MeshRenderer17MainThreadCleanupEv
Gcc:__Z36AsyncOperation_Get_Custom_PropIsDoneP12Il2CppObject
SGa:__ZN22CreateGpuProgramOutput12CreateParamsEv
WAg:_RuntimeMethodHandle_GetHashCode_m2682236001_AdjustorThunk
Lxi:_ActivationServices_AllocateUninitializedClassInstance_m3410698501
Phj:__ZNSt3__26vectorIiNS_9allocatorIiEEE21__push_back_slow_pathIiEEvOT_
Qya:__ZNK14GfxContextGLES13GetDefaultFBOEv
O9d:_Array_InternalArray__ICollection_Remove_TisSByte_t454417549_m2474211570_gshared
Kgd:_Evidence_get_IsSynchronized_m1427392003
lba:__ZN14GraphicsHelper5ClearE13GfxClearFlagsRK10ColorRGBAffjR17ShaderPassContext
cgj:_il2cpp_class_is_enum
Mrj:__ZN6il2cpp2vm6Thread49CheckCurrentThreadForInterruptAndThrowIfNecessaryEv
Wme:_GameObject_AddComponent_TisIl2CppObject_m3813873105_gshared
yga:__ZNSt3__23mapIN9ShaderLab16FastPropertyNameEN18UnityPropertySheet11UnityTexEnvENS_4lessIS2_EENS_9allocatorINS_4pairIKS2_S4_EEEEEixERS9_
Fta:__ZNK13TranslateGLES25GetTextureTargetDimensionEj
D4d:_InputField_SetToCustom_m250029371
qhe:_Array_InternalArray__set_Item_TisByte_t3683104436_m1694926640_gshared
BJe:_Collection_1_System_Collections_IList_Contains_m1897568526_gshared
bVg:_FieldBuilder_get_FieldType_m2267463269
dqd:_SimpleEnumerator_Clone_m3032847657
zDi:_PatternCompiler_EmitInfo_m597931026
gof:_ModulusRing_Multiply_m3113924743
hjc:__Z47Texture2D_CUSTOM_INTERNAL_CALL_GetPixelBilinearP12Il2CppObjectffR10ColorRGBAf
Ruf:_Context_get_ServerSettings_m225713600
Mi:_emscripten_glVertexAttrib4f
WUi:_InvokableCall_1_remove_Delegate_m3576859071_gshared
ONe:_ReadOnlyCollection_1_System_Collections_IEnumerable_GetEnumerator_m531171980_gshared
_Vb:__ZNSt3__26vectorIN20GpuProgramParameters14ConstantBufferENS_9allocatorIS2_EEE8__appendEj
Wje:_Array_Sort_TisUILineInfo_t3621277874_m3105833015_gshared
TYb:__Z15tessGetElementsP14TESStesselator
LUa:__ZN11HaloManager21ReleaseGeometryJobMemEP25DynamicVBOGeometryJobData
vse:_List_1_AddEnumerable_m2489692396_gshared
Keg:__ZL93TextGenerator_t647235000_CustomAttributesCacheGenerator_TextGenerator_Dispose_cpp_m1755131202P21CustomAttributesCache
BRi:_WaitForSecondsRealtime__ctor_m1734539010
SGg:_WaitHandle__ctor_m1256161634
Hza:__ZN4gles10SetTextureER15DeviceStateGLESjjj19BuiltinSamplerState
Pwa:__ZN9GfxDevice18SetGlobalDepthBiasEff
IAi:_Identity_get_ChannelSink_m3989446673
rdj:__ZN6il2cpp6icalls8mscorlib6System8MonoType12get_AssemblyEP20Il2CppReflectionType
P$d:_FontData_get_richText_m2013560754
Vhd:_SecurityException_get_PermissionType_m3543350822
Zi:_emscripten_glGetPointerv
hu:__ZN8Animator22ApplyBuiltinRootMotionEv
Kwj:__ZN15dense_hashtableI10KeyWrapperIP18Il2CppGenericClassES3_N6il2cpp8metadata22Il2CppGenericClassHashEN14dense_hash_setIS3_S6_NS3_14EqualsComparerINS5_25Il2CppGenericClassCompareEEENSt3__29allocatorIS3_EEE8IdentityESA_SD_E5clearEv
m1h:__Z74RuntimeInvoker_Boolean_t3825574718_Il2CppObject_IPv6AddressU26_t2456310193PK10MethodInfoPvPS2_
irb:__ZN8Renderer23VirtualRedirectTransferER14SafeBinaryRead
STg:_DerivedType_get_UnderlyingSystemType_m3904230233
DTd:_PointerEventData_get_rawPointerPress_m448871540
Dtg:__ZL76BackgroundController_t3717954812_CustomAttributesCacheGenerator_leftBoundaryP21CustomAttributesCache
SWh:__Z135RuntimeInvoker_IntPtr_t_Il2CppObject_Int32_t2071877448_Int32_t2071877448_Int32_t2071877448_Int32_t2071877448_MonoIOErrorU26_t1029615899PK10MethodInfoPvPS2_
dTa:__Z27ConvertSubMeshesToTrianglesR13dynamic_arrayI7SubMeshLj4EERS_ItLj2EE
Q$i:__ZN6il2cpp2vmL15GetBitmapNoInitEP11Il2CppClassPjRjj
bbb:__ZL13MotionHandleriPK27EmscriptenDeviceMotionEventPv
DHf:_X509Certificate2Collection__ctor_m819526826
Nag:__ZL114PlayableHandle_t1502856514_CustomAttributesCacheGenerator_PlayableHandle_INTERNAL_CALL_IsValidInternal_m2792360706P21CustomAttributesCache
ZH:__ZN12AudioManager5ResetEv
tpf:_KeyBuilder_Key_m3814433741
_mf:_ArgumentException__ctor_m158205422
wce:_Array_compare_TisVector3_t2243707580_m3709184876_gshared
f2d:_HorizontalLayoutGroup_SetLayoutHorizontal_m3237355818
_t:__ZN7mecanim5human14RetargetToTDoFEPKNS0_5HumanEPNS0_9HumanPoseEPNS_8skeleton13SkeletonPoseTIN4math4trsXEEESB_
SDj:__ZN6il2cpp6icalls8mscorlib6System11Environment20GetWindowsFolderPathEi
Brg:__ZL60AspectRatioFitter_t3114550109_CustomAttributesCacheGeneratorP21CustomAttributesCache
zy:__ZN7mecanim5human18HumanPoseBlendNodeERNS0_9HumanPoseEPS1_f
ZTc:_UNITY_FT_RoundFix
hWb:__ZN9ShaderLab20SerializedSubProgram15AddTextureParamEPKcii16TextureDimension
Pr:__ZNK8Animator26GetTypeInfoVirtualInternalEv
tQ:__ZN23CloudWebServicesManager23VirtualRedirectTransferER17RemapPPtrTransfer
YFe:__ZN21InterfaceFuncInvoker1Ib40CustomAttributeTypedArgument_t1498197914E6InvokeEjP11Il2CppClassP12Il2CppObjectS0_
AHi:_Uri_get_Parser_m2250631932
cqi:_Event_GetHashCode_m2214628668
h2i:__ZL24UnresolvedVirtualCall_63P12Il2CppObjectS0_S0_S0_PK10MethodInfo
f0d:_Graphic_set_color_m646149893
Amh:_Dictionary_2_System_Collections_ICollection_get_IsSynchronized_m960517203_gshared
Sga:__ZN14SafeBinaryRead19TransferSTLStyleMapINSt3__23mapIN4core12basic_stringIcNS3_20StringStorageDefaultIcEEEES7_NS1_4lessIS7_EE13stl_allocatorINS1_4pairIKS7_S7_EEL18MemLabelIdentifier1ELi16EEEEEEvRT_17TransferMetaFlags
yLg:_Type_MakeByRefType_m1323101575
X$c:__ZN2UI6Canvas27UpdateEventIndexesRecursiveERi
wx:__ZN7mecanim9animation18EvaluateRootMotionERKNS0_18ClipMuscleConstantERKNS0_15ClipMuscleInputEPKfS8_RNS0_12MotionOutputEb
nR:__ZN11UnityEngine15CloudWebService16SessionContainer21PrepareDataErrorEventERN4core12basic_stringIcNS2_20StringStorageDefaultIcEEEE
_Pc:_UNITY_FT_Outline_New
KEj:__ZNSt3__218uninitialized_copyIPNS_4pairIK10KeyWrapperIPK19Il2CppGenericMethodEP10MethodInfoEESB_EET0_T_SD_SC_
ogg:__ZL85GUI_t4082743951_CustomAttributesCacheGenerator_GUI_set_nextScrollStepTime_m2724006954P21CustomAttributesCache
DMb:__Z19TransferField_ArrayI19StreamedBinaryWriteILb0EE27Converter_SimpleNativeClassI8GUIStyleEEvRK23StaticTransferFieldInfoR31RuntimeSerializationCommandInfoRT0_
g5f:__ZL101AssetBundleRequest_t2674559435_CustomAttributesCacheGenerator_AssetBundleRequest_get_asset_m624603186P21CustomAttributesCache
lW:__ZNK13ScreenManager12GetIsFocusedEv
mrg:__ZL70SpriteState_t1353336012_CustomAttributesCacheGenerator_m_PressedSpriteP21CustomAttributesCache
kxg:_RemotingServices_RegisterInternalChannels_m1827304423
x5g:_GUIStyle_get_onNormal_m1675201777
kr:__ZL32CleanupAnimationScriptingClassesv
obj:__ZNSt3__213__vector_baseIN6il2cpp2os19SocketHandleWrapperENS_9allocatorIS3_EEED2Ev
pgf:_ASN1_get_Length_m3359111015
N4g:_GUISkin_get_verticalScrollbarThumb_m649633186
u7g:_GUIStyleState_Cleanup_m705006206
ic:invoke_viiffi
I7a:__ZN13sorted_vectorINSt3__24pairIN4core12basic_stringIcNS2_20StringStorageDefaultIcEEEEPK17MessageIdentifierEEN10vector_mapIS6_S9_NS0_4lessIS6_EENS0_9allocatorISA_EEE13value_compareESF_E10insert_oneERKSA_
fu:__ZNSt3__227__insertion_sort_incompleteIRPFbPKN8Animator11AnimatorJobES4_EPS4_EEbT0_S9_T_
IHg:_Thread_GetCachedCurrentUICulture_m5590127
pnb:__ZNK12CubemapArray20GetRuntimeMemorySizeEv
KQi:_Vector3_Dot_m3161182818
vyi:_CrossAppDomainSink_get_TargetDomainId_m775204051
dUb:__Z14resize_trimmedINSt3__26vectorIN9ShaderLab18SerializedPropertyENS0_9allocatorIS3_EEEEEvRT_j
W3i:__ZL25UnresolvedVirtualCall_158P12Il2CppObject18Color32_t874517518PK10MethodInfo
_Be:_List_1_CheckMatch_m4018158235_gshared
Lbi:__Z91RuntimeInvoker_Int32_t2071877448_UICharInfo_t3056636800_UICharInfo_t3056636800_Il2CppObjectPK10MethodInfoPvPS2_
mef:_Context_t2636657155_marshal_pinvoke_back
i9i:__ZN6il2cpp2vm13MetadataCache38GetMethodInfoFromMethodDefinitionIndexEi
vsd:_Byte_System_IConvertible_ToDateTime_m1583041031
m2i:__ZL24UnresolvedVirtualCall_68P12Il2CppObjectS0_iS0_S0_S0_S0_S0_S0_PK10MethodInfo
wsb:__ZN10VertexData8TransferI24GenerateTypeTreeTransferEEvRT_
Yfg:__ZL98CanvasRenderer_t261436805_CustomAttributesCacheGenerator_CanvasRenderer_get_absoluteDepth_m4243141P21CustomAttributesCache
pEj:__ZN13Il2CppHashMapIPK19Il2CppGenericMethodP10MethodInfoN6il2cpp8metadata23Il2CppGenericMethodHashENS6_26Il2CppGenericMethodCompareENSt3__29allocatorINS9_4pairIK10KeyWrapperIS2_ES4_EEEEEC2EjRKS7_RKS8_
gkf:_EncryptedData_get_EncryptionAlgorithm_m1301274243
sqh:_EqualityComparer_1_System_Collections_IEqualityComparer_Equals_m1089835085_gshared
z0a:__ZL10CullLightsRK22SceneCullingParametersR11CullResults
l$d:_Dropdown__cctor_m264401557
Vdi:__Z94RuntimeInvoker_Void_t1841601450_Int32U5BU5DU26_t1341332175_Int32_t2071877448_Int32_t2071877448PK10MethodInfoPvPS2_
wpd:_Array_IndexOf_m2819632474
UOh:_Comparer_1__cctor_m3996541505_gshared
cz:__ZN7mecanim12statemachine20GetBlendTreeConstantERKNS0_13StateConstantEi
M5b:__Z40GetTemporaryCachePathApplicationSpecificv
ava:__ZN9GfxDevice16EndAsyncJobFrameEv
n3d:_Image_get_minWidth_m1809071077
vmj:__ZNK15dense_hashtableINSt3__24pairIK10KeyWrapperINS1_IPK12PropertyInfoP11Il2CppClassEEEjEES9_17ReflectionMapHashIS8_EN14dense_hash_mapIS9_jSD_NS9_14EqualsComparerINS0_8equal_toIS8_EEEENS0_9allocatorISB_EEE9SelectKeyESI_SK_E10test_emptyERK30dense_hashtable_const_iteratorISB_S9_SD_SM_SI_SK_E
UQc:_UNITY_tt_face_load_hhea
cCb:__ZN24RingBufferMemoryFileData11SetGrowableEb
Lqi:_PersistentCall__ctor_m2079279187
NBd:_Convert_ToBase64String_m1936815455
Sk:___syscall3
Vk:___syscall6
qwa:__ZN9GfxDevice15GetNextCPUFenceEv
Xk:___syscall4
EKd:_Decimal_ToString_m759431975
sKe:_Collection_1_System_Collections_IList_get_IsFixedSize_m2204750039_gshared
WWd:_ColorBlock_get_fadeDuration_m987725262
Opg:__ZL195U3CMouseDragOutsideRectU3Ec__Iterator1_t2599668326_CustomAttributesCacheGenerator_U3CMouseDragOutsideRectU3Ec__Iterator1_System_Collections_Generic_IEnumeratorU3CobjectU3E_get_Current_m2602955272P21CustomAttributesCache
fyj:__ZN6il2cpp2vm3RCW14QueryInterfaceILb1EEEP14Il2CppIUnknownP15Il2CppComObjectRK10Il2CppGuid
jCg:_CryptographicException__ctor_m2415891459
VFc:__ZNSt3__26__sortIR24RayHitsByDepthComparitorP12RaycastHit2DEEvT0_S5_T_
Uwc:__ZN27PerformanceReportingManager23VirtualRedirectTransferER14SafeBinaryRead
gwe:_List_1_AddCollection_m3266731889_gshared
Tac:__ZN9Scripting25BroadcastScriptingMessageER10GameObjectPKc18ScriptingObjectPtr
kl:_emscripten_glShaderBinary
TGe:_Collection_1_System_Collections_IList_set_Item_m150887383_gshared
Jie:_Array_qsort_TisVector2_t2243707579_TisVector2_t2243707579_m3308480721_gshared
yod:_Array_InternalArray__RemoveAt_m1126483634
Pli:_Camera_INTERNAL_CALL_RaycastTry_m1030092423
pX:__ZNK20LocalFileSystemPosix6ExistsERK13FileEntryData
xHh:_InternalEnumerator_1_Dispose_m4038440306_AdjustorThunk
Lch:_RangeInt_get_end_m913869897
uBf:_DictionaryNodeEnumerator_get_DictionaryNode_m3521889822
Nu:__ZN7mecanim5human19MaskHasLeftFootGoalERKNS_6bitsetILj70EEE
mah:_Mesh_get_colors32_m4153271224
nHc:__ZNK17Physics2DSettings26GetTypeInfoVirtualInternalEv
p3c:__Z58Register_UnityEngine_Canvas_GetETC1SupportedCanvasMaterialv
fch:_Physics2D_INTERNAL_CALL_GetRayIntersectionAll_m161475998
GOb:__ZN17AnimationCurveTplIfE8TransferI18StreamedBinaryReadILb1EEEEvRT_
OId:_DateTimeOffset_GetHashCode_m3312197462_AdjustorThunk
T6c:__ZN18UnityConnectClientD2Ev
YDf:_ServicePoint_set_UseNagleAlgorithm_m2618011464
vfj:_il2cpp_set_data_dir
vHi:_Uri_get_IsUnc_m2111738174
Ihb:__ZN16LevelGameManager23VirtualRedirectTransferER19StreamedBinaryWriteILb0EE
ssb:__Z32TransferEnumWithNameForceIntSizeI14SafeBinaryRead16GfxPrimitiveTypeEvRT_RT0_PKc17TransferMetaFlags
CNh:_DefaultComparer__ctor_m1961329658_gshared
xXg:_ParameterBuilder_get_Attributes_m2421099277
NOi:_TouchScreenKeyboard_get_done_m406461410
RMi:_DataUtility_INTERNAL_CALL_GetPadding_m1621366113
Klj:__ZN15dense_hashtableINSt3__24pairIK10KeyWrapperINS1_IPK11Il2CppImageP11Il2CppClassEEEjEES9_17ReflectionMapHashIS8_EN14dense_hash_mapIS9_jSD_NS9_14EqualsComparerINS0_8equal_toIS8_EEEENS0_9allocatorISB_EEE9SelectKeyESI_SK_E5clearEv
w4i:__ZL25UnresolvedVirtualCall_186P12Il2CppObject20TimeSpan_t3430258949PK10MethodInfo
c6c:__ZN11UnityEngine15PlatformWrapper30GetGraphicsDriverLibraryStringEv
afg:__ZL51UIVertex_t1204258818_CustomAttributesCacheGeneratorP21CustomAttributesCache
_Pi:_Vector2_ToString_m775491729
Iwe:_List_1_get_Count_m1752597149_gshared
Bqf:_EncryptedPrivateKeyInfo_Decode_m1706190306
IPb:__Z18Transfer_BlittableI18StreamedBinaryReadILb0EELb0E4AABBEvRK29SerializationCommandArgumentsR31RuntimeSerializationCommandInfo
VFd:_Convert_ToUInt16_m1665900934
qVe:_Converter_2_BeginInvoke_m898151494_gshared
xYe:_RegionInfo__ctor_m2058831971
b3a:__Z14DrawGUITextureRK5RectTIfEP7Texture11ColorRGBA32P8Materiali
iAh:_Text_get_supportRichText_m3291105891
Reh:_RectTransform_GetParentSize_m1571597933
Ys:__ZN9BlobWrite8TransferI22OffsetPtrArrayTransferIKN4math7_float4EEEEvRT_PKc17TransferMetaFlags
eTe:_ReadOnlyCollection_1_get_Count_m336636247_gshared
xxc:__ZNK11b2EdgeShape7RayCastEP15b2RayCastOutputRK14b2RayCastInputRK11b2Transformi
uTh:__Z52RuntimeInvoker_Decimal_t724701077_Double_t4078015681PK10MethodInfoPvPS2_
JCi:_MatchCollection_GetEnumerator_m3516985966
ntc:__ZN9JSONWrite8TransferI4AABBEEvRT_PKc17TransferMetaFlags
IFg:_UTF7Encoding__ctor_m2365939916
JKa:__ZN25MultiBlocksMemoryFileData9SetLengthEy
_M:__Z30GetAudioSpatializerDefinitionsR13dynamic_arrayIP29AudioEffectInternalDefinitionLj4EE
ANi:_TextGenerationSettings_Equals_m3944651893_AdjustorThunk
bth:_MatEntry__ctor_m3650167335
r8h:__Z143RuntimeInvoker_Void_t1841601450_Il2CppObject_Vector2_t2243707579_Vector2_t2243707579_Color32_t874517518_Vector2_t2243707579_Vector2_t2243707579PK10MethodInfoPvPS2_
BYi:_ListPool_1_U3Cs_ListPoolU3Em__0_m441310157_gshared
XBc:__ZN10Collider2D13AwakeFromLoadE17AwakeFromLoadMode
GAb:__ZNSt3__26vectorIN30RuntimeInitializeOnLoadManager9ClassInfoE13stl_allocatorIS2_L18MemLabelIdentifier12ELi16EEE8__appendEj
Snb:__ZNK9Texture2D20GetRuntimeMemorySizeEv
ELg:_TypeInitializationException__ctor_m2993591639
Xph:_EqualityComparer_1__ctor_m3788663378_gshared
tm:_emscripten_glUniform2iv
WXf:__ZL46DES_t1353513560_CustomAttributesCacheGeneratorP21CustomAttributesCache
x_e:_Int16_System_IConvertible_ToInt64_m733340257
o0f:__ZL79Convert_t2607082565_CustomAttributesCacheGenerator_Convert_ToSingle_m2156102599P21CustomAttributesCache
RMc:_UNITY_FT_Outline_Transform
d5g:_SkinChangedDelegate_BeginInvoke_m4259161711
bjc:__Z60Register_UnityEngine_Sprites_DataUtility_Internal_GetMinSizev
h0i:__ZN6il2cpp2vm5Class10GetMethodsEP11Il2CppClassPPv
pdh:_Rect_get_x_m1393582490_AdjustorThunk
mYa:__Z30AddDefaultStreamsToMeshBuffersR9GfxDeviceR11MeshBuffersRK16DrawBuffersRange17ShaderChannelMaskS6_
HOf:__ZL65Il2CppArray_CustomAttributesCacheGenerator_Array_Sort_m3500510484P21CustomAttributesCache
Ygd:_Hash_GetObjectData_m315532943
jza:__ZN7ApiGLES17DeleteFramebufferERN2gl6HandleILNS0_10ObjectTypeE9EEES3_
Y$i:__ZN13dynamic_arrayIP11Il2CppClassLj4EE7reserveEj
XFa:__ZN15UniformTFMethod13MapBoneBufferEj
Otf:_RecordProtocol_SendAlert_m2816808523
Z_c:__ZN2UI14CanvasRendererD2Ev
$Bi:_MethodCall_get_LogicalCallContext_m3769562079
ksj:__ZN6il2cpp6icalls8mscorlib6System5Array8SetValueEP11Il2CppArrayP12Il2CppObjectS5_
y7e:_SynchronizedReader_Read_m1399666181
PZg:_MonoEvent_get_Name_m2796714646
paa:__Z9SetupArgviPPKc
Ebe:_Array_InternalArray__IEnumerable_GetEnumerator_TisHitInfo_t1761367055_m2486283755_gshared
STd:_PointerEventData_set_worldNormal_m2025727441
Vuf:_Context_get_SentConnectionEnd_m3114190867
Scb:__ZN12ImmediatePtrI10GameObjectE8TransferI19StreamedBinaryWriteILb0EEEEvRT_
tnb:__ZN12CubemapArray23VirtualRedirectTransferER24GenerateTypeTreeTransfer
u1i:__ZL24UnresolvedVirtualCall_22P12Il2CppObjectS0_iS0_S0_S0_PK10MethodInfo
o5:__ZN12FileAccessor4OpenER15FileSystemEntry14FilePermission16FileAutoBehavior
mPe:_ReadOnlyCollection_1__ctor_m2364452928_gshared
iDj:__ZN6il2cpp2os9Directory6CreateERKNSt3__212basic_stringIcNS2_11char_traitsIcEENS2_9allocatorIcEEEEPi
Qha:__ZN4PPtrI6ShaderE8TransferI18StreamedBinaryReadILb0EEEEvRT_
G2a:__ZN23TransformChangeDispatch32QueueTransformChangeIfHasChangedERK15TransformAccess
vTd:_PointerEventData_set_clickTime_m3931922487
h2g:_WindowFunction__ctor_m977095815
xWe:_NumberFormatter_AppendNonNegativeNumber_m629862866
Eia:__ZNSt3__26vectorINS_4pairIN9ShaderLab16FastPropertyNameEN18UnityPropertySheet11UnityTexEnvEEENS_9allocatorIS6_EEE21__push_back_slow_pathIKS6_EEvRT_
XMa:__ZN15ArchiveReadFile5WriteEyPKvPy
Mvi:_ResourceInfo__ctor_m2401359321_AdjustorThunk
aEj:__ZN6il2cpp2os26LibraryNamePrefixAndSuffixC2EPKcS3_
Tyd:_Hashtable__ctor_m392789568
rHg:_Mutex_CreateMutex_internal_m2352956576
JFg:_UTF7Encoding__cctor_m4192443836
ooc:__Z31GUIStyle_CUSTOM_SetFontInternalP12Il2CppObjectS0_
B:tempValue
z9a:__Z29StdTemplateConversionFunctionIaiEbPvR14SafeBinaryRead
B_e:_Int16_System_IConvertible_ToSingle_m3277935657
L_:__Z29scripting_class_from_fullnamePKcS0_S0_
b7f:__ZL97GameObject_t1756533147_CustomAttributesCacheGenerator_GameObject_GetComponentInParent_m1235194528P21CustomAttributesCache
Wuh:_Raycast3DCallback_Invoke_m2271859924
Bz:__ZN26AnimatorControllerPlayable18DeallocateBindingsEv
vN:__ZN11AudioSource19CreateOpenALRolloffEfff
kgg:__ZL83Event_t3028476042_CustomAttributesCacheGenerator_Event_set_displayIndex_m3631666901P21CustomAttributesCache
HRc:_UNITY_FT_Stream_ReadAt
pag:__ZL111Object_t1021602117_CustomAttributesCacheGenerator_Object_DestroyImmediate_m3563317232____allowDestroyingAssets1P21CustomAttributesCache
gpa:__ZN9Texture3D34UpdateFileTextureUploadInstructionEP28FileTextureUploadInstructionj
Z5g:_GUIStyle_get_lineHeight_m2132859383
_bi:__Z102RuntimeInvoker_Int32_t2071877448_Il2CppObject_UIVertex_t1204258818_Int32_t2071877448_Int32_t2071877448PK10MethodInfoPvPS2_
Kbg:__ZL82Physics2D_t2540166467_CustomAttributesCacheGenerator_Physics2D_Raycast_m1220041042P21CustomAttributesCache
fri:_UnityEvent_FindMethod_Impl_m3303953986
JLg:_UInt16_System_IConvertible_ToBoolean_m887616848
x5f:__ZL120ScriptableObject_t1975622470_CustomAttributesCacheGenerator_ScriptableObject_Internal_CreateScriptableObject_m1778903390P21CustomAttributesCache
ZO:__ZN11AudioModule22CreateAudioClipFromWWWEP10IWWWStreamPKcbbi
nRh:__Z142RuntimeInvoker_Boolean_t3825574718_Il2CppObject_Int32_t2071877448_Il2CppObject_SByte_t454417549_UInt32U26_t2197289955_ExceptionU26_t1467204777PK10MethodInfoPvPS2_
tEg:_StringBuilder_set_Length_m3039225444
lKe:_Collection_1_System_Collections_IList_Contains_m3870109702_gshared
Z8d:_Array_InternalArray__ICollection_Contains_TisRaycastResult_t21186376_m3188614988_gshared
EGd:_CultureAwareComparer_GetHashCode_m3681260951
W0c:__Z13RegisterClassIN2UI11CanvasGroupEEvv
eYi:_U3CStartU3Ec__Iterator0__ctor_m951808111_gshared
vf:_emscripten_glClear
dvh:_Selectable__ctor_m1440593935
w3i:__ZL25UnresolvedVirtualCall_132P12Il2CppObject17Color_t2020392075faaaPK10MethodInfo
k5b:__ZNK8Playable6HandleEv
pOf:__ZL65Il2CppArray_CustomAttributesCacheGenerator_Array_Clear_m782967417P21CustomAttributesCache
_Sj:___cxa_guard_abort
iSg:_CustomAttributeTypedArgument_t1498197914_marshal_pinvoke_back
B3:__ZN14MessageHandler28MessageIDToMessageIdentifierEi
NCf:_HttpRequestCreator_Create_m3607509610
Dgg:__ZL50GUISkin_t1436893342_CustomAttributesCacheGeneratorP21CustomAttributesCache
Q2i:__ZL24UnresolvedVirtualCall_98P12Il2CppObject8IntPtr_tPK10MethodInfo
$Ce:_List_1_Shift_m3824049528_gshared
Xxg:_ArrayFixupRecord__ctor_m3659990982
fvf:_Context_get_RandomCS_m3946020109
lNf:__ZL72IntPtr_t_CustomAttributesCacheGenerator_IntPtr_op_Inequality_m3044532593P21CustomAttributesCache
x_d:_Dropdown_get_onValueChanged_m3334401942
cLj:__ZN6il2cpp2vm10WaitHandle19NewManualResetEventEb
FQe:_ReadOnlyCollection_1_System_Collections_IList_Contains_m3707723158_gshared
GPg:_Version_GetHashCode_m880841176
$hi:_CustomEventData_Add_m4160204358
cE:__Z51Register_UnityEngine_Animator_get_hasBoundPlayablesv
gTi:_Nullable_1_ToString_m1238126148_AdjustorThunk
Md:emscriptenWebGLGetUniform
Ao:FUNCTION_TABLE_iiiiiiiiiii
Qpa:__Z32TransferEnumWithNameForceIntSizeI14SafeBinaryRead13TextureFormatEvRT_RT0_PKc17TransferMetaFlags
oqg:__ZL86Scrollbar_t3248359358_CustomAttributesCacheGenerator_Scrollbar_ClickRepeat_m3403943364P21CustomAttributesCache
a2a:__ZL10CleanUpJobP20CullingGroupsJobData
fud:_Char_CompareTo_m3044885427_AdjustorThunk
A3e:_FileStream_GetSecureFileName_m508045384
lYa:__Z20IsRunningNativeTestsv
yJh:_InternalEnumerator_1_System_Collections_IEnumerator_get_Current_m2035754659_AdjustorThunk
qvb:__ZN10MeshFilter23VirtualRedirectTransferER24GenerateTypeTreeTransfer
W2a:__ZN13RenderManager15BatchModeUpdateEv
ITi:_Predicate_1_EndInvoke_m973058386_gshared
s8f:__ZL52LayerMask_t3188175821_CustomAttributesCacheGeneratorP21CustomAttributesCache
UGe:_Collection_1_Add_m3985367602_gshared
stb:__ZN14SafeBinaryRead21TransferSTLStyleArrayI13dynamic_arrayI8Vector2fLj4EEEEvRT_17TransferMetaFlags
zia:__ZN17PersistentManager51InstanceIDToLocalSerializedObjectIdentifierInternalEiR31LocalSerializedObjectIdentifier
$Dc:__ZN10ClipperLib7Clipper15SetWindingCountERNS_5TEdgeE
i0g:_StrongNameKeyPair_System_Runtime_Serialization_IDeserializationCallback_OnDeserialization_m2330221363
LWc:_UNITY_FT_Create_Class_cff_services
ANh:_DefaultComparer__ctor_m1661558765_gshared
pd:_glVertexAttribIPointer
_Og:_UnhandledExceptionEventHandler_EndInvoke_m2207457167
dkh:_Dictionary_2_System_Collections_ICollection_get_IsSynchronized_m304009368_gshared
O9c:_HMAC_set_HashName_m457235014
z8b:__ZNK6Sprite10GetPaddingE20SpriteRenderDataMode
i8d:_Array_InternalArray__ICollection_Contains_TisTableRange_t2011406615_m605506746_gshared
zkh:_Dictionary_2_Add_m1296007576_gshared
Gtg:__ZL76BacteriaController_t268947989_CustomAttributesCacheGenerator_horizontalSpeedP21CustomAttributesCache
DFd:_Decimal_op_Explicit_m729046406
tCg:_CryptoConfig_CreateFromName_m2169102076
F0d:_Graphic_OnEnable_m2900261811
wCg:_CryptographicUnexpectedOperationException__ctor_m3552441227
Kti:_AnimatorControllerPlayable_GetAnimatorClipInfoCountInternal_m826336390
Svd:_ArrayListWrapper_Clear_m321161741
I5d:_InputField_LineDownCharacterPosition_m2690468785
GRc:_UNITY_ft_glyphslot_alloc_bitmap
Uei:__Z56RuntimeInvoker_ContentType_t1028629049_Int32_t2071877448PK10MethodInfoPvPS2_
_je:_Array_Sort_TisVector2_t2243707579_TisVector2_t2243707579_m2582252549_gshared
JNg:_UInt64_System_IConvertible_ToDouble_m2828923873
tWh:__Z45RuntimeInvoker_Il2CppObject_Int16_t4041245914PK10MethodInfoPvPS2_
h7i:__ZN15dense_hashtableI10KeyWrapperIPK17Il2CppGenericInstES4_N6il2cpp8metadata21Il2CppGenericInstHashEN14dense_hash_setIS4_S7_NS4_14EqualsComparerINS6_24Il2CppGenericInstCompareEEENSt3__29allocatorIS4_EEE8IdentityESB_SE_E16reset_thresholdsEv
L$b:__ZZN2UI13RectTransform15InitializeClassEvEN31FunctorImpl_62kTransformChanged4CallEPviR11MessageData
Zxe:_List_1_System_Collections_IList_set_Item_m1129584681_gshared
aTc:_ft_raster1_render
eic:__Z57Register_UnityEngine_RectTransform_INTERNAL_set_anchorMaxv
Tse:_List_1_set_Capacity_m491101164_gshared
KRj:__ZNKSt3__221__basic_string_commonILb1EE20__throw_length_errorEv
REg:_StringBuilder_Insert_m1733097906
P0h:__Z88RuntimeInvoker_Void_t1841601450_Il2CppObject_Int32_t2071877448_Il2CppObject_Il2CppObjectPK10MethodInfoPvPS2_
XOh:_Comparer_1__ctor_m1157133632_gshared
Czf:_SslStreamBase_get_HashStrength_m480059173
jVe:_Comparison_1_EndInvoke_m2678763282_gshared
Xih:_ValueCollection_System_Collections_Generic_ICollectionU3CTValueU3E_Clear_m3271993638_gshared
yBd:_Enumerator_MoveNext_m1419609883
mJ:__ZN4FMOD7Channel19setReverbPropertiesEPK29FMOD_REVERB_CHANNELPROPERTIES
a3:__ZN13MonoBehaviour22GetScriptFullClassNameEv
Ocg:__ZL145AnimatorControllerPlayable_t4078305555_CustomAttributesCacheGenerator_AnimatorControllerPlayable_INTERNAL_CALL_GetLayerWeightInternal_m3829748773P21CustomAttributesCache
xSf:__ZL111DerivedType_t1016359113_CustomAttributesCacheGenerator_DerivedType_MakeGenericType_m742223168____typeArguments0P21CustomAttributesCache
aTe:_ReadOnlyCollection_1_Contains_m1816350632_gshared
XCf:_ServicePointManager_FindServicePoint_m3137356168
Foa:__ZN20SphericalHarmonicsL211AddWeightedERKS_f
iUd:_PointerInputModule_GetPointerData_m1695674453
yJb:__Z19TransferField_ArrayI17RemapPPtrTransfer27Converter_SimpleNativeClassI8GUIStyleEEvRK23StaticTransferFieldInfoR31RuntimeSerializationCommandInfoRT0_
g1:__ZL22StaticInitializeShaderPv
zGd:_Convert_ToUInt64_m345450801
jTi:_Predicate_1_BeginInvoke_m2559992383_gshared
iwj:__ZN6il2cpp2vm3RCW7CleanupEP15Il2CppComObject
yqc:__ZN9JSONWrite8TransferI10ColorRGBAfEEvRT_PKc17TransferMetaFlags
gdi:__Z52RuntimeInvoker_Void_t1841601450_Keyframe_t1449471340PK10MethodInfoPvPS2_
JOe:_ReadOnlyCollection_1_get_Item_m1909688500_gshared
v3:__Z25scripting_method_get_name18ScriptingMethodPtr
nic:__Z35Register_UnityEngine_Resources_Loadv
hIb:__Z19TransferField_ArrayI14SafeBinaryRead16Converter_StringEvRK23StaticTransferFieldInfoR31RuntimeSerializationCommandInfoRT0_
dRj:_rename
bJj:_GC_exit_check
ubf:_NotSupportedException__ctor_m3232764727
lCf:_TypeConverterAttribute_Equals_m2330345916
rhg:__ZL86GUIStyle_t1799908754_CustomAttributesCacheGenerator_GUIStyle_get_alignment_m3513439031P21CustomAttributesCache
_1:__Z20UnlockObjectCreationv
h2h:__Z55RuntimeInvoker_Il2CppObject_RegexOptionsU26_t3063574985PK10MethodInfoPvPS2_
a3e:_MonoIO_CreateDirectory_m379525469
pce:__ZN21InterfaceFuncInvoker2Ii22UILineInfo_t3621277874S0_E6InvokeEjP11Il2CppClassP12Il2CppObjectS0_S0_
Ps:__ZN9BlobWrite8TransferI22OffsetPtrArrayTransferI9OffsetPtrIN7mecanim12statemachine18StateMachineMemoryEEEEEvRT_PKc17TransferMetaFlags
bPc:_UNITY_ft_smooth_renderer_class_pic_free
JAe:_List_1_System_Collections_IList_Remove_m3763718607_gshared
Uki:_Bounds_get_center_m129401026
mf:_emscripten_glStencilOpSeparate
$jd:_String_Concat_m2000667605
lbj:__ZN6il2cpp2os19SocketHandleWrapperC2ERKS1_
yCj:__ZN6il2cpp2os10ThreadImpl12QueueUserAPCEPFvPvES2_
nG:__Z32TransferEnumWithNameForceIntSizeI14SafeBinaryReadN10SampleClip17CompressionFormatEEvRT_RT0_PKc17TransferMetaFlags
K6c:__ZN22BaseUnityConnectClient10QueueEventERN11UnityEngine15CloudWebService17CloudServiceEventEPKcjb
dah:_Mesh_DefaultDimensionForChannel_m153181993
bye:__ZN23InterfaceActionInvoker2IP28UICharInfoU5BU5D_t2749705857iE6InvokeEjP11Il2CppClassP12Il2CppObjectS1_i
l8f:__ZL81Input_t1785128008_CustomAttributesCacheGenerator_Input_get_touchCount_m2050827666P21CustomAttributesCache
led:_SHA384Managed_unpackWord_m2501009050
BYc:_UNITY_FT_Hypot
Lqd:_BitConverter_ToInt64_m1329623425
r0b:__ZN8RendererC2E12RendererType18MemLabelIdentifier18ObjectCreationMode
CZf:__ZL95ASCIIEncoding_t3022927988_CustomAttributesCacheGenerator_ASCIIEncoding_GetByteCount_m1396020051P21CustomAttributesCache
Yfj:_il2cpp_class_is_abstract
_lg:__ZL92PointerEventData_t1599784723_CustomAttributesCacheGenerator_U3CpointerDragU3Ek__BackingFieldP21CustomAttributesCache
Ff:_emscripten_glGetError
$J:__Z14FMOD_FILE_SeekPvjS_
zBi:_MethodCall_get_Properties_m1893707917
INf:__ZL72Enum_t2459695545_CustomAttributesCacheGenerator_Enum_ToObject_m604645223P21CustomAttributesCache
Jgh:_ShimEnumerator_get_Entry_m2387156530_gshared
J4c:__Z56Register_UnityEngine_Analytics_CustomEventData_AddStringv
E3a:__ZNK13RenderTexture32CalculateNeedsInvertedProjectionEv
pbb:__ZN10systeminfo18GetOperatingSystemEv
Nf:emscriptenWebGLGet
aeh:_Rect_GetHashCode_m559954498_AdjustorThunk
u5:__Z19CanReplaceComponentRN5Unity9ComponentEPKNS_4TypeEPN4core12basic_stringIcNS5_20StringStorageDefaultIcEEEE
Y1b:__ZN12CubemapArray11InitTextureEiii13TextureFormatb
Yye:_List_1_GrowIfNeeded_m2433342921_gshared
qac:__Z17GetSceneBuildInfoRKN4core12basic_stringIcNS_20StringStorageDefaultIcEEEEiR14SceneBuildInfo
i4h:__Z36RuntimeInvoker_Matrix4x4_t2933234003PK10MethodInfoPvPS2_
IJa:__ZNK15Lz4Decompressor20DecompressStreamInitEPPv
Hkj:__ZN24dense_hashtable_iteratorINSt3__24pairIK10KeyWrapperIPK10Il2CppTypeEjEES6_N6il2cpp8metadata14Il2CppTypeHashEN14dense_hash_mapIS6_jSB_NS6_14EqualsComparerINSA_26Il2CppTypeEqualityComparerEEENS0_9allocatorIS8_EEE9SelectKeyESF_SH_E30advance_past_empty_and_deletedEv
wGe:_Collection_1_set_Item_m3803272710_gshared
rah:_Mesh_SetUVs_m841280343
__g:_MonoMethodInfo_t3646562144_marshal_pinvoke_cleanup
nGf:_X509Certificate2_get_SignatureAlgorithm_m3069898012
MCf:_HttpRequestCreator__ctor_m2513916021
WE:__Z105Register_UnityEngine_Experimental_Director_AnimatorControllerPlayable_INTERNAL_CALL_GetLayerCountInternalv
H0e:_Int64_System_IConvertible_ToSingle_m1678482180
fZh:__Z54RuntimeInvoker_Il2CppObject_IntPtr_t_Int32_t2071877448PK10MethodInfoPvPS2_
I6g:_GUIStyle_INTERNAL_CALL_Internal_CalcSizeWithConstraints_m1203344891
xt:__ZN7mecanim5human13HumanFixTwistEPKNS0_5HumanEPNS_8skeleton13SkeletonPoseTIN4math4trsXEEES9_iiRKf
WYa:__ZL24AssignProjectorQueuesJobP30AssignProjectorQueuesJobHeader
_Ig:_TimeSpan_get_Hours_m3804628138
O$d:_FontData_set_alignByGeometry_m2819509290
xxj:__ZN14dense_hash_mapI10KeyWrapperIP12Il2CppObjectEN6il2cpp2gc9CachedCCWENS4_5utils11PointerHashIS1_EENS3_14EqualsComparerINSt3__28equal_toIS2_EEEENSB_9allocatorINSB_4pairIKS3_S6_EEEEEC2EjRKS9_RKSE_
SDi:_Regex__ctor_m3250610064
eWb:__ZN9ShaderLab20SerializedSubProgram14SetConstBufferEPKci
cnf:_ArgumentNullException__ctor_m911049464
rZg:_TargetParameterCountException__ctor_m2760108938
hvg:_SoapAttribute_SetReflectionObject_m2774156012
nSi:_Check_Source_m3385315029
lVi:_InvokableCall_4_Find_m1467690987_gshared
LUe:_Comparison_1_Invoke_m345024424_gshared
aVc:_cf2_getStdVW
NRe:_ReadOnlyCollection_1_System_Collections_IList_Insert_m3936197025_gshared
dOd:_EventHandler_BeginInvoke_m3027583606
IV:__Z40DebugStringToFilePostprocessedStacktraceRK21DebugStringToFileData
Zuc:__Z29Transfer_Blittable_ArrayFieldI8JSONReadjEvRT_R9ArrayInfoRK23StaticTransferFieldInfo
aNi:_StateMachineBehaviour_OnStateEnter_m1095276890
Hbh:_Object_GetInstanceID_m1920497914
fAi:_ContextAttribute__ctor_m4006843177
_Ih:_InternalEnumerator_1_get_Current_m314017974_AdjustorThunk
Jui:_AnimatorControllerPlayable_Play_m1337154648
sg:__setLetterbox
I4e:_MemoryStream__ctor_m1043059966
Qia:__ZNSt3__26__treeINS_12__value_typeIN9ShaderLab16FastPropertyNameEfEENS_19__map_value_compareIS3_S4_NS_4lessIS3_EELb1EEENS_9allocatorIS4_EEE12__find_equalIS3_EERPNS_16__tree_node_baseIPvEENS_21__tree_const_iteratorIS4_PNS_11__tree_nodeIS4_SE_EEiEESH_RKT_
XNi:_TextGenerator_Populate_Internal_m1817393161
GQf:__ZL57CollectionBase_t1101587467_CustomAttributesCacheGeneratorP21CustomAttributesCache
Jug:__ZN21InterfaceFuncInvoker3IP12Il2CppObjectP6Type_t28StreamingContext_t1417235061PS1_E6InvokeEjP11Il2CppClassS1_S3_S4_S5_
lub:__ZNSt3__26vectorI17BlendShapeChannelNS_9allocatorIS1_EEE6assignINS_11__wrap_iterIPS1_EEEENS_9enable_ifIXaasr21__is_forward_iteratorIT_EE5valuesr16is_constructibleIS1_NS_15iterator_traitsISA_E9referenceEEE5valueEvE4typeESA_SA_
R6d:_LayoutElement_set_preferredWidth_m3072758716
hWi:_UnityEvent_1_AddListener_m1708363187_gshared
YEf:_AsnEncodedData_ToString_m724151831
l3a:__ZN11TimeManager11GetRealtimeEv
rFe:_Collection_1_System_Collections_IList_get_IsFixedSize_m2408637569_gshared
DGg:_UTF8Encoding_GetByteCount_m1469571127
AIj:_GC_print_block_list
mK:__ZN29AudioEffectInternalDefinitionC2EP26UnityAudioEffectDefinitionb
BZg:_MonoMethodInfo_GetDeclaringType_m4186531677
Hvg:_SoapTypeAttribute_SetReflectionObject_m1566293812
Xnh:_DefaultComparer__ctor_m418731767_gshared
_A:__ZN4PPtrI6AvatarE8TransferI18StreamedBinaryReadILb0EEEEvRT_
b_i:_Enumerator_System_Collections_IEnumerator_Reset_m2573763156_AdjustorThunk
txg:_RemotingServices_CreateClientProxy_m1631035355
nOg:_UInt64_ToString_m2892887310
Ehg:__ZL88GUIStyle_t1799908754_CustomAttributesCacheGenerator_GUIStyle_set_fixedHeight_m1517737608P21CustomAttributesCache
Ljd:_String_System_IConvertible_ToType_m512800076
wEj:__ZN15dense_hashtableINSt3__24pairIK10KeyWrapperIPK19Il2CppGenericMethodEP10MethodInfoEES6_N6il2cpp8metadata23Il2CppGenericMethodHashEN14dense_hash_mapIS6_S9_SD_NS6_14EqualsComparerINSC_26Il2CppGenericMethodCompareEEENS0_9allocatorISA_EEE9SelectKeyESH_SJ_EC2ERKSM_j
pmj:__ZN15dense_hashtableINSt3__24pairIK10KeyWrapperINS1_IPK12PropertyInfoP11Il2CppClassEEEjEES9_17ReflectionMapHashIS8_EN14dense_hash_mapIS9_jSD_NS9_14EqualsComparerINS0_8equal_toIS8_EEEENS0_9allocatorISB_EEE9SelectKeyESI_SK_E5clearEv
wvb:__ZN4PPtrI4MeshE8TransferI14SafeBinaryReadEEvRT_
FBc:__ZN24b2ChainAndCapsuleContact6CreateEP9b2FixtureiS1_iP16b2BlockAllocator
hKa:__Z37ReadDirectoryInfo_UnityWebAndUnityRawR12FileAccessorRKN20ArchiveStorageHeader6HeaderERNS1_13DirectoryInfoE
cbe:_Array_InternalArray__IEnumerable_GetEnumerator_TisInt64_t909078037_m1219751804_gshared
O0:__ZNSt3__26__treeINS_12__value_typeIPKciEENS_19__map_value_compareIS3_S4_15compare_tstringIS3_ELb1EEENS_9allocatorIS4_EEE7destroyEPNS_11__tree_nodeIS4_PvEE
APf:__ZL96RuntimeTypeHandle_t2330101084_CustomAttributesCacheGenerator_RuntimeTypeHandle_Equals_m452760426P21CustomAttributesCache
dnh:_Dictionary_2_ToTValue_m1381983709_gshared
mbf:_MulticastDelegate_KPM_m1592985119
ndh:_RaycastHit2D_get_collider_m2568504212_AdjustorThunk
YMe:_Collection_1_ConvertItem_m3941916604_gshared
VVa:__ZN20DynamicPropertySheet14SetValueQueuedEN9ShaderLab16FastPropertyNameEN19ShaderPropertySheet12PropertyTypeEjNS2_8SetFlagsE
I$c:__ZN2UI6Canvas26MarkAllNestedCanvasesDirtyEv
Wvj:__ZN6il2cpp2vm12ReboxIfBoxedEP14Il2CppIUnknownP11Il2CppClass
Gye:_List_1__ctor_m2766376432_gshared
a8a:__ZN25PathNamePersistentManagerD2Ev
T1:__ZN17PersistentManager48IntegrateObjectAndUnlockIntegrationMutexInternalEi
vSe:_ReadOnlyCollection_1_System_Collections_IList_get_IsReadOnly_m3872065502_gshared
$Sf:__ZL112TypeBuilder_t3308873219_CustomAttributesCacheGenerator_TypeBuilder_MakeGenericType_m4282022646____typeArguments0P21CustomAttributesCache
ihi:__Z89RuntimeInvoker_Il2CppObject_Scene_t1684909666_Scene_t1684909666_Il2CppObject_Il2CppObjectPK10MethodInfoPvPS2_
rp:__ZN6Object12SetHideFlagsENS_9HideFlagsE
OGc:__ZN9b2Fixture11SynchronizeEP12b2BroadPhaseRK11b2TransformS4_
AYj:_emscripten_glGetFramebufferAttachmentParameteriv__wrapper
eRa:__ZN13RendererScene15InitializeUmbraEv
sji:_AnimatorTransitionInfo_IsName_m2561957738_AdjustorThunk
poa:__Z28CalculateGlobalMatrixInverse23TransformAccessReadOnly
ssc:__ZN4PPtrI6ObjectE8TransferI9JSONWriteEEvRT_
Yrj:__ZN6il2cpp2vm6Thread13MemoryBarrierEv
dUd:_PointerEventData_ToString_m1218584363
Ctd:_Char_System_IConvertible_ToChar_m1489061093_AdjustorThunk
RFg:_UTF7Encoding_GetCharCount_m2589913583
blg:__ZL117RenderPipelineManager_t984453155_CustomAttributesCacheGenerator_RenderPipelineManager_set_currentPipeline_m3825706412P21CustomAttributesCache
m$h:__Z91RuntimeInvoker_DateTime_t693205669_Il2CppObject_Il2CppObject_Il2CppObject_Int32_t2071877448PK10MethodInfoPvPS2_
xQa:_UNITY_png_write_sCAL_s
z5e:_MemoryStream_CalculateNewCapacity_m3533542025
Fkg:__ZL66ExcludeFromDocsAttribute_t665825653_CustomAttributesCacheGeneratorP21CustomAttributesCache
sNj:__ZN6il2cpp6icalls8mscorlib6System6Object7GetTypeEP12Il2CppObject
q6i:__ZNK15dense_hashtableINSt3__24pairIK10KeyWrapperIPKcEP11Il2CppClassEES5_N6il2cpp5utils11StringUtils12StringHasherIS4_EEN14dense_hash_mapIS5_S8_SE_NS5_14EqualsComparerINSC_21CaseSensitiveComparerEEENS0_9allocatorIS9_EEE9SelectKeyESI_SK_E5beginEv
Mhg:__ZL88GUIStyle_t1799908754_CustomAttributesCacheGenerator_GUIStyle_GetFontInternal_m3509743324P21CustomAttributesCache
zJg:_TimeSpan_Equals_m4102942751_AdjustorThunk
bdi:__Z59RuntimeInvoker_Void_t1841601450_X509ChainStatus_t4278378721PK10MethodInfoPvPS2_
Wih:_ValueCollection_System_Collections_Generic_ICollectionU3CTValueU3E_Add_m1903672223_gshared
zG:__ZN4FMOD6SoundI7releaseEv
cwb:__ZN14SpriteRenderer13AwakeFromLoadE17AwakeFromLoadMode
EUd:_MouseButtonEventData__ctor_m618518000
XKa:__ZN10MemoryFile9SetLengthEy
zMg:_UInt16_ToString_m2038947049_AdjustorThunk
Toh:_DefaultComparer_Equals_m3143385420_gshared
jAc:__ZNK15b2RevoluteJoint10GetAnchorBEv
tpb:__ZN14SafeBinaryRead21TransferSTLStyleArrayI13dynamic_arrayI7Hash128Lj8EEEEvRT_17TransferMetaFlags
_Db:__Z28scripting_class_is_interface17ScriptingClassPtr
Ih:_glTexStorage2D
TVb:__ZNK9ShaderLab10SubProgram14EnsureCompiledEv
Pzg:_ObjectManager_RecordFixup_m3572285566
fBa:__ZN18AsyncUploadManager22WaitForActiveAsyncReadEv
xRf:__ZL55DaylightTime_t3800227331_CustomAttributesCacheGeneratorP21CustomAttributesCache
vAd:_SortedList_InitTable_m460350503
n3:__Z18BuildScriptClassId17ScriptingClassPtr
SFh:_InternalEnumerator_1_get_Current_m4279678504_AdjustorThunk
Gq:__ZNK16LevelGameManager7GetNameEv
tFe:_Collection_1_System_Collections_IList_get_Item_m2415649949_gshared
A2b:__ZN8Renderer28HandleParentHierarchyChangesEPK23TransformAccessReadOnlyj
pWg:_ILTokenInfo_t149559338_marshal_pinvoke_cleanup
SX:__ZL31DeleteLastPathNameComponentImplRKN4core12basic_stringIcNS_20StringStorageDefaultIcEEEEPKc
i_b:__Z13RegisterClassI18DelayedCallManagerEvv
W6c:__ZN18UnityConnectClient15GetCloudServiceEv
MJb:__Z18Transfer_BlittableI24GenerateTypeTreeTransferLb0EiEvRK29SerializationCommandArgumentsR31RuntimeSerializationCommandInfo
ibj:__ZN6il2cpp2os19SocketHandleWrapperD2Ev
jBc:__ZN15b2CircleContact6CreateEP9b2FixtureiS1_iP16b2BlockAllocator
WDb:__ZL28SerializationCommandGroupForRK31TransferFunctionScriptingTraits17ScriptingClassPtr17ScriptingFieldPtrRK20CoreScriptingClasses
iib:__ZN10TagManager32RegisterDefaultTagsAndLayerMasksEv
tYi:_TweenRunner_1_StopTween_m2135918118_gshared
Ijh:_ValueCollection_get_Count_m4142113966_gshared
Xig:__ZL118AttributeHelperEngine_t958797062_CustomAttributesCacheGenerator_AttributeHelperEngine_GetRequiredComponents_m120894667P21CustomAttributesCache
ifb:__ZN14CachingManager12ReadInfoFileERKN4core12basic_stringIcNS0_20StringStorageDefaultIcEEEEPlPNSt3__26vectorIS4_NS8_9allocatorIS4_EEEE
Bbg:__ZL105RectTransform_t3349966182_CustomAttributesCacheGenerator_RectTransform_INTERNAL_get_sizeDelta_m3975625099P21CustomAttributesCache
R4c:__Z56Register_UnityEngine_Analytics_CustomEventData_AddUInt32v
ovd:_ArrayList_InsertRange_m1478230997
Zya:__ZN4gles8InitCapsEP7ApiGLESP12GraphicsCapsR16GfxDeviceLevelGL
nja:__ZN6prcore14BlitImageFloatERK14ImageReferenceRS0_NS0_8BlitModeE
gqd:_Swapper_EndInvoke_m677693941
Xfb:__ZN21AssetBundleFileSystem4ReadER13FileEntryDatayyPvPy
D9g:_Matrix4x4_Equals_m1321236479_AdjustorThunk
P5f:__ZL99Camera_t189460977_CustomAttributesCacheGenerator_Camera_INTERNAL_CALL_ScreenToWorldPoint_m196899300P21CustomAttributesCache
pi:_glEnable
ahb:__ZNK13Lz4Compressor29CalculateCompressedBufferSizeEj
bcj:__ZN6il2cpp2vm19SocketPollingThreadC2Ev
KTa:__ZNK25CameraStackRenderingState21GetImageEffectTextureEb
QAg:_RuntimeMethodHandle__ctor_m2437574937_AdjustorThunk
abg:__ZL99Transform_t3275118058_CustomAttributesCacheGenerator_Transform_INTERNAL_get_localPosition_m94028171P21CustomAttributesCache
_Lg:_UInt16_System_IConvertible_ToInt64_m2835280558_AdjustorThunk
Cch:_Quaternion_GetHashCode_m2270520528_AdjustorThunk
W4f:__ZL53g_UnityEngine_Assembly_CustomAttributesCacheGeneratorP21CustomAttributesCache
TTi:_Predicate_1_BeginInvoke_m3926587117_gshared
Pzb:__ZNSt3__26vectorI4PPtrI6ObjectE13stl_allocatorIS3_L18MemLabelIdentifier51ELi16EEE6assignINS_11__wrap_iterIPS3_EEEENS_9enable_ifIXaasr21__is_forward_iteratorIT_EE5valuesr16is_constructibleIS3_NS_15iterator_traitsISD_E9referenceEEE5valueEvE4typeESD_SD_
WQg:_AssemblyName_get_Name_m1815759940
Mve:_List_1_get_Item_m1231764300_gshared
UZd:_DefaultControls_CreateToggle_m1568873127
vCe:_List_1__cctor_m1022807427_gshared
uQf:__ZL63KeyNotFoundException_t1722175009_CustomAttributesCacheGeneratorP21CustomAttributesCache
Pmh:_Dictionary_2_InitArrays_m2270022740_gshared
_Bd:_Convert_ToBoolean_m2188088811
E5c:__ZN11UnityEngine7Connect15DeviceInfoEvent16CollectExtraInfoEv
k$h:__Z115RuntimeInvoker_Boolean_t3825574718_Il2CppObject_Int32_t2071877448_Il2CppObject_SByte_t454417549_Int32U26_t455636984PK10MethodInfoPvPS2_
cFg:_UnicodeEncoding_GetChars_m3765282346
v1e:_IntPtr__ctor_m4104029105
eXf:__ZL114BinaryFormatter_t1866979105_CustomAttributesCacheGenerator_BinaryFormatter_get_DefaultSurrogateSelector_m219714691P21CustomAttributesCache
kKh:_InternalEnumerator_1_System_Collections_IEnumerator_get_Current_m771161214_AdjustorThunk
kaf:_MonoType_get_attributes_m1493788675
hRj:_atol
fLj:__ZN6il2cpp6icalls8mscorlib6System10Reflection9FieldInfo25internal_from_handle_typeE12Il2CppIntPtrS5_
bKj:__ZThn8_N6il2cpp2vm13CachedCCWBaseINS0_13ManagedObjectEE6AddRefEv
wEd:_Convert_ToDouble_m4236754739
Hyf:_SslClientStream_get_PrivateKeyCertSelectionDelegate_m3715949545
e$d:_Dropdown_CreateItem_m2702141380
HTe:_ReadOnlyCollection_1_IndexOf_m224962127_gshared
bRf:__ZL48Stack_t1043988394_CustomAttributesCacheGeneratorP21CustomAttributesCache
Eo:FUNCTION_TABLE_viifi
Fo:FUNCTION_TABLE_viiff
MZg:_MonoEvent_GetAddMethod_m4289563120
jPf:__ZL37Type_t_CustomAttributesCacheGeneratorP21CustomAttributesCache
QYc:_UNITY_tt_face_free_hdmx
Zpj:__ZN15dense_hashtableINSt3__24pairIK10KeyWrapperINS1_IP11Il2CppClassjEEES4_EES6_N6il2cpp8metadata14ArrayClassHashEN14dense_hash_mapIS6_S4_SB_NS6_14EqualsComparerINSA_17ArrayClassCompareEEENS0_9allocatorIS8_EEE9SelectKeyESF_SH_E5clearEv
_5i:__ZNSt3__218uninitialized_copyIPNS_4pairIK10KeyWrapperIPK11Il2CppClassEPKcEESB_EET0_T_SD_SC_
xhj:__ZN6il2cpp2vm14TypeNameParser5ParseEb
Kuh:_ReflectionMethodsCache__ctor_m1835220
m_h:__Z51RuntimeInvoker_Int16_t4041245914_Single_t2076509932PK10MethodInfoPvPS2_
BQf:__ZL71SynchronizedArrayListWrapper_t3317806524_CustomAttributesCacheGeneratorP21CustomAttributesCache
d9c:__ZN23UnityPurchasingSettingsC2Ev
KMd:_Double_ToString_m1864290157
ASh:__Z63RuntimeInvoker_Il2CppObject_Int16_t4041245914_Int32_t2071877448PK10MethodInfoPvPS2_
GIh:_InternalEnumerator_1_get_Current_m4154059426_AdjustorThunk
C7:__ZNSt3__26__treeINS_12__value_typeI18VertexChannelsInfo16MeshVertexFormatEENS_19__map_value_compareIS2_S4_NS_4lessIS2_EELb1EEE13stl_allocatorIS4_L18MemLabelIdentifier16ELi16EEE12__find_equalIS2_EERPNS_16__tree_node_baseIPvEENS_21__tree_const_iteratorIS4_PNS_11__tree_nodeIS4_SF_EEiEESI_RKT_
dzj:__ZNK24NamespaceAndNamePairHashclERKNSt3__24pairIPKcS3_EE
ypa:__ZL37stbir__resample_horizontal_downsampleP11stbir__infoiPf
uHe:__ZN21InterfaceFuncInvoker1Ib18Color32_t874517518E6InvokeEjP11Il2CppClassP12Il2CppObjectS0_
Qma:__ZNK5Unity9Component38MarkGameObjectAndComponentDependenciesER27GarbageCollectorThreadState
aY:__ZL16OutOfMemoryErrorjj18MemLabelIdentifieriPKc
HPa:_UNITY_png_write_data
NN:__ZNK7Texture21GetShadowSamplingModeEv
AW:__ZN13ScreenManager21OnWindowRegainedFocusEv
nQb:__Z18Transfer_BlittableI18StreamedBinaryReadILb0EELb1EdEvRK29SerializationCommandArgumentsR31RuntimeSerializationCommandInfo
sMc:__ZN13sorted_vectorIN20TextRenderingPrivate8FontImpl13CharacterInfoENSt3__24lessIS2_EE13stl_allocatorIS2_L18MemLabelIdentifier1ELi16EEE10insert_oneERKS2_
tmi:_WillRenderCanvases_BeginInvoke_m1914028027
rZe:_Guid__ctor_m2599802704
_3e:_FileStream_get_CanRead_m4148920720
w9c:__ZN13RuntimeStaticINSt3__26vectorIPN5physx15PxVehicleWheelsENS0_9allocatorIS4_EEEELb0EE13StaticDestroyEPv
KBa:__ZN4crnd12symbol_codec32decode_receive_static_data_modelERNS_25static_huffman_data_modelE
G$b:__ZN18ScriptingArguments8AddFloatEf
MXe:_GregorianCalendar_set_CalendarType_m2438362222
oZd:_FloatTween_get_targetValue_m2120061648_AdjustorThunk
Ldi:__Z71RuntimeInvoker_Void_t1841601450_Int32_t2071877448_UriScheme_t1876590943PK10MethodInfoPvPS2_
g9d:_Array_InternalArray__ICollection_Contains_TisVector2_t2243707579_m3625698589_gshared
_rc:__Z18Transfer_BlittableI9JSONWriteLb0EaEvRK29SerializationCommandArgumentsR31RuntimeSerializationCommandInfo
JQ:__ZN11UnityEngine15CloudWebService14DataDispatcher34OnSessionContainerArchivedAndReadyERNS0_16SessionContainerE
RCc:__ZN7b2World11CreateJointEPK10b2JointDef
vYe:_NumberFormatInfo_GetFormat_m3247563525
v$f:__ZL77Convert_t2607082565_CustomAttributesCacheGenerator_Convert_ToByte_m2303223565P21CustomAttributesCache
Fsf:_CipherSuiteCollection__ctor_m2154226461
FLb:__Z18Transfer_BlittableI19StreamedBinaryWriteILb0EELb0E8Vector3fEvRK29SerializationCommandArgumentsR31RuntimeSerializationCommandInfo
b2g:_RectOffset__ctor_m2227510254
mSb:__ZN14SafeBinaryRead19TransferSTLStyleMapINSt3__23mapIN4core12basic_stringIcNS3_20StringStorageDefaultIcEEEEiNS1_4lessIS7_EENS1_9allocatorINS1_4pairIKS7_iEEEEEEEEvRT_17TransferMetaFlags
Hlj:__ZN15dense_hashtableINSt3__24pairIK10KeyWrapperINS1_IPK11Il2CppImageP11Il2CppClassEEEjEES9_17ReflectionMapHashIS8_EN14dense_hash_mapIS9_jSD_NS9_14EqualsComparerINS0_8equal_toIS8_EEEENS0_9allocatorISB_EEE9SelectKeyESI_SK_ED2Ev
xQc:_gray_move_to
xDg:_DSAParameters_t1872138834_marshal_pinvoke
_qi:_UnityAction_BeginInvoke_m407736228
sMe:_Collection_1_System_Collections_IEnumerable_GetEnumerator_m4174600764_gshared
nBi:_ConstructionCall_InitDictionary_m4046452035
hBb:__ZN5Cache9URLToPathERKN4core12basic_stringIcNS0_20StringStorageDefaultIcEEEE7Hash128
Bmj:__ZN6il2cpp2vm10Reflection14GetEventObjectEP11Il2CppClassPK9EventInfo
g8h:__Z43RuntimeInvoker_VerticalWrapMode_t3668245347PK10MethodInfoPvPS2_
Ytf:_TlsStream_Write_m2271546135
iac:__Z30RegisterValidateMethodCallbackiPF18ScriptingMethodPtrS_17ScriptingClassPtrP6ObjectEPKc
zY:__ZN20LocalFileSystemPosixD0Ev
HPd:_CultureInfo_ConstructInternalLocaleFromCurrentLocale_m1342751405
G_h:__Z50RuntimeInvoker_UInt16_t986882611_Int16_t4041245914PK10MethodInfoPvPS2_
_fb:__ZN21AssetBundleFileSystem5WriteER13FileEntryDatayPvPy
fEg:_Latin1Encoding_GetString_m3553289597
VRc:_tt_cmap_init
$Ca:__ZL25ProgramUniformMatrix4x2fvPK7ApiGLESjiihPKv
fQh:_Enumerator_get_Current_m1020413567_AdjustorThunk
jte:_List_1_System_Collections_IList_get_IsFixedSize_m1122077912_gshared
fxj:__ZN15dense_hashtableI10KeyWrapperIP18Il2CppGenericClassES3_N6il2cpp8metadata22Il2CppGenericClassHashEN14dense_hash_setIS3_S6_NS3_14EqualsComparerINS5_25Il2CppGenericClassCompareEEENSt3__29allocatorIS3_EEE8IdentityESA_SD_E12maybe_shrinkEv
tei:__Z48RuntimeInvoker_Link_t865133271_Int32_t2071877448PK10MethodInfoPvPS2_
m$b:__ZN9TextAssetC2E18MemLabelIdentifier18ObjectCreationMode
Bpi:_Display_RecreateDisplayList_m3412638488
jmj:__ZN15dense_hashtableINSt3__24pairIK10KeyWrapperINS1_IPK12PropertyInfoP11Il2CppClassEEEjEES9_17ReflectionMapHashIS8_EN14dense_hash_mapIS9_jSD_NS9_14EqualsComparerINS0_8equal_toIS8_EEEENS0_9allocatorISB_EEE9SelectKeyESI_SK_E8min_sizeEjj
Y0f:__ZL79Convert_t2607082565_CustomAttributesCacheGenerator_Convert_ToUInt64_m2215781574P21CustomAttributesCache
Ufi:__Z52RuntimeInvoker_KeyValuePair_2_t38854645_Il2CppObjectPK10MethodInfoPvPS2_
d2j:_emscripten_glCheckFramebufferStatus__wrapper
jrj:__ZNK15dense_hashtableINSt3__24pairIK10KeyWrapperIP11Il2CppClassES4_EES5_N6il2cpp8metadata16SZArrayClassHashEN14dense_hash_mapIS5_S4_SA_NS5_14EqualsComparerINS9_19SZArrayClassCompareEEENS0_9allocatorIS7_EEE9SelectKeyESE_SG_E12test_deletedEj
tuc:__Z18Transfer_BlittableI8JSONReadLb0EdEvRK29SerializationCommandArgumentsR31RuntimeSerializationCommandInfo
zye:_List_1_TrimExcess_m2004514756_gshared
PHg:_Thread_ClrState_m822263449
Zdf:_SimpleCollator_LastIndexOfOrdinalIgnoreCase_m550798345
B6g:_GUIStyle_INTERNAL_CALL_Internal_GetCursorStringIndex_m3074318281
Vm:FUNCTION_TABLE_viiiiiifiii
vua:__ZNK9GfxDevice13GetViewMatrixEv
ana:__ZN17RemapPPtrTransferC2E24TransferInstructionFlagsb
K4:__ZN8TypeTree8BlobReadERPKhS1_ib
YNe:_ReadOnlyCollection_1_System_Collections_IList_get_IsFixedSize_m942145650_gshared
ola:__ZN11prophecysdk4half7convertEi
_ib:__ZN6CameraD0Ev
yff:_ModulusRing_Multiply_m386339435
h9:__ZN31CanvasBatchIntermediateRenderer16StaticInitializeEPv
z1d:_GraphicRaycaster_U3CRaycastU3Em__0_m3971200721
fQe:_ReadOnlyCollection_1_System_Collections_IList_RemoveAt_m3004588099_gshared
cEd:_Decimal_op_Implicit_m4246329390
enf:_ArgumentNullException__ctor_m2252076819
h5a:__ZN10GameObjectC2E18MemLabelIdentifier18ObjectCreationMode
APc:_raccess_guess_apple_double
mBf:_ListDictionary_GetEnumerator_m1511032609
dUg:_TypeBuilder_get_FullName_m1626507516
lzg:_SerializationInfo__ctor_m4016423422
JCa:__ZL18ProgramUniform1uivPK7ApiGLESjiihPKv
g2b:__ZN14Texture2DArray13RebuildMipMapEv
A5i:__ZN13Il2CppHashSetIPK17Il2CppGenericInstN6il2cpp8metadata21Il2CppGenericInstHashENS4_24Il2CppGenericInstCompareENSt3__29allocatorI10KeyWrapperIS2_EEEEC2EjRKS5_RKS6_
iGe:_Collection_1_Clear_m2734620236_gshared
EDj:__ZN6il2cpp2gc16GarbageCollector14RemoveWeakLinkEPPv
fWb:__ZN9ShaderLab20SerializedSubProgram14AddVectorParamEPKcii15ShaderParamTypei
Uue:_List_1_System_Collections_Generic_IEnumerableU3CTU3E_GetEnumerator_m3123730956_gshared
q1c:__ZN2UI14CanvasRenderer12CleanupClassEv
OSe:_ReadOnlyCollection_1_System_Collections_IEnumerable_GetEnumerator_m1734360860_gshared
zoh:_DefaultComparer__ctor_m1052417779_gshared
Rhd:_SystemException__ctor_m2688248668
Yvi:_ResourceSet_ReadResources_m1669023823
kgb:__ZNK17FileSystemHandler6ParentERK13FileEntryDataRN4core12basic_stringIcNS3_20StringStorageDefaultIcEEEE
nlf:_PKCS12_RemoveCertificate_m1590055870
Xrj:__ZN6il2cpp2vm6Thread7SetNameEP12Il2CppThreadP12Il2CppString
bUg:_TypeBuilder_get_DeclaringType_m3236598700
$aa:__ZN13ScreenManager18SetAllowCursorLockEb
xAb:__ZN30RuntimeInitializeOnLoadManager15ClassMethodInfo8TransferI14SafeBinaryReadEEvRT_
WCb:__ZN9TextAsset8TransferI14SafeBinaryReadEEvRT_
Jrg:__ZL73CanvasScaler_t2574720772_CustomAttributesCacheGenerator_m_ScreenMatchModeP21CustomAttributesCache
wP:__ZL22InitializeModule_Audiov
oFc:__ZN16Physics2DManager13DynamicUpdateEv
Bab:__ZN16MemoryFileSystem8IsLockedERK13FileEntryData
WPi:_Vector2_get_Item_m2792130561_AdjustorThunk
tZg:_MonoCMethod_Invoke_m931478014
dwi:_SatelliteContractVersionAttribute__ctor_m2605651717
Yk:_emscripten_glBindRenderbuffer
OUg:_EnumBuilder_HasElementTypeImpl_m1414733955
aoc:__Z32GUIStyle_Set_Custom_PropClippingP12Il2CppObjecti
Pmd:_DecoderExceptionFallbackBuffer_GetNextChar_m1727394816
YIj:_GC_dirty_init
spd:_Array_Copy_m1969461849
Fyg:_MessageFormatter_ReadMethodResponse_m4134629501
Eyj:__ZN6il2cpp2vm5Field14GetValueObjectEP9FieldInfoP12Il2CppObject
L0c:__ZNK2UI6Canvas16GetTargetDisplayEv
fJi:_PKCS12_GetSymmetricAlgorithm_m3196291685
SNd:_Environment_get_OSVersion_m1247315981
$7:__ZN6Object17FindObjectsOfTypeEPKN5Unity4TypeER13dynamic_arrayIPS_Lj4EEb
$5b:__ZNSt3__26vectorINS_4pairIiiEE13stl_allocatorIS2_L18MemLabelIdentifier1ELi16EEE21__push_back_slow_pathIKS2_EEvRT_
hJf:_Capture_get_Length_m1952322390
Dsc:__ZN9JSONWrite8TransferI4PPtrI9Texture2DEEEvRT_PKc17TransferMetaFlags
Yri:_AnimationOffsetPlayable_INTERNAL_CALL_GetRotation_m2705874827
sDb:__ZN13MonoBehaviour17RemoveFromManagerEv
Bjb:__ZN12ImageFilters14AddImageFilterERK11ImageFilter
z1c:__ZL23RegisterModuleICalls_UIv
Srb:__ZL11DecodeValuePPKcS0_
bhh:_ShimEnumerator_MoveNext_m2013866013_gshared
LU:__ZN13MemoryManagerC2Ev
FFa:__ZN12SkinMeshInfo10DeallocateEPS_
oBj:__ZNK6il2cpp5utils11StringUtils21CaseSensitiveComparerclEPKcS4_
vPi:_Transform_SetParent_m1963830867
iNa:__ZN20ArchiveStorageReader28AcquireAndPrefillUnusedBlockEjPNS_11CacheResultE
K$h:__Z78RuntimeInvoker_Il2CppObject_SByte_t454417549_SByte_t454417549_SByte_t454417549PK10MethodInfoPvPS2_
a2b:__Z12NHxRoughnessIA4_tEvP9Texture2DPT_iiii
COi:_Touch_get_phase_m196706494_AdjustorThunk
X2i:__ZL25UnresolvedVirtualCall_105P12Il2CppObjecthPK10MethodInfo
eug:_MethodDictionary_get_SyncRoot_m673971424
z8:__ZN18AsyncUploadManagerD2Ev
VXb:__ZN9Transform5ResetEv
tLb:__Z22TransferField_NonArrayI24GenerateTypeTreeTransfer16Converter_StringEvRK23StaticTransferFieldInfoR31RuntimeSerializationCommandInfoRT0_
MRc:_UNITY_FT_CMap_New
uwb:__ZNK17InstancedPropInfo21RenderSpriteInstancesERK15RenderNodeQueuePK17BatchInstanceDataj17ShaderChannelMask
TCf:_HttpWebRequest_System_Runtime_Serialization_ISerializable_GetObjectData_m3671622902
Saa:__Z17MainLoopKeepalivePv
ysi:_AnimatorControllerPlayable_INTERNAL_CALL_SetBoolString_m1232105510
BCi:_MatchCollection__ctor_m1944681790
yad:_HMACSHA512__ctor_m1667460019
U1a:__Z24ScheduleCullingAllGroupsR8JobFenceRK22SceneCullingParameters4PPtrI6CameraERK13CullingOutputRK13dynamic_arrayIP12CullingGroupLj4EERKS_
cfd:_ToBase64Transform_get_OutputBlockSize_m949275583
VMe:_Collection_1_set_Item_m3254085220_gshared
m1a:__Z14CalcHullBoundsPK8Vector3fPKhhRK5PlaneRK10Matrix4x4fR10MinMaxAABB
Awg:_RealProxy__ctor_m2147093603
hdh:_RaycastHit2D_get_point_m442317739_AdjustorThunk
HEb:__ZN11PreloadData39ShouldIgnoreInGarbageDependencyTrackingEv
zAe:_List_1__ctor_m3511181530_gshared
QVa:__Z19SetupLODFadeKeywordR17ShaderPassContexti
qQe:_ReadOnlyCollection_1_get_Count_m2180604490_gshared
XLb:__Z18Transfer_BlittableI19StreamedBinaryWriteILb0EELb0E5RectTIfEEvRK29SerializationCommandArgumentsR31RuntimeSerializationCommandInfo
JCj:__ZN6il2cpp2os10ThreadImpl22SetNativeThreadCleanupEPFvPvE
YEa:__ZL25CheckCopyTextureArgumentsRK7ApiGLESP11GLESTextureS3_
t8:__ZN13dynamic_arrayI26EnlightenSystemInformationLj8EE6insertEPS0_PKS0_S4_
qRc:_tt_name_entry_ascii_from_utf16
obf:_MulticastNotSupportedException__ctor_m2164514827
ZGd:_DateTime_System_IConvertible_ToChar_m2489529194_AdjustorThunk
_Kb:__Z29Transfer_Blittable_ArrayFieldI24GenerateTypeTreeTransferyEvRT_R9ArrayInfoRK23StaticTransferFieldInfo
EJ:__ZN4FMOD7SystemI9playSoundE17FMOD_CHANNELINDEXPNS_5SoundEbPPNS_7ChannelE
mki:_AttributeHelperEngine_GetRequiredComponents_m120894667
c8f:__ZL77Input_t1785128008_CustomAttributesCacheGenerator_Input_GetAxisRaw_m4133353720P21CustomAttributesCache
UY:__GLOBAL__sub_I_runtime_graphics_mesh2_lump_cpp
Njg:__ZL68PreferBinarySerialization_t2472773525_CustomAttributesCacheGeneratorP21CustomAttributesCache
Geg:__ZL127AnimationOffsetPlayable_t859920217_CustomAttributesCacheGenerator_AnimationOffsetPlayable_INTERNAL_CALL_SetRotation_m2224758383P21CustomAttributesCache
uhj:__ZN6il2cpp2os4File4ReadEPNS0_10FileHandleEPciPi
aI:__ZN12AudioManager23VirtualRedirectTransferER18StreamedBinaryReadILb0EE
Ore:_List_1_Remove_m2616693989_gshared
Ttb:__ZN10VertexData13SwapEndianessEv
uRj:_realloc
Yjc:__Z57Register_UnityEngine_Transform_INTERNAL_get_localRotationv
Xxh:_ScrollRect_SetLayoutVertical_m1225848090
kqg:__ZL60Scrollbar_t3248359358_CustomAttributesCacheGenerator_m_ValueP21CustomAttributesCache
pKg:_Type_get_IsInterface_m3583817465
kAb:__ZN30RuntimeInitializeOnLoadManager23VirtualRedirectTransferER17RemapPPtrTransfer
sVj:dynCall_viif
d_g:_MonoField_get_DeclaringType_m1591666235
oDh:_InternalEnumerator_1__ctor_m2111763266_AdjustorThunk
CLf:_Enumerator_MoveNext_m4234629003
vS:__ZN11UnityEngine15CloudWebService13WWWRestClient21ParseHTTPHeaderStringEN4core12basic_stringIcNS2_20StringStorageDefaultIcEEEERNS0_16WWWRestHeaderMapERjPKc
bWc:_cf2_hint_lock
aJb:__ZL26Transfer_SimpleNativeClassI17RemapPPtrTransfer8GradientLb0EEvRK29SerializationCommandArgumentsR31RuntimeSerializationCommandInfo
v8i:__ZNK15dense_hashtableINSt3__24pairIK10KeyWrapperI13dynamic_arrayIPK10Il2CppTypeLj4EEEPFvvEEES8_N6il2cpp8metadata19Il2CppSignatureHashEN14dense_hash_mapIS8_SB_SF_NS8_14EqualsComparerINSE_22Il2CppSignatureCompareEEENS0_9allocatorISC_EEE9SelectKeyESJ_SL_E10test_emptyEj
khb:__ZNSt3__26vectorIN20ArchiveStorageHeader12StorageBlockE13stl_allocatorIS2_L18MemLabelIdentifier54ELi16EEE21__push_back_slow_pathIKS2_EEvRT_
sdj:__ZN6il2cpp6icalls8mscorlib6System8MonoType14get_attributesEP20Il2CppReflectionType
Jeb:__Z43DestroyWithoutLoadingButDontDestroyFromFilei
laf:_MonoType_GetDefaultConstructor_m925465120
eLg:_Type_IsArrayImpl_m3073208555
NTj:dynCall_viiiiiffi
Obg:__ZL95Physics2D_t2540166467_CustomAttributesCacheGenerator_Physics2D_Raycast_m2303387255____distance2P21CustomAttributesCache
Gc:_emscripten_glBlendFuncSeparate
FVg:_GenericTypeParameterBuilder_IsPrimitiveImpl_m1198748291
v_:__Z20scripting_string_newPKc
vic:__Z43Material_CUSTOM_Internal_CreateWithMaterialP12Il2CppObjectS0_
V2e:_Directory_GetCurrentDirectory_m44486537
eXh:__Z45RuntimeInvoker_RuntimeFieldHandle_t2331729674PK10MethodInfoPvPS2_
lkg:__ZL56UnityEventBase_t828812576_CustomAttributesCacheGeneratorP21CustomAttributesCache
NDe:_Collection_1_System_Collections_ICollection_CopyTo_m1047946700_gshared
Ucj:_BacteriaController__reset_m2062403076
ogi:__Z36RuntimeInvoker_Enumerator_t975728254PK10MethodInfoPvPS2_
lFd:_Convert_ToInt64_m4057339019
dFf:_AsnEncodedData_Default_m4197142414
gF:__Z103Register_UnityEngine_Experimental_Director_AnimatorControllerPlayable_INTERNAL_CALL_ResolveHashInternalv
Iqj:__ZNSt3__218uninitialized_copyIPNS_4pairIK10KeyWrapperIP11Il2CppClassES4_EES8_EET0_T_SA_S9_
bu:__ZNSt3__26__sortIRPFbPKN8Animator11AnimatorJobES4_EPS4_EEvT0_S9_T_
qH:__ZN17AudioCustomFilterD2Ev
Ymc:__ZN11IMGUIModule26SetDeveloperConsoleVisibleEb
aYb:__ZN9Transform16ResetReplacementEv
Fmc:__ZNK8GUIStyle13GetLineHeightEv
dEa:__ZN18GfxFramebufferGLES18ReleaseFramebufferEP17RenderSurfaceBaseP14GfxContextGLES
uzi:_Context_GetDynamicPropertyCollection_m1987747444
qGf:_X509Certificate2_get_Version_m1927399907
Y3b:__ZN13ProduceHelperI6CameraLb0EE7ProduceE18MemLabelIdentifier18ObjectCreationMode
f3d:_Image_RadialCut_m3229543088
MT:__ZN19CloudServiceHandler34HandleSaveFileWebRequestPlayerLoopEv
Vz:__ZN7mecanim21ValueArrayReverseCopyEPKNS_18ValueArrayConstantEPKNS_10ValueArrayES2_PS3_PKi
bH:__Z31GetParentSampleClipFromInstancePN11SoundHandle8InstanceE
M$b:__ZNK28RectTransformPropertyBinding13GetFloatValueERKN11UnityEngine9Animation10BoundCurveE
a4a:__ZN6Camera22StandaloneCustomRenderENS_10RenderFlagEP6ShaderRKN4core12basic_stringIcNS3_20StringStorageDefaultIcEEEEPNS_21PerformRenderFunctionE
NNj:__ZN6il2cpp2os16ThreadLocalValue8GetValueEPPv
N9i:__ZN6il2cpp2vm13MetadataCache14GetGenericInstEPKPK10Il2CppTypej
ded:_SHA384Managed_Initialize_m712692291
jEh:_InternalEnumerator_1__ctor_m2688327768_gshared
Pb:invoke_iiidii
FUf:__ZL60CallingConvention_t3354538265_CustomAttributesCacheGeneratorP21CustomAttributesCache
okc:__Z52Object_CUSTOM_GetOffsetOfInstanceIDInCPlusPlusObjectv
Edg:__ZL124AnimatorControllerPlayable_t4078305555_CustomAttributesCacheGenerator_AnimatorControllerPlayable_PlayInFixedTime_m2966168794P21CustomAttributesCache
dO:__ZN9AudioClip15InitializeClassEv
lp:setThrew
CTh:__Z36RuntimeInvoker_IntPtr_t_Il2CppObjectPK10MethodInfoPvPS2_
U1b:__ZL21BuildEmptyCubeTexturePKci11ColorRGBA3217TextureColorSpace
pSb:__ZN14SafeBinaryRead21TransferSTLStyleArrayINSt3__26vectorIN9ShaderLab20SerializedSubProgramENS1_9allocatorIS4_EEEEEEvRT_17TransferMetaFlags
iVd:_StandaloneInputModule_set_cancelButton_m2642677329
Gtc:__Z15Transfer_StringI8JSONReadLb1EEvRK29SerializationCommandArgumentsR31RuntimeSerializationCommandInfo
Fka:__ZN6prcoreL17RemapGenericFloatI17TexFormatRGBFloat15TexFormatRGHalfEEvPKNS_9InnerInfoE
tXa:__Z25DoForwardShaderRenderLoopR17RenderLoopContextR13dynamic_arrayI16RenderObjectDataLj4EERK11CullResultsbbbN6Camera10RenderFlagE
QQc:_sfnt_load_face
wkf:_PKCS12_GetSymmetricAlgorithm_m1812022677
hGg:_UTF8Encoding_GetByteCount_m2372933408
rzi:_Context_get_NeedsContextSink_m1907794755
HQc:_UNITY_ft_service_list_lookup
spf:_ARC4Managed_GenerateKey_m716135508
VIb:__Z18Transfer_BlittableI17RemapPPtrTransferLb1E11ColorRGBA32EvRK29SerializationCommandArgumentsR31RuntimeSerializationCommandInfo
I4h:__Z57RuntimeInvoker_Il2CppObject_PlayableHandleU26_t3483893774PK10MethodInfoPvPS2_
fmc:__ZN5IMGUI21SelectReceivingWindowER8GUIStateb
hD:__ZNK26AnimatorControllerPlayable17ValidateGoToStateERiS0_
RJh:_InternalEnumerator_1_get_Current_m3179981210_gshared
Tbb:__ZN13BaseAllocator13TryDeallocateEPv
aNb:__Z29Transfer_Blittable_ArrayFieldI19StreamedBinaryWriteILb0EEfEvRT_R9ArrayInfoRK23StaticTransferFieldInfo
cpd:_Array_CreateInstance_m1054139389
a4g:_GUIStyleState_GetGUIStyleState_m2816150617
EEh:_InternalEnumerator_1__ctor_m967618647_AdjustorThunk
jab:__ZN16MemoryFileSystem5WriteER13FileEntryDatayPvPy
t2d:_LayoutGroup_GetAlignmentOnAxis_m1783063916
Mjb:__ZNSt3__26vectorIN12FlareManager10FlareEntryENS_9allocatorIS2_EEE21__push_back_slow_pathIKS2_EEvRT_
FRg:_Default_check_arguments_with_score_m1714931543
wdd:_SHA1_Create_m4086509717
yUh:__Z57RuntimeInvoker_Il2CppObject_RuntimeTypeHandle_t2330101084PK10MethodInfoPvPS2_
zWi:_UnityEvent_1_GetDelegate_m3098147632_gshared
O_g:_MonoMethodInfo_GetMethodInfo_m3298558752
NH:__ZN13AudioListener17RemoveFromManagerEv
Bd:_glAttachShader
i$d:_Dropdown_SetAlpha_m2769981009
VOa:__ZNK6Camera19GetProjectionMatrixEv
vTi:_Predicate_1_BeginInvoke_m1856151290_gshared
ZR:__ZN11UnityEngine15CloudWebService10RestClientINS0_16WWWRestHeaderMapEE6SetUrlERKN4core12basic_stringIcNS4_20StringStorageDefaultIcEEEE
X2h:__Z139RuntimeInvoker_Il2CppObject_Il2CppObject_Int32_t2071877448_SByte_t454417549_SByte_t454417549_SByte_t454417549_SByte_t454417549_Il2CppObjectPK10MethodInfoPvPS2_
KLd:_StackTrace__ctor_m2404985356
V2:__Z38PreallocateObjectFromPersistentManagerib
lHd:_DateTime_System_IConvertible_ToSingle_m3927769066
xLf:_CostDelegate__ctor_m80452417
WY:__GLOBAL__sub_I_runtime_interfaces_lump_cpp
Znb:__ZNK9Texture2D20GetUnscaledTextureIDEv
wFd:_Convert_ToSByte_m883113940
g$j:_glFenceSync__wrapper
mOd:_Exception_get_Message_m173095527
gpg:__ZL53InputField_t1631627530_CustomAttributesCacheGeneratorP21CustomAttributesCache
NWd:_ButtonClickedEvent__ctor_m938038541
cRb:__ZN18StreamedBinaryReadILb0EE21TransferSTLStyleArrayI13dynamic_arrayI4AABBLj4EEEEvRT_17TransferMetaFlags
ULg:_UInt16_System_IConvertible_ToDouble_m4100549304_AdjustorThunk
NWh:__Z116RuntimeInvoker_Il2CppObject_Il2CppObject_Il2CppObject_Int32_t2071877448_Int32_t2071877448_MonoIOErrorU26_t1029615899PK10MethodInfoPvPS2_
Ona:__Z29ClearRepeatingLogMessageStatev
plc:__ZN13TextRendering17TextMeshGenerator13GetTextOffsetERK5RectTIfE
I_i:_HashSet_1_OnDeserialization_m1222146673_gshared
Jid:_Single_System_IConvertible_ToInt16_m962677079
N7:__ZN21EnlightenSceneMappingaSERKS_
yLe:_Collection_1_SetItem_m546457615_gshared
fOj:__ZNK6il2cpp8metadata21Il2CppGenericInstHashclEPK17Il2CppGenericInst
Xid:_Single_System_IConvertible_ToUInt32_m2447833283
JRe:_ReadOnlyCollection_1_System_Collections_IList_Add_m3806843030_gshared
YIa:__ZN7ApiGLESD2Ev
S5a:__ZN9Transform47ClearTransformHierarchyAndApplyToSerializedDataEv
mIh:_InternalEnumerator_1_get_Current_m4083613828_AdjustorThunk
Ebd:_RijndaelManaged_GenerateKey_m3366247933
B2e:_BinaryReader_ReadUInt64_m1893783375
jli:_Bounds_op_Equality_m2161830280
g8a:__ZN17PersistentManager9AddStreamEv
KVj:dynCall_fidi
Gjj:__ZN15dense_hashtableINSt3__24pairIK10KeyWrapperINS1_IPK9FieldInfoP11Il2CppClassEEEjEES9_17ReflectionMapHashIS8_EN14dense_hash_mapIS9_jSD_NS9_14EqualsComparerINS0_8equal_toIS8_EEEENS0_9allocatorISB_EEE9SelectKeyESI_SK_E12resize_deltaEjj
$oc:__Z47Register_UnityEngine_GUIStyle_set_imagePositionv
Coc:__Z49GUIStyle_CUSTOM_INTERNAL_CALL_Internal_DrawCursor13Il2Cpp_IntPtrRK5RectTIfEP12Il2CppObjectiRK10ColorRGBAf
xwh:_ScrollRect_set_movementType_m3292965850
n$f:__ZL59AttributeTargets_t1984597432_CustomAttributesCacheGeneratorP21CustomAttributesCache
peh:_RectTransform_set_anchorMin_m4247668187
OS:__ZN11UnityEngine15CloudWebService14RestDownloaderD2Ev
V8a:__Z29StdTemplateConversionFunctionIjhEbPvR14SafeBinaryRead
Ckb:__ZN22RenderingCommandBufferC2ERKS_
N3i:__ZL25UnresolvedVirtualCall_149P12Il2CppObject23SpriteState_t1353336012S1_PK10MethodInfo
wre:_List_1_GrowIfNeeded_m2986672263_gshared
MCh:_ArrayReadOnlyList_1_Remove_m2325516426_gshared
ezd:_Hashtable_get_Count_m830088216
gbc:__ZNK13MonoBehaviour13GetScriptTypeEv
Qca:__ZN13RenderTexture12SetDimensionE16TextureDimension
ULi:_ScriptableObject_CreateInstance_m3921674852
qe:_SDL_FreeRW
Nif:_PKCS1_OS2IP_m1273945439
Fdd:_SHA1Internal_FillBuff_m891541953
E2f:__ZL62ResolveEventHandler_t3842432458_CustomAttributesCacheGeneratorP21CustomAttributesCache
b2c:__Z34CanvasRenderer_Get_Custom_PropCullP12Il2CppObject
oCh:_ArrayReadOnlyList_1_get_IsReadOnly_m2717922212_gshared
rN:__ZN20SoundChannelInstance8getDelayE14FMOD_DELAYTYPEPjS1_
Ifb:__ZN21AssetBundleFileSystemC2EPKc
q4h:__Z113RuntimeInvoker_Int32_t2071877448_Vector2_t2243707579_Vector2_t2243707579_ContactFilter2D_t1672660996_Il2CppObjectPK10MethodInfoPvPS2_
aUh:__Z61RuntimeInvoker_Void_t1841601450_Il2CppObject_Int64_t909078037PK10MethodInfoPvPS2_
k4d:_InputField_set_customCaretColor_m3534590098
Hwh:_ScrollRect_set_viewport_m323693490
F1:__ZN10UnitySceneD0Ev
TWe:_NumberFormatter_FormatExponential_m3975285307
zLc:__ZNSt3__26vectorIN20TextRenderingPrivate8FontImpl13CharacterInfoE13stl_allocatorIS3_L18MemLabelIdentifier1ELi16EEE8__appendEj
v:tempBigInt
ye:_emscripten_glVertexAttrib1fv
QSb:__ZNSt3__26vectorIN9ShaderLab20SerializedSubProgram12UAVParameterENS_9allocatorIS3_EEE7reserveEj
oii:_AnimationCurve_Init_m1486386337
foi:_Component_GetComponents_m3712441745
Uog:__ZL79GraphicRaycaster_t410733016_CustomAttributesCacheGenerator_U3CU3Ef__amU24cache0P21CustomAttributesCache
W4d:_InputField_get_selectionAnchorPosition_m466595604
M_f:__ZL99Thread_t241561612_CustomAttributesCacheGenerator_Thread_t241561612____ExecutionContext_PropertyInfoP21CustomAttributesCache
Vmd:_DecoderReplacementFallback_get_DefaultString_m3399348550
dWi:_UnityAction_4_Invoke_m3312096275_gshared
Usg:__ZL111LayoutUtility_t4076838048_CustomAttributesCacheGenerator_LayoutUtility_U3CGetPreferredHeightU3Em__5_m1524880643P21CustomAttributesCache
Iei:__Z57RuntimeInvoker_ResourceInfo_t3933049236_Int32_t2071877448PK10MethodInfoPvPS2_
mlj:__ZN24dense_hashtable_iteratorINSt3__24pairIK10KeyWrapperINS1_IPK10MethodInfoP11Il2CppClassEEEjEES9_17ReflectionMapHashIS8_EN14dense_hash_mapIS9_jSD_NS9_14EqualsComparerINS0_8equal_toIS8_EEEENS0_9allocatorISB_EEE9SelectKeyESI_SK_E30advance_past_empty_and_deletedEv
Weh:_RectTransformUtility_ScreenPointToRay_m1842507230
n3a:__ZN16ReflectionProbes16UpdateSampleDataEv
fUh:__Z71RuntimeInvoker_Int32_t2071877448_Il2CppObject_Il2CppObject_Il2CppObjectPK10MethodInfoPvPS2_
ZEb:__ZN14SafeBinaryRead21TransferSTLStyleArrayI10vector_setI4PPtrI10MonoScriptENSt3__24lessIS4_EE13stl_allocatorIS4_L18MemLabelIdentifier76ELi16EEEEEvRT_17TransferMetaFlags
dYh:__Z103RuntimeInvoker_Il2CppObject_Il2CppObject_StreamingContext_t1417235061_ISurrogateSelectorU26_t2635255864PK10MethodInfoPvPS2_
oxi:_SafeHandle_Finalize_m1839546519
Vsb:__ZN14Texture2DArray5ResetEv
evc:__ZN8JSONRead21TransferSTLStyleArrayINSt3__26vectorI10RectOffset13stl_allocatorIS3_L18MemLabelIdentifier1ELi16EEEEEEvRT_S5_17TransferMetaFlags
fMh:_InternalEnumerator_1_MoveNext_m252820768_AdjustorThunk
aAi:_Context_AllocateNamedDataSlot_m3200404053
Iqa:__ZN14BatchAllocator6CommitE18MemLabelIdentifier
oFf:_X509EnhancedKeyUsageExtension_Decode_m3866320499
PWe:_NumberFormatter_AppendIntegerStringWithGroupSeparator_m1401773574
jBe:_List_1_Remove_m1237648310_gshared
Urf:_CipherSuite_get_ServerHMAC_m3566778727
hRf:__ZL64DebuggerBrowsableState_t944457511_CustomAttributesCacheGeneratorP21CustomAttributesCache
Ve:_JS_Sound_Play
u3d:_Image_IsRaycastLocationValid_m864962354
SRb:__ZN9ShaderLab16SerializedShader8TransferI14SafeBinaryReadEEvRT_
gra:__ZN5Mutex7TryLockEv
mTh:__Z51RuntimeInvoker_Int16_t4041245914_Decimal_t724701077PK10MethodInfoPvPS2_
zt:__ZN7mecanim8skeleton13SkeletonAlignEPKNS0_8SkeletonERKN4math7_float4ES7_i
L2b:__ZN19ShaderPropertySheet16SetVectorIndexedEN9ShaderLab16FastPropertyNameEifRK8Vector4fNS_8SetFlagsE
zq:__ZN14SafeBinaryRead21TransferSTLStyleArrayIN4core12basic_stringIcNS1_20StringStorageDefaultIcEEEEEEvRT_17TransferMetaFlags
Wwg:_RemotingConfiguration_RegisterWellKnownServiceType_m2491506630
F7f:__ZL89Screen_t786852042_CustomAttributesCacheGenerator_Screen_t786852042____height_PropertyInfoP21CustomAttributesCache
zVf:__ZL55_TypeBuilder_t2783404358_CustomAttributesCacheGeneratorP21CustomAttributesCache
O4i:__ZL25UnresolvedVirtualCall_204P12Il2CppObjectPK10MethodInfo
x9a:__Z29StdTemplateConversionFunctionIayEbPvR14SafeBinaryRead
Wue:_List_1_System_Collections_IEnumerable_GetEnumerator_m2923618987_gshared
Twe:_List_1_System_Collections_IList_IndexOf_m4061554721_gshared
sT:__ZN11UnityEngine15CloudWebService14DataDispatcher4StopEv
SSb:__ZNSt3__26vectorIN9ShaderLab20SerializedSubProgram12UAVParameterENS_9allocatorIS3_EEE8__appendEj
mGe:_Collection_1_GetEnumerator_m434271983_gshared
fnj:__ZNK15dense_hashtableINSt3__24pairIK10KeyWrapperINS1_IPK9EventInfoP11Il2CppClassEEEjEES9_17ReflectionMapHashIS8_EN14dense_hash_mapIS9_jSD_NS9_14EqualsComparerINS0_8equal_toIS8_EEEENS0_9allocatorISB_EEE9SelectKeyESI_SK_E12test_deletedERK24dense_hashtable_iteratorISB_S9_SD_SM_SI_SK_E
Nfd:_X509Certificate_ToString_m1582581274
xih:_Enumerator_get_Current_m2986380627_gshared
ofa:__ZN17ScriptingGCHandle7AcquireE18ScriptingObjectPtr25ScriptingGCHandleWeakness
bzi:_LifetimeServices_set_LeaseTime_m1487876644
RSg:_ConstructorBuilder_not_supported_m3687319507
gPf:__ZL48IList_t3321498491_CustomAttributesCacheGeneratorP21CustomAttributesCache
Oid:_Single_System_IConvertible_ToInt64_m3555853323_AdjustorThunk
eNh:_InternalEnumerator_1__ctor_m3901400705_AdjustorThunk
BUj:dynCall_iifiii
t7h:__Z48RuntimeInvoker_PersistentListenerMode_t857969000PK10MethodInfoPvPS2_
YXh:__Z87RuntimeInvoker_Il2CppObject_Il2CppObject_Il2CppObject_Il2CppObject_StringU26_t638738783PK10MethodInfoPvPS2_
npa:__Z21HasAlphaTextureFormat13TextureFormat
IO:__ZN12AudioManager6UpdateEv
lpa:__ZN14ImageReference9BlitImageERKS_NS_8BlitModeE
D_g:_MonoMethod_get_MethodHandle_m1882915015
Xr:__ZN8Animator12AddToManagerEv
CTf:__ZL93ConstructorInfo_t2851816542_CustomAttributesCacheGenerator_ConstructorInfo_Invoke_m2144827141P21CustomAttributesCache
qEb:__ZN23CachedSerializationDataD2Ev
O2a:__ZNK25CameraStackRenderingState31CalculateStereoCameraTargetTypeEv
cmb:__ZN14RenderSettings23VirtualRedirectTransferER14SafeBinaryRead
Vxc:__ZNK13b2CircleShape5CloneEP16b2BlockAllocator
GCj:__ZN6il2cpp2os10ThreadImpl15CurrentThreadIdEv
eLe:_Collection_1_System_Collections_IList_get_IsReadOnly_m4005091053_gshared
X8d:_Array_InternalArray__ICollection_Contains_TisColor32_t874517518_m2818328910_gshared
Zkb:__ZN17GlobalGameManager8TransferI17RemapPPtrTransferEEvRT_
Nmf:_AppDomainInitializer_EndInvoke_m4003801172
W4i:__ZL25UnresolvedVirtualCall_212P12Il2CppObjecti38CustomAttributeNamedArgument_t94157543PK10MethodInfo
gdh:_RaycastHit2D_get_point_m442317739
$$h:__Z72RuntimeInvoker_Il2CppObject_Il2CppObject_Decimal_t724701077_Il2CppObjectPK10MethodInfoPvPS2_
Qlb:__ZN16LevelGameManager8TransferI18StreamedBinaryReadILb0EEEEvRT_
VYc:_UNITY_tt_face_load_fpgm
lxb:__ZN12InputManagerD0Ev
fMj:__ZN6il2cpp6icalls8mscorlib6System11Diagnostics10StackTrace9get_traceEP15Il2CppExceptionib
cYe:_NumberFormatInfo_set_NumberNegativePattern_m1050626150
x8i:__ZN15dense_hashtableINSt3__24pairIK10KeyWrapperI13dynamic_arrayIPK10Il2CppTypeLj4EEEPFvvEEES8_N6il2cpp8metadata19Il2CppSignatureHashEN14dense_hash_mapIS8_SB_SF_NS8_14EqualsComparerINSE_22Il2CppSignatureCompareEEENS0_9allocatorISC_EEE9SelectKeyESJ_SL_E8min_sizeEjj
o8h:__Z37RuntimeInvoker_FillMethod_t1640962579PK10MethodInfoPvPS2_
N5g:_GUIStyle_get_overflow_m1125058093
Nui:_AnimatorControllerPlayable_Play_m4092315465
Koa:__ZNK16LightmapSettings14GetLightProbesEv
Ewh:_ScrollRect_get_scrollSensitivity_m1160815603
YEg:_UnicodeEncoding_GetBytes_m1337660232
PPb:__Z18Transfer_BlittableI18StreamedBinaryReadILb0EELb1EtEvRK29SerializationCommandArgumentsR31RuntimeSerializationCommandInfo
zRj:_posix_memalign
$2b:__ZN13ProduceHelperI12MeshRendererLb0EE7ProduceE18MemLabelIdentifier18ObjectCreationMode
nDe:_List_1_get_Count_m1249351212_gshared
cNh:_InternalEnumerator_1_get_Current_m747506907_AdjustorThunk
vli:_Camera_get_eventMask_m4241372419
E3g:_GUILayoutUtility_LayoutFromEditorWindow_m1847418289
Fyf:_SslClientStream_get_ClientCertSelectionDelegate_m2316959461
Pwd:_SynchronizedArrayListWrapper_get_SyncRoot_m1466044127
Y2:__ZNK15MonoScriptCache7ReleaseEv
T$i:__ZN6il2cpp2vm5Class13HasReferencesEP11Il2CppClass
ig:_glBindTexture
jGe:_Collection_1_ClearItems_m3585785594_gshared
OPj:_snprintf
_rg:__ZL84HorizontalOrVerticalLayoutGroup_t1968298610_CustomAttributesCacheGenerator_m_SpacingP21CustomAttributesCache
lRg:_Binder__ctor_m1361613966
T4d:_InputField_set_caretPosition_m888572237
gWg:_ILGenerator__cctor_m3943061018
ewd:_ArrayListWrapper_Clone_m1506311066
hqi:_Event_get_character_m3740896233
Cma:__Z36scripting_liveness_calculation_begin17ScriptingClassPtriPFvPP12Il2CppObjectiPvES3_PFvvES7_
hsf:_CipherSuite_set_Context_m4127897124
TGa:__ZN16UniformCacheGLES6CreateERK20GpuProgramParameters
qGg:_UTF8Encoding_Fallback_m811555654
aOg:_UInt64_CompareTo_m3513742483
RLi:_ScriptableObject_t1975622470_marshal_pinvoke_cleanup
Vnd:_Encoding_GetString_m1894033578
EQe:_ReadOnlyCollection_1_System_Collections_IList_Clear_m1918003010_gshared
_Si:_Nullable_1_Equals_m3860982732_gshared
yYj:_emscripten_glGetProgramInfoLog__wrapper
Weg:__ZL94Font_t4239498691_CustomAttributesCacheGenerator_Font_InvokeTextureRebuilt_Internal_m2007522718P21CustomAttributesCache
uGg:_UTF8Encoding_InternalGetChars_m373801468
I5:__ZN17PersistentManager23DestroyFromFileInternalEi
Dag:__ZL98Object_t1021602117_CustomAttributesCacheGenerator_Object_DoesObjectWithInstanceIDExist_m2570795274P21CustomAttributesCache
_Li:_ScrollViewState__ctor_m535685782
KNd:_Enum_ToString_m2112979707
KNi:_TextGenerator_ValidatedSettings_m1640214759
ZWf:__ZL55SoapServices_t3397513225_CustomAttributesCacheGeneratorP21CustomAttributesCache
tug:_MonoMethodMessage_get_MethodName_m3580519713
tv:__ZN26AnimatorControllerPlayable18PrepareForPlaybackERN7mecanim6memory9AllocatorE
TMd:_Enum_t2459695545_marshal_pinvoke_cleanup
lGg:_UTF8Encoding_GetBytes_m4170182058
vne:_Mesh_GetAllocArrayFromChannel_TisColor32_t874517518_m2030100417_gshared
gga:__ZN22CreateGpuProgramOutputC2Ev
_Hf:_X509Chain__ctor_m2242540866
U0g:_Object__ctor_m197157284
D9f:__ZL99SortingLayer_t221838959_CustomAttributesCacheGenerator_SortingLayer_GetLayerValueFromID_m4029056996P21CustomAttributesCache
l5e:_MemoryStream_InternalConstructor_m2423667240
_Fi:_CapturingGroup_set_Index_m2175936006
xQh:__Z70RuntimeInvoker_Il2CppObject_Il2CppObject_Il2CppObject_SByte_t454417549PK10MethodInfoPvPS2_
pvg:_SoapMethodAttribute_SetReflectionObject_m3431595769
hzh:_Slider_set_maxValue_m2951480075
E3b:__ZN8GUILayer12CleanupClassEv
f6d:_InputField_OnSubmit_m2856515494
S$i:__ZN6il2cpp2vm5Class4InitEP11Il2CppClass
ha:invoke_vidi
iQi:_Vector2_op_Subtraction_m1984215297
Ckf:_DeriveBytes_Adjust_m105515328
i0c:__ZN2UI14CanvasRenderer17SyncDirtyElementsER8JobFence
MPb:__Z18Transfer_BlittableI18StreamedBinaryReadILb0EELb0ExEvRK29SerializationCommandArgumentsR31RuntimeSerializationCommandInfo
xYd:_ColorBlock_op_Inequality_m1517672458
lBj:__ZN6il2cpp5utils11StringUtils15StringDuplicateEPKc
Z4a:__Z15CanAddComponentR10GameObjectPKN5Unity4TypeE
Bfa:__ZNK9ShaderLab21ShaderRasterStateDesc16ToGfxRasterStateEPK19ShaderPropertySheetS3_R14GfxRasterState
yV:_tlsf_memalign
ECg:_CspParameters__ctor_m2480441577
WNj:__ZN6il2cpp2os9EventImplC2Ebb
Dzi:_DynamicPropertyCollection_NotifyMessage_m840388347
iHi:_Uri_ParseUri_m5711497
tB:__ZN4PPtrI13MonoBehaviourE8TransferI19StreamedBinaryWriteILb0EEEEvRT_
Zcb:__ZNK5Unity9Component26GetTypeInfoVirtualInternalEv
M$:__Z20IsMatrixBuiltinParamPKcPi
lHe:_Collection_1_CheckWritable_m2467777750_gshared
Ypg:__ZL108MaskableGraphic_t540192618_CustomAttributesCacheGenerator_MaskableGraphic_ParentMaskStateChanged_m3643747340P21CustomAttributesCache
blj:__ZN15dense_hashtableINSt3__24pairIK10KeyWrapperINS1_IPK10MethodInfoP11Il2CppClassEEEjEES9_17ReflectionMapHashIS8_EN14dense_hash_mapIS9_jSD_NS9_14EqualsComparerINS0_8equal_toIS8_EEEENS0_9allocatorISB_EEE9SelectKeyESI_SK_E16reset_thresholdsEv
t2b:__ZN8Renderer19PostInitializeClassEv
nOc:__ZN20TextRenderingPrivate15DynamicFontDataD2Ev
GDh:_InternalEnumerator_1_get_Current_m1943362081_AdjustorThunk
OQi:_Vector3_get_sqrMagnitude_m1814096310_AdjustorThunk
uKj:__ZN6il2cpp6icalls8mscorlib6System8Delegate23CreateDelegate_internalEP20Il2CppReflectionTypeP12Il2CppObjectP22Il2CppReflectionMethodb
zRg:_Default_check_type_m2363631305
DDb:__ZN18DelayedCallManager18CancelCallDelayed2E4PPtrI6ObjectEPF15CallObjectStatePS1_PvES7_
Nwe:_List_1__cctor_m911493842_gshared
mti:_AnimatorControllerPlayable_INTERNAL_CALL_GetLayerIndexInternal_m1847150746
Ybb:__ZN25ThreadsafeLinearAllocator10ReallocateEPvji
BFb:__Z18Transfer_BlittableI14SafeBinaryReadLb1E11QuaternionfEvRK29SerializationCommandArgumentsR31RuntimeSerializationCommandInfo
Rde:_Array_InternalArray__IndexOf_TisRaycastHit2D_t4063908774_m3739817942_gshared
m$g:_MonoProperty_GetAccessors_m3704698731
pXh:__Z146RuntimeInvoker_Il2CppObject_Int32_t2071877448_Il2CppObject_ObjectU5BU5DU26_t3223402458_Il2CppObject_Il2CppObject_Il2CppObject_ObjectU26_t597476745PK10MethodInfoPvPS2_
JJj:_GC_disable
eub:__ZN10Matrix4x4f8TransferI14SafeBinaryReadEEvRT_
B8e:_UnmanagedMemoryStream_ReadByte_m2501145010
Pyg:_ObjectRecord_UnchainFixup_m3025030310
qv:__ZN14AvatarPlayback8StopTimeEv
b6:__Z6AppendRKN4core12basic_stringIcNS_20StringStorageDefaultIcEEEEPKc
wNf:__ZL60MulticastDelegate_t3201952435_CustomAttributesCacheGeneratorP21CustomAttributesCache
Bma:__ZL14OnWorldStoppedv
lNb:__Z18Transfer_BlittableI18StreamedBinaryReadILb1EELb0E8Vector3fEvRK29SerializationCommandArgumentsR31RuntimeSerializationCommandInfo
Zeb:__ZN14CachingManager15ClearTempFolderEv
$og:__ZL61Image_t2042527209_CustomAttributesCacheGenerator_m_FillCenterP21CustomAttributesCache
Uza:__ZN7ApiGLES18ClearBufferSubDataEjN2gl12BufferTargetEll
EOi:_Touch_get_type_m3264731406_AdjustorThunk
vdc:__Z37Camera_Get_Custom_PropAllCamerasCountv
otb:__ZN14Texture2DArray8TransferI18StreamedBinaryReadILb0EEEEvRT_
fsj:__ZN6il2cpp6icalls8mscorlib6System5Array9GetLengthEP11Il2CppArrayi
V$a:__Z18ApplyOcclusionMaskR19ProbeOcclusionCacheRK17LightProbeContextRK10RenderNodeb
Hwa:__ZN13GfxDeviceGLES13AfterDrawCallEv
F4e:_FileStreamAsyncResult__ctor_m1096228032
wTc:_Split_Cubic
eb:invoke_fiiii
$9f:__ZL78Time_t31991979_CustomAttributesCacheGenerator_Time_get_unscaledTime_m862335845P21CustomAttributesCache
hJd:_DBNull_System_IConvertible_ToSByte_m1228193074
SFe:_Collection_1__ctor_m2818834331_gshared
Kme:_Array_InternalArray__get_Item_TisUICharInfo_t3056636800_m3872982785_gshared
Dze:_List_1__ctor_m2168280176_gshared
ICj:__ZN6il2cpp2os10ThreadImpl22CreateForCurrentThreadEv
hJe:_Collection_1_Insert_m3041550124_gshared
f4e:_FileStream_FlushBuffer_m2594140542
upc:__Z64Register_UnityEngine_GUIStyle_GetFontInternalDuringLoadingThreadv
DMe:_Collection_1_System_Collections_IList_get_Item_m1995028750_gshared
VFj:__ZN6il2cpp2vm8Profiler12GCHeapResizeEx
SVj:dynCall_viiifi
KDa:__ZN18GfxFramebufferGLES20ActiveContextChangedEPP17RenderSurfaceBaseS2_
nZa:__ZN19ShaderPropertySheet17UpdateTextureInfoEiN9ShaderLab16FastPropertyNameEPK10TextureRef
GDa:__Z19PluginsRenderMarkeri
Hag:__ZL80Object_t1021602117_CustomAttributesCacheGenerator_Object_Instantiate_m2439155489P21CustomAttributesCache
kC:__ZN10HumanTrait18InitializeBoneNameEv
UGi:__ZN23InterfaceActionInvoker1ItE6InvokeEjP11Il2CppClassP12Il2CppObjectt
Usb:__ZN14Texture2DArray21AwakeFromLoadThreadedEv
FQb:__Z29Transfer_Blittable_ArrayFieldI18StreamedBinaryReadILb0EEyEvRT_R9ArrayInfoRK23StaticTransferFieldInfo
wJi:_X509CertificateEnumerator_get_Current_m3129374511
Cph:_EqualityComparer_1_get_Default_m875724809_gshared
Yzj:__ZNSt3__214__split_bufferIN6il2cpp2vm5Image20EmbeddedResourceDataERNS_9allocatorIS4_EEEC2EjjS7_
YQa:__ZN5Image13ReformatImageERK14ImageReferenceii13TextureFormatNS0_8BlitModeE
LUf:__ZL57DispIdAttribute_t607560947_CustomAttributesCacheGeneratorP21CustomAttributesCache
zH:__ZN12AudioManager17RemoveAudioSourceEP11AudioSource
Poi:_CullingGroup_Finalize_m3172731580
DSi:_AesManaged_get_KeySize_m2773901127
zme:_Array_InternalArray__get_Item_TisUInt64_t2909196914_m2580870875_gshared
Wpj:__ZN15dense_hashtableINSt3__24pairIK10KeyWrapperINS1_IP11Il2CppClassjEEES4_EES6_N6il2cpp8metadata14ArrayClassHashEN14dense_hash_mapIS6_S4_SB_NS6_14EqualsComparerINSA_17ArrayClassCompareEEENS0_9allocatorIS8_EEE9SelectKeyESF_SH_E4swapERSK_
I0b:__ZN13ProduceHelperI14SpriteRendererLb0EE7ProduceE18MemLabelIdentifier18ObjectCreationMode
KP:__ZN5physx14PxLightCpuTask12addReferenceEv
FFc:__Z10b2DistanceP16b2DistanceOutputP14b2SimplexCachePK15b2DistanceInput
_pb:__ZN21EnlightenSceneMapping8TransferI19StreamedBinaryWriteILb0EEEEvRT_
Vxj:__ZN6il2cpp2gc16GarbageCollector19InitializeFinalizerEv
Klc:__ZN10GUIManager10DoGUIEventER10InputEventb
zsf:_Context_get_ClientWriteKey_m2235605337
Lfh:_Enumerator__ctor_m3597047336_AdjustorThunk
LGj:_GC_bl_init_no_interiors
B0:__Z20CalculateSqrDistanceRK8Vector3fRK4AABB
UZh:__Z48RuntimeInvoker_Byte_t3683104436_Int64_t909078037PK10MethodInfoPvPS2_
vAj:__ZN6il2cpp2vm12GenericClass8GetClassEP18Il2CppGenericClass
vL:__Z32AudioMixerDuckingProcessCallbackP21UnityAudioEffectStatePfS1_jii
mSg:_CustomAttributeTypedArgument_GetHashCode_m999147081_AdjustorThunk
z1b:__ZN26CustomRenderTextureManagerD2Ev
o4e:_FileStream_Read_m3880951166
fI:__ZN12AudioManager8TransferI24GenerateTypeTreeTransferEEvRT_
ija:__Z25GetBytesFromTextureFormat13TextureFormat
Z4h:__Z105RuntimeInvoker_Void_t1841601450_Int32_t2071877448_Single_t2076509932_Int32_t2071877448_Single_t2076509932PK10MethodInfoPvPS2_
ipa:__ZN9Texture3D19UnloadFromGfxDeviceEb
PTj:dynCall_iiffi
eme:_Array_InternalArray__get_Item_TisInt16_t4041245914_m2533263979_gshared
Ri:_emscripten_webgl_init_context_attributes
I1f:__ZL67Math_t2022911894_CustomAttributesCacheGenerator_Math_Min_m105057611P21CustomAttributesCache
JB:__ZN16MecanimAnimation25RegisterIAnimationBindingEPKN5Unity4TypeEiP17IAnimationBinding
U3:__Z32scripting_class_get_assemblyname17ScriptingClassPtr
KFc:__ZN9b2Simplex9ReadCacheEPK14b2SimplexCachePK15b2DistanceProxyRK11b2TransformS5_S8_
ykh:_Dictionary_2_Resize_m2532139610_gshared
_Mi:_StackTraceUtility__cctor_m1132099289
eBe:_List_1_IndexOf_m2019441835_gshared
vJg:_TimeSpan_Equals_m2029123271_AdjustorThunk
raj:__ZN6il2cpp2vm13MetadataCache23GetInvokerMethodPointerEPK10MethodInfoPK20Il2CppGenericContext
_Ha:__ZN9GfxDevice21RegisterNativeTextureE9TextureIDi16TextureDimension
DPd:_CultureInfo__ctor_m456863818
xLj:__ZN6il2cpp6icalls8mscorlib6System10Reflection4Emit11TypeBuilder20create_generic_classEP27Il2CppReflectionTypeBuilder
jej:__ZNSt3__26vectorIPK10MethodInfoNS_9allocatorIS3_EEE26__swap_out_circular_bufferERNS_14__split_bufferIS3_RS5_EE
kqe:_Enumerator_MoveNext_m2504790928_gshared
erg:__ZL61Slider_t297367283_CustomAttributesCacheGenerator_m_HandleRectP21CustomAttributesCache
VV:__ZN3WWW20GetCachedErrorStringEv
yMi:_SliderState__ctor_m1096533539
HWb:__ZN12ScriptMapperD2Ev
Slg:__ZL85AxisEventData_t1524870173_CustomAttributesCacheGenerator_U3CmoveDirU3Ek__BackingFieldP21CustomAttributesCache
aad:_KeyedHashAlgorithm_Dispose_m1864300576
pJi:_X509Certificate_PEM_m49854707
blf:_PKCS12_get_RNG_m3620550062
rFf:_X509BasicConstraintsExtension__ctor_m3320418592
zIi:_ExtendedKeyUsageExtension_Decode_m901297139
OTb:__Z32TransferEnumWithNameForceIntSizeI14SafeBinaryRead7FogModeEvRT_RT0_PKc17TransferMetaFlags
qjc:__Z52Register_UnityEngine_RenderTexture_Internal_GetWidthv
bQf:__ZL89SafeWaitHandle_t481461830_CustomAttributesCacheGenerator_SafeWaitHandle__ctor_m1710231470P21CustomAttributesCache
tIj:_GC_check_leaked
pVb:__ZN9ShaderLab20SerializedSubProgram16TextureParameter8TransferI19StreamedBinaryWriteILb0EEEEvRT_
mhe:_Array_InternalArray__Insert_TisVector4_t2243707581_m1643342708_gshared
Rsh:_Mask_OnSiblingGraphicEnabledDisabled_m865494155
WBf:_KeysCollection_System_Collections_ICollection_get_SyncRoot_m2289369147
AT:__ZN11UnityEngine15CloudWebService16SessionContainer8AddEventEPNS0_14CloudEventInfoE
VGa:__Z4TrimRKN4core12basic_stringIcNS_20StringStorageDefaultIcEEEES5_
pAh:_Text_set_resizeTextMaxSize_m4034967714
JPf:__ZL55GuidAttribute_t222072359_CustomAttributesCacheGeneratorP21CustomAttributesCache
B1g:_GUIStyle_SetDefaultFont_m2095841351
ZRg:_CustomAttributeNamedArgument_Equals_m2691468532
GMf:__ZL74String_t_CustomAttributesCacheGenerator_String_Concat_m3881798623____args0P21CustomAttributesCache
RXf:__ZL103CryptoConfig_t896479599_CustomAttributesCacheGenerator_CryptoConfig_CreateFromName_m2169102076____args1P21CustomAttributesCache
jsb:__ZN10VertexData8TransferI14SafeBinaryReadEEvRT_
yJ:__ZN4FMOD8ChannelI8setDelayE14FMOD_DELAYTYPEjj
iBd:_Stack__ctor_m2410583781
nJj:_GC_malloc_atomic
xRg:_Default_GetBetterMethod_m4255740863
OD:__Z93Register_UnityEngine_Experimental_Director_AnimationClipPlayable_INTERNAL_CALL_SetApplyFootIKv
jNi:_StateMachineBehaviour_OnStateExit_m4064436078
Cgi:__Z48RuntimeInvoker_UIVertex_t1204258818_Il2CppObjectPK10MethodInfoPvPS2_
_zj:__ZNSt3__214__split_bufferIN6il2cpp2vm5Image20EmbeddedResourceDataERNS_9allocatorIS4_EEED2Ev
Deb:__ZN15dense_hashtableINSt3__24pairIKN4core12basic_stringIcNS2_20StringStorageDefaultIcEEEEP11AssetBundleEES6_20StringHash32FunctionIS6_EN14dense_hash_mapIS6_S9_SC_NS0_8equal_toIS6_EENS0_9allocatorISA_EEE9SelectKeyESF_SH_E4findERS7_
$1:__ZL20SortItemByInstanceIDRKN18AwakeFromLoadQueue4ItemES2_
GXg:_TypeBuilder_create_runtime_class_m2719530260
Bcd:_RNGCryptoServiceProvider_RngClose_m2921734810
Shg:__ZL85GUIStyle_t1799908754_CustomAttributesCacheGenerator_GUIStyle_set_richText_m1853532836P21CustomAttributesCache
cv:__ZNK34AnimationStateMachineMixerPlayable26GetInterruptedPosePlayableEv
Z7c:__ZN20UnityConnectSettings8TransferI24GenerateTypeTreeTransferEEvRT_
$s:__ZN34BlobWriteTransferSTLStyleArrayImplI22OffsetPtrArrayTransferIbEEclERS1_17TransferMetaFlagsR9BlobWrite
gfi:__Z37RuntimeInvoker_LabelFixup_t4090909514PK10MethodInfoPvPS2_
Swi:_GCHandle_GetHashCode_m1664905595_AdjustorThunk
ldf:_SimpleCollator_IsHalfKana_m4255579023
Lzf:_InternalAsyncResult_get_Count_m1291942796
QDe:_Collection_1_System_Collections_IList_Contains_m3365884450_gshared
IEj:__ZNK15dense_hashtableINSt3__24pairIK10KeyWrapperIPK19Il2CppGenericMethodEP10MethodInfoEES6_N6il2cpp8metadata23Il2CppGenericMethodHashEN14dense_hash_mapIS6_S9_SD_NS6_14EqualsComparerINSC_26Il2CppGenericMethodCompareEEENS0_9allocatorISA_EEE9SelectKeyESH_SJ_E10test_emptyERK30dense_hashtable_const_iteratorISA_S6_SD_SL_SH_SJ_E
PMa:__Z16FlaggedAsSkippedIN4core12basic_stringIcNS0_20StringStorageDefaultIcEEEEEbRK13FileEntryInfoRKT_19FileEnumerationFlag
xLe:_Collection_1_set_Item_m3440986310_gshared
E7:__ZL31InitializeRendererUpdateManagerPv
FWd:_BaseMeshEffect__ctor_m2843647600
vO:__ZN13AudioListener12CleanupClassEv
quf:_ClientSessionInfo_Dispose_m2571428025
o7d:_LayoutGroup_DelayedSetDirty_m4276695617
Cxf:_RecordProtocol_decryptRecordFragment_m2510859489
Ahg:__ZL105GUIStyle_t1799908754_CustomAttributesCacheGenerator_GUIStyle_INTERNAL_set_Internal_clipOffset_m2024478897P21CustomAttributesCache
Ieb:__Z28GetAbsoluteAssetBundlePrefixRKN4core12basic_stringIcNS_20StringStorageDefaultIcEEEE
rRd:_BaseRaycaster_get_sortOrderPriority_m3340181311
ayb:__ZN11TimeManager8TransferI19StreamedBinaryWriteILb0EEEEvRT_
W4e:_DelegatePInvokeWrapper_ReadDelegate_t3184826381
J4f:__ZL91HashSet_1_t2624254809_CustomAttributesCacheGenerator_HashSet_1_OnDeserialization_m627602129P21CustomAttributesCache
vUc:_compare_uni_maps
KKe:_Collection_1_get_Count_m804306016_gshared
h6c:__ZN11UnityEngine15PlatformWrapper27GetGraphicsCapsSupportFlagsEv
D_c:__ZNSt3__218__insertion_sort_3IRPFbPN2UI6CanvasES3_EPS3_EEvT0_S8_T_
YMf:__ZL80Decimal_t724701077_CustomAttributesCacheGenerator_Decimal_op_Explicit_m714968249P21CustomAttributesCache
yKd:_Decimal_Equals_m1115043331
ZMb:__ZN12NativeBufferI16Converter_StringE15SetupForWritingER9ArrayInfo
nVd:_StandaloneInputModule_DeactivateModule_m2952848884
AXj:___cxa_end_catch__wrapper
clg:__ZL119RenderPipelineManager_t984453155_CustomAttributesCacheGenerator_RenderPipelineManager_CleanupRenderPipeline_m2242901458P21CustomAttributesCache
xjh:_ValueCollection_System_Collections_Generic_ICollectionU3CTValueU3E_Clear_m231380274_gshared
sSd:_Entry__ctor_m1176697586
A2e:_BinaryReader_ReadUInt32_m1363572147
R0f:__ZL79Convert_t2607082565_CustomAttributesCacheGenerator_Convert_ToUInt32_m3391339025P21CustomAttributesCache
Hgi:__Z37RuntimeInvoker_Enumerator_t1147558387PK10MethodInfoPvPS2_
Flb:__ZThn268_N31CanvasBatchIntermediateRenderer20OnAssetBoundsChangedEv
D4a:__ZN13MonoBehaviour22DoScriptRebuildWarningEv
xdc:__Z38Camera_CUSTOM_INTERNAL_CALL_RaycastTryP12Il2CppObjectRK3Rayfi
yAh:_Text_get_verticalOverflow_m3134063496
asj:__ZN6il2cpp6icalls8mscorlib6System5Array13ClearInternalEP11Il2CppArrayii
Jwi:_GCHandle_get_Target_m2327042781
fJe:_Collection_1_GetEnumerator_m1417525918_gshared
oTj:_llvm_cttz_i32
MFf:_PublicKey_DecodeDSA_m1169363495
Wmc:__ZN11IMGUIModule25GetGUIStyleScriptingClassEv
tXc:_tt_get_interface
mCg:_AsymmetricKeyExchangeFormatter__ctor_m3362140205
dtj:__ZN6il2cpp5utils9PathUtils7CombineIcEENSt3__212basic_stringIT_NS3_11char_traitsIS5_EENS3_9allocatorIS5_EEEERKSA_SC_
NBf:_NameObjectCollectionBase_BaseGet_m667273025
ytc:__ZN9JSONWrite8TransferI13dynamic_arrayIiLj4EEEEvRT_PKc17TransferMetaFlags
y_:__Z18ConvertUTF16toUTF8PPKtS0_PPhS2_15ConversionFlags
_Dj:__ZN6il2cpp2os20PathErrnoToErrorCodeERKNSt3__212basic_stringIcNS1_11char_traitsIcEENS1_9allocatorIcEEEEi
MKg:_TypeLoadException__ctor_m1903359728
dXi:__ZL16my_g_bit_nth_msfj
Thh:_Transform_1_BeginInvoke_m3014766640_gshared
Cad:_KeySizes__ctor_m3526899007
Aqj:__ZN15dense_hashtableINSt3__24pairIK10KeyWrapperIP11Il2CppClassES4_EES5_N6il2cpp8metadata16SZArrayClassHashEN14dense_hash_mapIS5_S4_SA_NS5_14EqualsComparerINS9_19SZArrayClassCompareEEENS0_9allocatorIS7_EEE9SelectKeyESE_SG_E12expand_arrayEjN21dense_hash_map_traits17integral_constantIbLb0EEE
uWb:__ZNK12ShaderErrors11ShaderErrorltERKS0_
Zjg:__ZL69ArgumentCache_t4810721_CustomAttributesCacheGenerator_m_FloatArgumentP21CustomAttributesCache
PEe:_Collection_1_CopyTo_m1578267616_gshared
qnd:_EncoderReplacementFallback__ctor_m2208438262
BUa:__Z23SetupStereoFlareElementP11FlareVertexRK8Vector2fS3_S3_RK11ColorRGBA32RK10Matrix4x4fRK8Vector3fb
e0i:__ZN6il2cpp2vm5Class15GetInstanceSizeEPK11Il2CppClass
ua:invoke_iiiifiiii
Tmh:_Dictionary_2_CopyTo_m1495142643_gshared
ywc:__ZN9rapidjson8internal6u64toaEyPc
kvg:_SoapFieldAttribute_IsInteropXmlElement_m4243409842
GXi:_EventFunction_1_BeginInvoke_m3064802067_gshared
z1f:__ZL67IndexOutOfRangeException_t3527622107_CustomAttributesCacheGeneratorP21CustomAttributesCache
hqj:__ZNK15dense_hashtableINSt3__24pairIK10KeyWrapperINS1_IP11Il2CppClassjEEES4_EES6_N6il2cpp8metadata14ArrayClassHashEN14dense_hash_mapIS6_S4_SB_NS6_14EqualsComparerINSA_17ArrayClassCompareEEENS0_9allocatorIS8_EEE9SelectKeyESF_SH_E12test_deletedERK30dense_hashtable_const_iteratorIS8_S6_SB_SJ_SF_SH_E
e3e:_Directory_GetFiles_m4036267478
gNd:_Enum_System_IConvertible_ToType_m2669300536
_Xe:_NumberFormatInfo_get_CurrencyNegativePattern_m3972163809
lEa:__ZL19BlitFramebufferImplRN4gles23BlitFramebufferDrawQuadER9GfxDevice9TextureIDRK8Vector4f
sIb:__Z18Transfer_BlittableI17RemapPPtrTransferLb0EhEvRK29SerializationCommandArgumentsR31RuntimeSerializationCommandInfo
zQh:__Z44RuntimeInvoker_Byte_t3683104436_Il2CppObjectPK10MethodInfoPvPS2_
gkj:__ZN15dense_hashtableINSt3__24pairIK10KeyWrapperIPK10Il2CppTypeEjEES6_N6il2cpp8metadata14Il2CppTypeHashEN14dense_hash_mapIS6_jSB_NS6_14EqualsComparerINSA_26Il2CppTypeEqualityComparerEEENS0_9allocatorIS8_EEE9SelectKeyESF_SH_E4findERS7_
rOe:_ReadOnlyCollection_1_System_Collections_IList_Add_m2333231354_gshared
rNc:_UNITY_FT_List_Add
wXg:_OpCodes__cctor_m939885911
W1b:__ZN14Texture2DArray11InitTextureEiii13TextureFormatb
tqf:_PKCS1_RSASP1_m1748738009
mnb:__ZN12CubemapArray21AwakeFromLoadThreadedEv
sIi:_UriParser_InitializeAndValidate_m251943319
Wed:_SymmetricAlgorithm_set_Padding_m3081984460
Lxb:__ZN9InputAxis8TransferI18StreamedBinaryReadILb0EEEEvRT_
JXf:__ZL91X509Certificate_t283079845_CustomAttributesCacheGenerator_X509Certificate_Reset_m1676863543P21CustomAttributesCache
rvd:_ArrayList_RemoveAt_m2578928333
cGb:__Z18Transfer_BlittableI14SafeBinaryReadLb0EaEvRK29SerializationCommandArgumentsR31RuntimeSerializationCommandInfo
ssi:_AnimatorControllerPlayable_INTERNAL_CALL_GetBoolString_m538178071
J8i:__ZN30dense_hashtable_const_iteratorINSt3__24pairIK10KeyWrapperI13dynamic_arrayIPK10Il2CppTypeLj4EEEPFvvEEES8_N6il2cpp8metadata19Il2CppSignatureHashEN14dense_hash_mapIS8_SB_SF_NS8_14EqualsComparerINSE_22Il2CppSignatureCompareEEENS0_9allocatorISC_EEE9SelectKeyESJ_SL_E30advance_past_empty_and_deletedEv
xNe:_ReadOnlyCollection_1_System_Collections_IList_set_Item_m1233322304_gshared
GIi:_GeneralNames_get_DNSNames_m2721668874
YMd:_Enum_System_IConvertible_ToByte_m38374586
fNe:_ReadOnlyCollection_1_System_Collections_Generic_IListU3CTU3E_RemoveAt_m1592158292_gshared
bQg:_PlatformNotSupportedException__ctor_m3301654967
NWj:_emscripten_glFrustum__wrapper
Uxf:_ReceiveRecordAsyncResult_get_CompletedWithError_m2670396551
jKd:_Decimal_Equals_m1798565377
Vkb:__ZN17GlobalGameManager8TransferI24GenerateTypeTreeTransferEEvRT_
upg:__ZL66InputField_t1631627530_CustomAttributesCacheGenerator_m_CaretColorP21CustomAttributesCache
mUg:_TypeBuilder_check_created_m2929267877
mRa:__Z20SyncFenceCullResultsR11CullResults
MFa:__ZN15TextureTFMethod20IsBoneCountSupportedEi
jD:__ZN26AnimatorControllerPlayable9GotoStateEiifff
G4g:_GUISkin_set_horizontalScrollbarThumb_m2119687595
bmb:__ZN14RenderSettings23VirtualRedirectTransferER24GenerateTypeTreeTransfer
kHd:_DateTime_System_IConvertible_ToSByte_m2575078084_AdjustorThunk
BJb:__Z22TransferField_NonArrayI17RemapPPtrTransfer27Converter_SimpleNativeClassI8GUIStyleEEvRK23StaticTransferFieldInfoR31RuntimeSerializationCommandInfoRT0_
mji:_AnimatorStateInfo_IsTag_m1529621725_AdjustorThunk
c0b:__ZNK17AnimationCurveTplIfE20EvaluateWithoutCacheEfRf
hCj:__ZN6il2cpp2os6Thread12QueueUserAPCEPFvPvES2_
Qae:_Array_InternalArray__IEnumerable_GetEnumerator_TisDictionaryEntry_t3048875398_m3498834924_gshared
q7g:_GUIStyleState__ctor_m3611888666
yGe:_Collection_1_IsValidItem_m1304951912_gshared
_7b:__ZN4Mesh10SetNormalsEPK8Vector3fj
c$g:_PropertyInfo__ctor_m1808219471
ZJc:__Z66Register_UnityEngine_Physics2D_INTERNAL_CALL_GetRayIntersectionAllv
xDd:_Convert_ToDateTime_m4161927553
i2h:__Z76RuntimeInvoker_Void_t1841601450_RegexOptionsU26_t3063574985_SByte_t454417549PK10MethodInfoPvPS2_
sUg:_TypeBuilder_GetConstructors_m774120094
qfg:__ZL87Canvas_t209405766_CustomAttributesCacheGenerator_Canvas_set_overrideSorting_m3982973573P21CustomAttributesCache
cBj:__ZNSt3__212basic_stringIDsNS_11char_traitsIDsEENS_9allocatorIDsEEE9__grow_byEjjjjjj
or:__ZN17AnimationCurveTplIfE8TransferI14SafeBinaryReadEEvRT_
LGi:_RegularExpression_set_GroupCount_m2991393456
COd:_Calendar_get_EraNames_m452820602
Arb:__ZNSt3__26vectorIN15QualitySettings14QualitySettingENS_9allocatorIS2_EEE6assignIPS2_EENS_9enable_ifIXaasr21__is_forward_iteratorIT_EE5valuesr16is_constructibleIS2_NS_15iterator_traitsIS9_E9referenceEEE5valueEvE4typeES9_S9_
fdb:__ZNK5Unity9Component10GetEnabledEv
CSa:__ZNK19ShaderPropertySheet11HasPropertyERKN9ShaderLab16FastPropertyNameE
XGd:_DateTime_System_IConvertible_ToByte_m2670443498_AdjustorThunk
dgj:_il2cpp_class_get_image
e5:__Z16AsyncReadRequestP16AsyncReadCommand
I2f:__ZL81BigInteger_t925946153_CustomAttributesCacheGenerator_BigInteger__ctor_m4013661868P21CustomAttributesCache
kof:_BigInteger_op_Addition_m1734797151
V7h:__Z110RuntimeInvoker_Boolean_t3825574718_Vector2_t2243707579_Vector2_t2243707579_Single_t2076509932_SByte_t454417549PK10MethodInfoPvPS2_
tve:_List_1_CheckMatch_m1814522134_gshared
vFe:_Collection_1_System_Collections_IList_set_Item_m3488446830_gshared
NUg:_EnumBuilder_CreateNotSupportedException_m62763134
j4c:__Z24GetUnityAnalyticsManagerv
Y8e:_Math_Log_m3371716878
P1g:_GUILayoutUtility_Layout_m3812180708
Cxb:__ZN9InputAxis8TransferI14SafeBinaryReadEEvRT_
o2:__ZNK21ExecutionOrderManager30GetCustomAwakeFromLoadQueueForEPKN5Unity4TypeE
g9c:__Z27RegisterModule_UnityConnectv
Eqe:_Enumerator_Dispose_m3717265706_AdjustorThunk
M$g:_ParameterInfo_get_IsRetval_m1881464570
ali:_Bounds_get_size_m1728027642_AdjustorThunk
vwg:_RealProxy__ctor_m3041043303
hWe:_NumberFormatter_Init_m2654758994
nad:_HMACSHA1__ctor_m1168389339
q8f:__ZL100Input_t1785128008_CustomAttributesCacheGenerator_Input_INTERNAL_get_compositionCursorPos_m2426914348P21CustomAttributesCache
UK:__ZN10ObjectPoolIN4FMOD12ChannelGroupENS0_13ChannelGroupIEE7SetSizeEi
egf:_PrimalityTest_BeginInvoke_m966469054
YQe:_ReadOnlyCollection_1_System_Collections_Generic_ICollectionU3CTU3E_Clear_m1785953911_gshared
MNg:_UInt64_System_IConvertible_ToInt16_m2797150165_AdjustorThunk
lme:_Array_InternalArray__get_Item_TisLabelData_t3712112744_m863115768_gshared
a0e:_Int32_Parse_m753946802
oEc:__ZN19CollisionListener2D15ProcessContactsEP10Collider2Db
EZb:__ZN9Polygon2D7SetPathEiRK13dynamic_arrayI8Vector2fLj4EE
qV:__Z22ValidateTlsfAllocationPvjiS_
lBe:_List_1_RemoveAt_m2331128844_gshared
dpj:__ZN14dense_hash_mapI10KeyWrapperINSt3__24pairIPK9EventInfoP11Il2CppClassEEEj17ReflectionMapHashIS8_ENS9_14EqualsComparerINS1_8equal_toIS8_EEEENS1_9allocatorINS2_IKS9_jEEEEE15set_deleted_keyERSH_
cYg:_UnmanagedMarshal_ToMarshalAsAttribute_m3695569337
wHb:__Z14resize_trimmedINSt3__26vectorI17AnimationCurveTplIfE13stl_allocatorIS3_L18MemLabelIdentifier1ELi16EEEEEvRT_j
M2a:__ZN25CameraStackRenderingState19SetupLastEyeCamerasERK11CameraStack
qhb:__Z12GUIDToStringRK9UnityGUID
O6d:_LayoutElement_get_minHeight_m2070403283
_G:__ZN11SoundHandleC2ERKS_
Ssh:_Mask_OnEnable_m501850981
mqf:_RSASslSignatureFormatter__ctor_m2530528184
gmi:_Canvas_get_targetDisplay_m316548313
YVg:_GenericTypeParameterBuilder_GetGenericTypeDefinition_m2936287336
Lff:_BigInteger_op_Addition_m1196561843
Z8a:__Z29StdTemplateConversionFunctionItxEbPvR14SafeBinaryRead
hzi:_FormatterData__ctor_m3974986124
bSf:__ZL64FileNotFoundException_t4200667904_CustomAttributesCacheGeneratorP21CustomAttributesCache
Nbd:_RijndaelManagedTransform_get_CanReuseTransform_m3735256596
tyd:_Comparer__cctor_m1327316974
$2e:_MonoIO_ExistsFile_m1421941572
uId:_DateTime_op_GreaterThanOrEqual_m3818963848
vta:__ZNSt3__26__treeINS_12__value_typeI18VertexChannelsInfoP17VertexDeclarationEENS_19__map_value_compareIS2_S5_NS_4lessIS2_EELb1EEE13stl_allocatorIS5_L18MemLabelIdentifier14ELi16EEE12__find_equalIS2_EERPNS_16__tree_node_baseIPvEENS_21__tree_const_iteratorIS5_PNS_11__tree_nodeIS5_SG_EEiEESJ_RKT_
sy:__ZN17AnimationPlayable18DeallocateBindingsEv
JZd:_DefaultControls_SetDefaultTextValues_m1707718380
IVd:_TouchInputModule_UseFakeInput_m2112019004
KRd:_EventSystem_get_baseEventDataCache_m4294741599
hmb:__ZN14RenderSettings18TransferDeprecatedI14SafeBinaryReadEEvRT_
Thg:__ZL85GUIStyle_t1799908754_CustomAttributesCacheGenerator_GUIStyle_Internal_Draw_m694122665P21CustomAttributesCache
$X:__ZN12TLSAllocatorI14StackAllocatorE8AllocateEji
m3:__ZN16ScriptingManager18GetMonoScriptCacheEi
T2g:_GUIStyle_get_stretchHeight_m3396762700
f8i:__ZN13dynamic_arrayIPK10Il2CppTypeLj4EEC2ERKS3_
J5i:__ZN15dense_hashtableINSt3__24pairIK10KeyWrapperIPK11Il2CppClassEPKcEES6_N6il2cpp5utils11PointerHashIS3_EEN14dense_hash_mapIS6_S9_SE_NS6_14EqualsComparerINS0_8equal_toIS5_EEEENS0_9allocatorISA_EEE9SelectKeyESJ_SL_E15set_deleted_keyERKSA_
P1d:_GridLayoutGroup_CalculateLayoutInputHorizontal_m2355123124
G4f:__ZL84Locale_t4255929017_CustomAttributesCacheGenerator_Locale_GetText_m512920887____args1P21CustomAttributesCache
hGb:__Z18Transfer_BlittableI14SafeBinaryReadLb1EyEvRK29SerializationCommandArgumentsR31RuntimeSerializationCommandInfo
_kg:__ZL89U3CInvokeMessageIdSubscribersU3Ec__AnonStorey0_t1899782350_CustomAttributesCacheGeneratorP21CustomAttributesCache
mqc:__ZN8JSONRead8TransferIfEEvRT_PKc17TransferMetaFlagsb
YBh:_U3CGetEnumeratorU3Ec__Iterator0_Reset_m2980566576_gshared
Joi:_Coroutine__ctor_m1253937571
QRe:_ReadOnlyCollection_1_System_Collections_ICollection_get_IsSynchronized_m4063596282_gshared
frd:__ZN21InterfaceFuncInvoker2IP12Il2CppObjectP6Type_tS1_E6InvokeEjP11Il2CppClassS1_S3_S1_
ZRj:__ZNSt3__212basic_stringIcNS_11char_traitsIcEENS_9allocatorIcEEE6appendEPKcj
VSf:__ZL54TypeBuilder_t3308873219_CustomAttributesCacheGeneratorP21CustomAttributesCache
Uka:__ZN6prcoreL17RemapGenericFloatI18TexFormatARGBFloat17TexFormatRGBAHalfEEvPKNS_9InnerInfoE
YHe:_Collection_1_CheckWritable_m691269733_gshared
pVg:_GenericTypeParameterBuilder_GetAttributeFlagsImpl_m3338182267
gQ:__ZN13Simd4iFactoryIN6detail9FourTupleEEC2Eiiii
t7e:_SynchronizedReader__ctor_m1408327515
R4h:__Z67RuntimeInvoker_AnimatorTransitionInfo_t2410896200_Int32_t2071877448PK10MethodInfoPvPS2_
Tfi:__Z54RuntimeInvoker_KeyValuePair_2_t3716250094_Il2CppObjectPK10MethodInfoPvPS2_
QSe:_ReadOnlyCollection_1_System_Collections_IList_Clear_m1858417639_gshared
aAd:_Slot_t2022531261_marshal_pinvoke_cleanup
iOa:__ZZ23InitPlayerLoopCallbacksvEN38PostLateUpdateShaderHandleErrorsstruct7ForwardEv
ypb:__ZN15SerializeTraitsI33EnlightenTerrainChunksInformationE8TransferI14SafeBinaryReadEEvRS0_RT_
NGc:__ZN6b2Body12SetTransformERK6b2Vec2f
I2b:__ZNK32RendererMaterialAnimationBinding9BindValueER6ObjectRKN11UnityEngine9Animation14GenericBindingERNS3_10BoundCurveE
MVh:__Z112RuntimeInvoker_Int32_t2071877448_Il2CppObject_Int32_t2071877448_Int32_t2071877448_Il2CppObject_Int32_t2071877448PK10MethodInfoPvPS2_
Tvb:__Z13GetIAnimationv
Epa:__ZL18stbir__support_onef
cue:_List_1_System_Collections_IList_Remove_m2040310137_gshared
ACi:_Match_get_Regex_m3526002767
nSf:__ZL49Stream_t3255436806_CustomAttributesCacheGeneratorP21CustomAttributesCache
ksc:__Z26Transfer_UnityEngineObjectI9JSONWriteLb0EEvRK29SerializationCommandArgumentsR31RuntimeSerializationCommandInfo
Pba:__ZN9ShaderLab4Pass9ApplyPassEjPK19ShaderPropertySheetR17ShaderPassContextP6ShaderiPKNS_10GrabPassesEPNS_11SubProgramsE
wnd:_EncoderReplacementFallback_CreateFallbackBuffer_m3579126537
TMg:_UInt32_System_IConvertible_ToInt16_m2251335934_AdjustorThunk
w$c:__ZNSt3__27__sort5IRNS_6__lessIN2UI14DepthSortEntryES3_EEPS3_EEjT0_S7_S7_S7_S7_T_
e6i:__ZN14dense_hash_mapI10KeyWrapperIPKcEP11Il2CppClassN6il2cpp5utils11StringUtils12StringHasherIS2_EENS3_14EqualsComparerINS8_21CaseSensitiveComparerEEENSt3__29allocatorINSE_4pairIKS3_S5_EEEEE13set_empty_keyERSH_
nQh:__Z31RuntimeInvoker_Void_t1841601450PK10MethodInfoPvPS2_
Rqd:_Boolean_System_IConvertible_ToType_m3990189691
Rlj:__ZNSt3__218uninitialized_copyIPNS_4pairIK10KeyWrapperINS1_IPK11Il2CppImageP11Il2CppClassEEEjEESC_EET0_T_SE_SD_
LHc:__ZN17PolygonCollider2D12SetPolygon2DEP9Polygon2D
Da:invoke_vdd
An:FUNCTION_TABLE_fiii
JJh:_InternalEnumerator_1_Dispose_m3838127340_AdjustorThunk
CHc:__ZNK17PolygonCollider2D26GetTypeInfoVirtualInternalEv
D6h:__Z36RuntimeInvoker_FontStyle_t2764949590PK10MethodInfoPvPS2_
wMd:_Double_System_IConvertible_ToUInt32_m624993430
Dn:FUNCTION_TABLE_fiif
mmg:__ZL89PointerEventData_t1599784723_CustomAttributesCacheGenerator_U3CdraggingU3Ek__BackingFieldP21CustomAttributesCache
Z0b:__ZNK30SpriteRendererAnimationBinding12GetPPtrValueERKN11UnityEngine9Animation10BoundCurveE
qIg:_Scheduler_Add_m376749205
kvd:_ArrayList_IndexOf_m2092981366
gzj:__ZN15dense_hashtableINSt3__24pairIK10KeyWrapperINS1_IPKcS4_EEEiEES6_24NamespaceAndNamePairHashN14dense_hash_mapIS6_iS9_NS6_14EqualsComparerI26NamespaceAndNamePairEqualsEENS0_9allocatorIS8_EEE9SelectKeyESD_SF_E12resize_deltaEjj
K1b:__Z14RandomRotationP9Texture2DPhiiii
wxg:_SingleCallIdentity__ctor_m1512303454
lIh:_InternalEnumerator_1_MoveNext_m1594563423_AdjustorThunk
udf:_SimpleCollator_IsIgnorable_m2485013022
ufg:__ZL86Canvas_t209405766_CustomAttributesCacheGenerator_Canvas_get_sortingLayerID_m1396307660P21CustomAttributesCache
vWh:__Z35RuntimeInvoker_TimeSpan_t3430258949PK10MethodInfoPvPS2_
Oye:_List_1_System_Collections_IList_Insert_m2036969360_gshared
p5d:_InputField_GetUnclampedCharacterLineFromPosition_m1912794077
v4e:_ReadDelegate__ctor_m885671467
TId:_DateTimeOffset_ToString_m2121173678_AdjustorThunk
d3f:__ZL50X509Crl_t1699034837_CustomAttributesCacheGeneratorP21CustomAttributesCache
daj:__ZN24dense_hashtable_iteratorINSt3__24pairIK10KeyWrapperIPKcEP11Il2CppClassEES5_N6il2cpp5utils11StringUtils12StringHasherIS4_EEN14dense_hash_mapIS5_S8_SE_NS5_14EqualsComparerINSC_21CaseSensitiveComparerEEENS0_9allocatorIS9_EEE9SelectKeyESI_SK_E30advance_past_empty_and_deletedEv
kj:_JS_WebRequest_SetResponseHandler
iU:__ZNK13EmscriptenWWW14GetPartialDataEv
R0j:_glDeleteProgram__wrapper
Edc:__Z50Register_UnityEngine_Camera_INTERNAL_get_pixelRectv
Tri:_AnimationOffsetPlayable_set_position_m3583285645
Qai:__Z53RuntimeInvoker_UIVertex_t1204258818_Int32_t2071877448PK10MethodInfoPvPS2_
kka:__ZN6prcoreL18BlitFloatToIntegerERK14ImageReferenceRS0_
xei:__Z57RuntimeInvoker_KeyValuePair_2_t38854645_Int32_t2071877448PK10MethodInfoPvPS2_
Flf:_X509CertificateCollection_get_Item_m410866272
_2g:_Rect_get_yMax_m2915146103
Lig:__ZL94CustomEventData_t1269126727_CustomAttributesCacheGenerator_CustomEventData_AddInt32_m103138778P21CustomAttributesCache
eHc:__ZN7b2Timer5ResetEv
SS:__ZN11UnityEngine15CloudWebService14RestDownloader17OnCompleteContentEv
h2d:_LayoutGroup_SetChildAlongAxis_m1615929339
Ra:invoke_viffi
Gs:__ZN11UnityEngine9Animation40SetFlattenedSkeletonTransformsMainThreadER9TransformRKNS0_21AvatarBindingConstantEb
t$:__ZNSt3__26vectorI20ProcessCallbackGroupNS_9allocatorIS1_EEEC2ERKS4_
kA:__ZN17AnimationPlayable28UpdateInternalStateRecursiveILi1ELb0EEEvPK35AnimationPlayableEvaluationConstant
JBe:_List_1_System_Collections_ICollection_get_SyncRoot_m1429670979_gshared
Ua:invoke_vifff
fgc:__Z53Register_UnityEngine_Input_INTERNAL_get_mousePositionv
HCi:_MatchCollection_get_SyncRoot_m2567236647
Ue:_emscripten_request_fullscreen
ydh:_Rect_get_xMin_m1161102488
fX:__ZN20LocalFileSystemWebGL6DeleteER13FileEntryDatab
XJd:_Decimal_System_IConvertible_ToUInt16_m1621568250
We:_emscripten_glDisableVertexAttribArray
Fag:__ZL79Object_t1021602117_CustomAttributesCacheGenerator_Object_Instantiate_m938141395P21CustomAttributesCache
Ym:FUNCTION_TABLE_iiiifiiii
lJg:_TimeSpan_get_TotalMinutes_m1645177229_AdjustorThunk
qc:invoke_fifffi
zih:_Enumerator__ctor_m3539306986_gshared
wAa:__ZN4gles23ClearCurrentFramebufferEP7ApiGLESbbbRK10ColorRGBAffi
dz:__ZN7mecanim12statemachine20CreateStateWorkspaceEjjjRNS_6memory9AllocatorE
Ugf:__ZN21InterfaceFuncInvoker3IP22ByteU5BU5D_t3397334013S1_iiE6InvokeEjP11Il2CppClassP12Il2CppObjectS1_ii
u2c:__Z64Register_UnityEngine_CanvasRenderer_SplitIndiciesStreamsInternalv
a3h:__Z34RuntimeInvoker_Vector3_t2243707580PK10MethodInfoPvPS2_
ff:_emscripten_glDeleteObjectARB
ag:_IMG_Load
j8e:_UnexceptionalStreamReader_Read_m3839775235
Bla:__ZN6prcoreL27StretchGenericFloatBilinearI18TexFormatARGBFloatEEvPKNS_9InnerInfoE
rjc:__Z53Register_UnityEngine_RenderTexture_Internal_GetHeightv
Jwg:_RealProxy_SetTargetDomain_m3940877656
lla:__ZN6prcoreL17RemapGenericFloatI17TexFormatRGBAHalf18TexFormatARGBFloatEEvPKNS_9InnerInfoE
cNd:_Enum_System_IConvertible_ToInt32_m2459904362
ymc:__ZNK8GUIStyle21DrawWithTextSelectionER8GUIStateRK5RectTIfER10GUIContentbbbbbiiRK10ColorRGBAfSA_
Mmc:__Z14GetBuiltinSkini
jrf:_ContentInfo__ctor_m3871771681
HKh:_InternalEnumerator_1_MoveNext_m607849555_AdjustorThunk
GQd:_BaseInput_set_compositionCursorPos_m2632248731
a_i:_Enumerator_System_Collections_IEnumerator_Reset_m2573763156_gshared
P2e:_DirectoryInfo_Initialize_m2216118894
Ahd:_WindowsIdentity_Dispose_m2649088337
rXb:__ZN2UI13RectTransform23VirtualRedirectTransferER14SafeBinaryRead
HUi:_InvokableCall_1__ctor_m54675381_gshared
Aaf:_MonoType_GetMethodImpl_m593754598
qre:_List_1_System_Collections_ICollection_get_SyncRoot_m3733894943_gshared
yxe:_List_1_Reverse_m302978607_gshared
NO:__ZZL31InitializeAudioManagerCallbacksvEN33FixedUpdateAudioFixedUpdatestruct7ForwardEv
YTb:__ZNSt3__26vectorIN9ShaderLab20SerializedSubProgramENS_9allocatorIS2_EEE6assignIPS2_EENS_9enable_ifIXaasr21__is_forward_iteratorIT_EE5valuesr16is_constructibleIS2_NS_15iterator_traitsIS9_E9referenceEEE5valueEvE4typeES9_S9_
duc:__Z18Transfer_BlittableI8JSONReadLb0E8BitFieldEvRK29SerializationCommandArgumentsR31RuntimeSerializationCommandInfo
Ixg:_SoapServices_RegisterInteropXmlType_m2949236705
Ikj:__ZNK15dense_hashtableINSt3__24pairIK10KeyWrapperIPK10Il2CppTypeEjEES6_N6il2cpp8metadata14Il2CppTypeHashEN14dense_hash_mapIS6_jSB_NS6_14EqualsComparerINSA_26Il2CppTypeEqualityComparerEEENS0_9allocatorIS8_EEE9SelectKeyESF_SH_E10test_emptyERK24dense_hashtable_iteratorIS8_S6_SB_SJ_SF_SH_E
$7a:__ZN17PersistentManagerC2Eii
$Nb:__ZL17Transfer_GUIStyleI18StreamedBinaryReadILb1EELb0EEvRK29SerializationCommandArgumentsR31RuntimeSerializationCommandInfo
Wld:_String_CharCopy_m2550399897
d_b:__ZN11TypeManager20RegisterNonClassTypeEiP4RTTIPKcS3_
lSb:__ZN9ShaderLab14SerializedPass8TransferI14SafeBinaryReadEEvRT_
Enc:__Z71Register_UnityEngine_GUILayoutUtility_INTERNAL_CALL_Internal_MoveWindowv
GO:__ZN12AudioManager16SetListenerPauseEb
OHc:__ZThn160_N17PolygonCollider2DD0Ev
jDc:__ZNSt3__26__sortIRN10ClipperLib12LocMinSorterEPNS1_12LocalMinimumEEEvT0_S6_T_
mtj:__ZN6il2cpp2vm9Exception25RaiseOutOfMemoryExceptionERKNS_5utils10StringViewIDsEE
NFe:_Collection_1_IsValidItem_m2254106115_gshared
BUg:_TypeBuilder_GetEvent_m3876348075
Fzh:_Slider_OnMove_m641164662
ea:invoke_viiiiiiiiiii
zOj:___syscall_ret
tIg:_Scheduler__ctor_m3716265742
Jif:_MACAlgorithm_Final_m4076939925
IZb:__ZN14qsort_internal30FindAndMovePivotToLastPositionIP8Vector2fi26PointDistanceSortPredicateEEvT_S4_T0_T1_
U4c:__Z56Register_UnityEngine_Analytics_CustomEventData_AddDoublev
Lsb:__ZN11ChannelInfo8TransferI19StreamedBinaryWriteILb0EEEEvRT_
UDh:_InternalEnumerator_1_System_Collections_IEnumerator_get_Current_m3583252352_gshared
XBb:__ZN23ArchiveStorageConverter24ReadHeaderFromMemoryFileEv
cUg:_EnumBuilder_get_FullName_m2818393911
uVa:__ZN14qsort_internal13Partition3WayIP17RODataReplacementi19ROSorterReplacementEENSt3__24pairIT_S6_EES6_S6_T0_T1_
s6e:_StreamAsyncResult_get_Done_m2858832609
Afc:__Z34Register_UnityEngine_Gradient_Initv
YYi:_ObjectPool_1_set_countAll_m1742773675_gshared
eAg:_SerializationEntry_get_Value_m1628109884_AdjustorThunk
hRd:_BaseInputModule_GetAxisEventData_m3903709281
Ame:_Array_InternalArray__get_Item_TisUriScheme_t1876590943_m1821482697_gshared
zje:_Array_Sort_TisIl2CppObject_m1954851512_gshared
nnf:_BigInteger__ctor_m3239748086
zW:__ZN13ScreenManager23SetIsOrientationEnabledE18EnabledOrientationb
b2i:__ZL24UnresolvedVirtualCall_57P12Il2CppObjectiPK10MethodInfo
r0f:__ZL79Convert_t2607082565_CustomAttributesCacheGenerator_Convert_ToUInt16_m1043031438P21CustomAttributesCache
Mu:__ZN7mecanim5human25HumanPoseAddOverrideLayerERNS0_9HumanPoseERKS1_fRKNS_6bitsetILj70EEE
Y$b:__ZN13ProduceHelperI9TransformLb0EE7ProduceE18MemLabelIdentifier18ObjectCreationMode
vpc:__Z45Register_UnityEngine_GUIStyle_GetFontInternalv
Bii:_AnimationEvent_set_floatParameter_m4139544688
$2i:__ZL25UnresolvedVirtualCall_109P12Il2CppObjectS0_S0_iiPK10MethodInfo
fFi:_Alternation_get_Alternatives_m1445219249
xnh:_DefaultComparer_GetHashCode_m2506382068_gshared
moi:_Component_SendMessageUpwards_m19741277
drh:_EqualityComparer_1_System_Collections_IEqualityComparer_GetHashCode_m1012273405_gshared
dfe:_Array_InternalArray__ICollection_Add_TisHitInfo_t1761367055_m2956071622_gshared
r9f:__ZL74Random_t1170710517_CustomAttributesCacheGenerator_Random_Range_m2884721203P21CustomAttributesCache
dKh:_InternalEnumerator_1_MoveNext_m470170271_AdjustorThunk
s5a:__ZN10GameObject23VirtualRedirectTransferER18StreamedBinaryReadILb0EE
Qoe:_Enumerator_get_Current_m2577424081_gshared
RMh:_InternalEnumerator_1_Dispose_m2270401482_AdjustorThunk
wg:_glFrontFace
Dzg:_ObjectRecord_get_IsUnsolvedObjectReference_m2202692850
xJf:_FactoryCache_Cleanup_m4130035987
UC:__ZN26AnimatorControllerPlayable14SetLayerWeightEif
__b:__ZN13ProduceHelperI19LowerResBlitTextureLb0EE7ProduceE18MemLabelIdentifier18ObjectCreationMode
J_a:__ZNSt3__26vectorI16ShadowCasterData13stl_allocatorIS1_L18MemLabelIdentifier2ELi16EEE21__push_back_slow_pathIKS1_EEvRT_
Idj:__ZN6il2cpp6icalls8mscorlib6SystemL16GetFieldFromTypeINS_5utils10functional6FilterINSt3__212basic_stringIcNS7_11char_traitsIcEENS7_9allocatorIcEEEENS4_11StringUtils23CaseInsensitiveComparerEEEEEP21Il2CppReflectionFieldP11Il2CppClassSK_iRKT_
vVi:_UnityAction_1_Invoke_m1279802577_gshared
vNg:_UInt32_ToString_m1783596809
hPi:_Vector3_get_forward_m1201659139
kCe:_List_1_Sort_m269561757_gshared
Whg:__ZL110GUIStyle_t1799908754_CustomAttributesCacheGenerator_GUIStyle_INTERNAL_CALL_Internal_DrawPrefixLabel_m557487542P21CustomAttributesCache
WZc:__Z51Register_UnityEngine_TextGenerator_GetLinesInternalv
v_i:_HashSet_1_Init_m1258286688_gshared
Hlf:_X509CertificateEnumerator_System_Collections_IEnumerator_get_Current_m1643583406
gLi:_X509ExtensionCollection_get_Item_m4212651995
xOe:_ReadOnlyCollection_1_System_Collections_IList_RemoveAt_m525136953_gshared
Bce:__ZN21InterfaceFuncInvoker1Ii19Vector4_t2243707581E6InvokeEjP11Il2CppClassP12Il2CppObjectS0_
sni:_Collision2D_get_gameObject_m4234358314
Cka:__ZN6prcoreL17RemapGenericFloatI17TexFormatRGBFloat18TexFormatRGBAFloatEEvPKNS_9InnerInfoE
ANg:_UInt64_System_IConvertible_ToBoolean_m3012279573_AdjustorThunk
gYh:__Z48RuntimeInvoker_Il2CppObject_StringU26_t638738783PK10MethodInfoPvPS2_
oLg:_Type_get_IsGenericTypeDefinition_m2147901038
xLa:__ZN12HandlerChain10ToAbsoluteEPKc
iAi:_ContextAttribute_Freeze_m4133346275
FVe:_GregorianCalendar__ctor_m3794576475
qNg:_UInt32_TryParse_m4283512434
Lwj:__ZN15dense_hashtableI10KeyWrapperIP18Il2CppGenericClassES3_N6il2cpp8metadata22Il2CppGenericClassHashEN14dense_hash_setIS3_S6_NS3_14EqualsComparerINS5_25Il2CppGenericClassCompareEEENSt3__29allocatorIS3_EEE8IdentityESA_SD_E8min_sizeEjj
RG:__ZN9AudioClip11CreateSoundEv
Igh:_ShimEnumerator_MoveNext_m3313047792_gshared
zGe:_Collection_1_ConvertItem_m2185647560_gshared
SJg:_TimeSpan_op_Inequality_m257547441
dHg:_ExecutionContext_GetObjectData_m1456913356
rpj:__ZN14dense_hash_mapI10KeyWrapperINSt3__24pairIPK9FieldInfoP11Il2CppClassEEEj17ReflectionMapHashIS8_ENS9_14EqualsComparerINS1_8equal_toIS8_EEEENS1_9allocatorINS2_IKS9_jEEEEEC2EjRKSB_RKSF_
Zah:_Object_set_hideFlags_m2204253440
Tkj:__ZNK15dense_hashtableINSt3__24pairIK10KeyWrapperINS1_IPK10MethodInfoP11Il2CppClassEEEjEES9_17ReflectionMapHashIS8_EN14dense_hash_mapIS9_jSD_NS9_14EqualsComparerINS0_8equal_toIS8_EEEENS0_9allocatorISB_EEE9SelectKeyESI_SK_E13find_positionERSA_
WTg:_EnumBuilder_get_Assembly_m4285228003
fYb:__Z10tesvertLeqP10TESSvertexS0_
HLb:__Z18Transfer_BlittableI19StreamedBinaryWriteILb0EELb0E8Vector2fEvRK29SerializationCommandArgumentsR31RuntimeSerializationCommandInfo
yXe:_DateTimeFormatInfo_get_RoundtripPattern_m562440017
z8c:__ZN11UnityEngine7Connect16PersistentValues13RestoreValuesER8JSONRead
dNa:__ZN20ArchiveStorageReader31TryToReadDirectoryFromBlockDataEyPKvj
woh:_DefaultComparer__ctor_m3947565964_gshared
bMd:_Double_System_IConvertible_ToByte_m3004284950_AdjustorThunk
Mxg:_TypeEntry_get_AssemblyName_m1762285107
$vj:__ZN6il2cpp2vmL11GetIdentityEP14Il2CppIUnknown
iif:_SmallXmlParser_ReadCDATASection_m2558307107
cIj:_GC_push_gc_structures
pWd:_AspectRatioFitter_get_aspectRatio_m3023618874
uCf:_ServicePointManager_get_ServerCertificateValidationCallback_m1409951209
Gej:__ZN6il2cpp6icalls8mscorlib6SystemL8IsPublicEPK9EventInfo
vLf:_Enumerator__ctor_m3782962052
cBd:_Enumerator_get_Current_m1271212567
IFj:__ZThn4_N6il2cpp2vm13ComObjectBase18ReleaseMarshalDataEP13Il2CppIStream
YGa:__Z22GetShaderCachePathGLESv
c_a:__Z33GenerateShadowCasterPartsSortDataRK16ShadowCasterDatajRK15RenderNodeQueueRKNSt3__26vectorI20ShadowCasterPartData13stl_allocatorIS7_L18MemLabelIdentifier2ELi16EEEERK10Matrix4x4fRjP20ShadowCasterSortData
g8g:_Input_set_compositionCursorPos_m1615567306
iDf:_IPAddress_ParseIPV6_m2209709575
jwh:_U3CClickRepeatU3Ec__Iterator0_MoveNext_m1747924386
PUe:_Comparison_1_Invoke_m1670081898_gshared
_Ah:_Toggle_set_group_m3833595685
H7d:_LayoutRebuilder_ForceRebuildLayoutImmediate_m566681977
LGa:__ZNSt3__26vectorIPN19ConstantBuffersGLES11ConstBufferENS_9allocatorIS3_EEE21__push_back_slow_pathIKS3_EEvRT_
kfe:_Array_InternalArray__ICollection_Add_TisVector4_t2243707581_m698578249_gshared
S0:__ZN8keywords6CreateEPKc
zSh:__Z89RuntimeInvoker_Il2CppObject_Il2CppObject_Int32_t2071877448_Int32_t2071877448_Il2CppObjectPK10MethodInfoPvPS2_
dLb:__ZN24GenerateTypeTreeTransfer8TransferINSt3__26vectorI17AnimationCurveTplIfE13stl_allocatorIS4_L18MemLabelIdentifier1ELi16EEEEEEvRT_PKc17TransferMetaFlags
S:Math_imul
w5g:_GUIStyle_set_active_m2896743432
fxb:__ZN14SpriteRenderer15SetupPropertiesEv
Orb:__ZN11PlayerPrefs6GetIntERKN4core12basic_stringIcNS0_20StringStorageDefaultIcEEEEi
cid:_SecurityFrame_t1002202659_marshal_pinvoke_back
EZc:__Z45TextGenerator_CUSTOM_INTERNAL_get_rectExtentsP12Il2CppObjectP5RectTIfE
Yui:_PlayableHandle_Equals_m1435096530
$$e:_Int32_Equals_m321398519_AdjustorThunk
Xhg:__ZL102GUIStyle_t1799908754_CustomAttributesCacheGenerator_GUIStyle_Internal_GetCursorFlashOffset_m3177259302P21CustomAttributesCache
rae:_SetPropertyUtility_SetStruct_TisChar_t3454481338_m2333420724_gshared
QFe:_Collection_1_IsSynchronized_m2601980439_gshared
xzd:_Hashtable_ContainsKey_m2716576664
bDi:_PatternCompiler_EmitCategory_m1696942454
gKd:_Decimal_decimalFloorAndTrunc_m3655683429
Dfe:_Array_InternalArray__ICollection_CopyTo_TisInt32_t2071877448_m984622488_gshared
n_:__ZN18ScriptingArguments9AddObjectE18ScriptingObjectPtr
E1c:__Z39CanvasGroup_Get_Custom_PropInteractableP12Il2CppObject
DQ:__ZN11UnityEngine15CloudWebService16SessionContainerD2Ev
Tlg:__ZL97AxisEventData_t1524870173_CustomAttributesCacheGenerator_AxisEventData_get_moveVector_m1338727516P21CustomAttributesCache
NYj:_emscripten_glStencilOpSeparate__wrapper
qWc:_cf2_getLanguageGroup
JAa:__ZN17GenericDynamicVBOC2ER9GfxDevice13GfxBufferModejj
Hzi:_Context_get_HasDynamicSinks_m1998518649
GGc:__Z28GetPhysics2DScriptingClassesv
y9i:__ZN15dense_hashtableINSt3__24pairIK10KeyWrapperIPKcEP11Il2CppClassEES5_N6il2cpp5utils11StringUtils12StringHasherIS4_EEN14dense_hash_mapIS5_S8_SE_NS5_14EqualsComparerINSC_21CaseSensitiveComparerEEENS0_9allocatorIS9_EEE9SelectKeyESI_SK_E6insertERKS9_
WR:__ZN11UnityEngine15CloudWebService17SessionEventQueue10PurgeItemsEj
kfh:_UpdatedEventHandler_BeginInvoke_m4238510153
lQd:_AbstractEventData_get_used_m4208553917
$3a:__ZN6Camera16StandaloneRenderENS_10RenderFlagEP6ShaderRKN4core12basic_stringIcNS3_20StringStorageDefaultIcEEEE
fod:_Array_System_Collections_IList_get_Item_m2088124007
zod:_Array_GetLength_m2083296647
sZf:__ZL58SecurityElement_t2325568386_CustomAttributesCacheGeneratorP21CustomAttributesCache
Bnb:__ZNK12CubemapArray13GetIsReadableEv
gxd:_SynchronizedArrayListWrapper_ToArray_m1522185111
o0h:__Z55RuntimeInvoker_TimeSpan_t3430258949_DateTime_t693205669PK10MethodInfoPvPS2_
ANb:__Z18Transfer_BlittableI18StreamedBinaryReadILb1EELb1EtEvRK29SerializationCommandArgumentsR31RuntimeSerializationCommandInfo
Fhd:_SecurityContext_get_FlowSuppressed_m420202521
Gva:__ZN9GfxDevice20DeallocRenderSurfaceEP17RenderSurfaceBase
oPg:_ValueType_ToString_m3796301715
rDa:__ZN20GpuProgramParameters36UpdatePrepareValuesMaximumBufferSizeEv
exj:__ZNK15dense_hashtableI10KeyWrapperIP18Il2CppGenericClassES3_N6il2cpp8metadata22Il2CppGenericClassHashEN14dense_hash_setIS3_S6_NS3_14EqualsComparerINS5_25Il2CppGenericClassCompareEEENSt3__29allocatorIS3_EEE8IdentityESA_SD_E12test_deletedEj
OZh:__Z62RuntimeInvoker_Int64_t909078037_Il2CppObject_Int32_t2071877448PK10MethodInfoPvPS2_
wgc:__Z53Register_UnityEngine_Quaternion_INTERNAL_CALL_Inversev
Eie:_Array_qsort_TisUICharInfo_t3056636800_m2607408901_gshared
a2g:_GUILayoutGroup__ctor_m992523271
gdg:__ZL139AnimatorControllerPlayable_t4078305555_CustomAttributesCacheGenerator_AnimatorControllerPlayable_CrossFadeInFixedTime_m1082259778____layer2P21CustomAttributesCache
Oib:__ZN12BaseRenderer23RendererBecameInvisibleEv
ILc:__ZN20TextRenderingPrivate8FontImpl13CharacterInfo8TransferI18StreamedBinaryReadILb0EEEEvRT_
uLb:__Z29Transfer_Blittable_ArrayFieldI24GenerateTypeTreeTransferfEvRT_R9ArrayInfoRK23StaticTransferFieldInfo
E_h:__Z51RuntimeInvoker_Single_t2076509932_Int16_t4041245914PK10MethodInfoPvPS2_
X6a:__ZN19CustomRenderTexture9AddParentE4PPtrIS_E
Eqb:__ZN8Gradient8TransferI14SafeBinaryReadEEvRT_
iXh:__Z41RuntimeInvoker_StackBehaviour_t1390406961PK10MethodInfoPvPS2_
VWi:_UnityEvent_1_Invoke_m1533100983_gshared
Bha:__ZNSt3__26vectorIN4core12basic_stringIcNS1_20StringStorageDefaultIcEEEE13stl_allocatorIS5_L18MemLabelIdentifier1ELi16EEE7reserveEj
yCf:_FileWebRequest__ctor_m4003648606
nrg:__ZL71SpriteState_t1353336012_CustomAttributesCacheGenerator_m_DisabledSpriteP21CustomAttributesCache
ufi:__Z34RuntimeInvoker_HitInfo_t1761367055PK10MethodInfoPvPS2_
eNd:_Enum_System_IConvertible_ToSByte_m3488526280
UXg:_TypeBuilder_ToString_m1952363535
MAi:_Identity_set_Disposed_m628843469
Nah:_MonoBehaviour_StopAllCoroutines_m1675795839
$qa:__ZN18IDCollectorFunctorD0Ev
zag:__ZL82Object_t1021602117_CustomAttributesCacheGenerator_Object_DestroyObject_m2343493981P21CustomAttributesCache
_W:__ZNK20LocalFileSystemPosix9IsSymLinkERK13FileEntryData
YGj:_GC_new_free_list_inner
jnh:_DefaultComparer_Equals_m85211180_gshared
DJe:_Collection_1_System_Collections_IList_IndexOf_m1950953062_gshared
saf:_MonoType_InternalGetEvent_m532443236
wIe:_Collection_1_IndexOf_m2700825189_gshared
uOh:_Comparer_1_get_Default_m2605397692_gshared
Puc:__ZN8JSONRead8TransferI10RectOffsetEEvRT_PKc17TransferMetaFlagsb
$yj:__ZNK15dense_hashtableINSt3__24pairIK10KeyWrapperINS1_IPKcS4_EEEiEES6_24NamespaceAndNamePairHashN14dense_hash_mapIS6_iS9_NS6_14EqualsComparerI26NamespaceAndNamePairEqualsEENS0_9allocatorIS8_EEE9SelectKeyESD_SF_E12test_deletedERK24dense_hashtable_iteratorIS8_S6_S9_SH_SD_SF_E
ER:__ZN9JSONWrite8TransferIN11UnityEngine15CloudWebService14DataErrorEvent15FileErrorDetailEEEvRT_PKc17TransferMetaFlags
Amd:_Decoder__ctor_m2623573910
Mqa:__Z21ClearFenceWithoutSyncR8JobFence
rPe:_ReadOnlyCollection_1_System_Collections_Generic_IListU3CTU3E_RemoveAt_m1731148677_gshared
NJ:__ZN12SoundManager20RegisterModifiedClipEP10SampleClip
iUh:__Z108RuntimeInvoker_Void_t1841601450_Il2CppObject_Int64_t909078037_Il2CppObject_Int64_t909078037_Int64_t909078037PK10MethodInfoPvPS2_
lM:__ZN11AudioSource4PlayEd
kAj:__ZN6il2cpp2vm6Object16GetVirtualMethodEP12Il2CppObjectPK10MethodInfo
oy:__ZN22AnimationMixerPlayable11DerivesFromE17ScriptingClassPtr
b7i:__ZN15dense_hashtableI10KeyWrapperIPK17Il2CppGenericInstES4_N6il2cpp8metadata21Il2CppGenericInstHashEN14dense_hash_setIS4_S7_NS4_14EqualsComparerINS6_24Il2CppGenericInstCompareEEENSt3__29allocatorIS4_EEE8IdentityESB_SE_E13set_empty_keyERKS4_
ZW:__ZNK20LocalFileSystemPosix8IsHiddenERK13FileEntryData
_ph:_EqualityComparer_1_System_Collections_IEqualityComparer_Equals_m3589836321_gshared
uif:_SmallXmlParser_IsNameChar_m1561000202
_Ji:_X501__cctor_m2610532554
Ofh:_Enumerator_VerifyState_m3173176371_gshared
Yld:_StringComparer__ctor_m2275216983
uij:__ZNSt3__214__split_bufferINS_12basic_stringIcNS_11char_traitsIcEENS_9allocatorIcEEEERNS4_IS6_EEED2Ev
iBe:_List_1_CheckCollection_m2220107869_gshared
Unb:__ZN7Cubemap23VirtualRedirectTransferER18StreamedBinaryReadILb0EE
Wtf:_RecordProtocol_EncodeRecord_m3884270352
Sdd:_SHA256_Create_m896954069
ZXc:_Read_CVT
jGd:_Convert_ToUInt32_m776714429
ZJa:__ZN12FileAccessor4SeekEx10FileOrigin
uKb:__ZL26Transfer_SimpleNativeClassI24GenerateTypeTreeTransfer17AnimationCurveTplIfELb0EEvRK29SerializationCommandArgumentsR31RuntimeSerializationCommandInfo
m7h:__Z54RuntimeInvoker_Boolean_t3825574718_Vector2_t2243707579PK10MethodInfoPvPS2_
z8i:__ZN15dense_hashtableINSt3__24pairIK10KeyWrapperI13dynamic_arrayIPK10Il2CppTypeLj4EEEPFvvEEES8_N6il2cpp8metadata19Il2CppSignatureHashEN14dense_hash_mapIS8_SB_SF_NS8_14EqualsComparerINSE_22Il2CppSignatureCompareEEENS0_9allocatorISC_EEE9SelectKeyESJ_SL_E4swapERSO_
Goi:_Coroutine_t2299508840_marshal_pinvoke
L7:__ZN16LightmapSettings20DidChangeActiveSceneEP10UnitySceneS1_
vRg:_Default_ReorderParameters_m1877749093
Atg:__ZL59g_AssemblyU2DCSharp_Assembly_CustomAttributesCacheGeneratorP21CustomAttributesCache
rlb:__ZNK17InstancedPropInfo15RenderInstancesERK15RenderNodeQueuePK17BatchInstanceDataj17ShaderChannelMask
ncj:__ZN6il2cpp5utils9PathUtils8BasenameIcEENSt3__212basic_stringIT_NS3_11char_traitsIS5_EENS3_9allocatorIS5_EEEERKSA_
eL:__ZN10AudioMixer11SetupGroupsEv
u9f:__ZL91Resources_t339470017_CustomAttributesCacheGenerator_Resources_GetBuiltinResource_m582410469P21CustomAttributesCache
qnc:__Z35Register_UnityEngine_Event_get_typev
hjf:_PrivateKeyInfo_DecodeRSA_m1427048948
ytj:__ZN6il2cpp2vm9Exception23GetInvalidCastExceptionERKNS_5utils10StringViewIDsEE
uof:_BigInteger_op_GreaterThanOrEqual_m2643115413
zQg:_Assembly_FillName_m1934025015
DPa:_UNITY_png_free
S1e:_IntPtr_op_Explicit_m1073656736
PWj:_emscripten_glDepthRange__wrapper
ykd:_String_IndexOf_m2126171214
p1e:_Int64_ToString_m1544341651_AdjustorThunk
jA:__ZN8Animator28BuildControllerPlayableCacheEv
oZe:_Guid_CheckNull_m2903986431
w2f:__ZL62CrossContextDelegate_t754146990_CustomAttributesCacheGeneratorP21CustomAttributesCache
Rki:_Bounds__ctor_m1202659404
d2:__Z63ThreadAndSerializationSafeCheckGetMonoBehaviourBeingTransferredv
IJj:_GC_enable
Rvf:_TlsClientCertificateVerify_ProcessAsSsl3_m3377063356
AUh:__Z97RuntimeInvoker_Il2CppObject_Il2CppObject_Int32_t2071877448_Il2CppObject_Il2CppObject_Il2CppObjectPK10MethodInfoPvPS2_
aVd:_StandaloneInputModule_set_repeatDelay_m2820945738
s3e:_EndOfStreamException__ctor_m4268387737
AMg:_UInt16_ToString_m4213290405
agc:__Z37Register_UnityEngine_Input_GetAxisRawv
YCe:_List_1_GetIndex_m433539411_gshared
CXf:__ZL59StreamingContext_t1417235061_CustomAttributesCacheGeneratorP21CustomAttributesCache
byi:_ChannelServices_RegisterChannel_m3832858065
lNd:_Enum_GetName_m1226611481
BVe:_Func_2_Invoke_m4121137703_gshared
_L:__ZN11AudioSource5ResetEv
Zsb:__ZN14Texture2DArray23VirtualRedirectTransferER18StreamedBinaryReadILb0EE
GFi:_Literal_CompileLiteral_m276843152
iXb:__ZN2UI13RectTransform13AwakeFromLoadE17AwakeFromLoadMode
CFi:_Reference__ctor_m4110013284
e_a:__ZN14qsort_internal30FindAndMovePivotToLastPositionIP20ShadowCasterSortDatai26ShadowCasterSortDataSorterEEvT_S4_T0_T1_
pFb:__Z18Transfer_BlittableI14SafeBinaryReadLb1EiEvRK29SerializationCommandArgumentsR31RuntimeSerializationCommandInfo
yra:__ZN17PersistentManager13GetAllFileIDsERKN4core12basic_stringIcNS0_20StringStorageDefaultIcEEEER13dynamic_arrayIxLj8EE
PZh:__Z72RuntimeInvoker_Il2CppObject_IntPtr_t_Int32_t2071877448_Int32_t2071877448PK10MethodInfoPvPS2_
oQe:_ReadOnlyCollection_1_GetEnumerator_m713393110_gshared
Cwg:_ProxyAttribute_GetPropertiesForNewContext_m3587421540
zpd:_Array_LastIndexOf_m4096535198
hvd:_ArrayList_Add_m1719188324
rMd:_Double_System_IConvertible_ToSByte_m1653690240_AdjustorThunk
Ek:_glGetStringi
n7g:_GUIStyleState_t3801000545_marshal_pinvoke
Kzg:_ObjectManager_AddFixup_m4148241867
XPd:_CultureInfo_set_NumberFormat_m1618950525
ttb:__ZN18StreamedBinaryReadILb0EE21TransferSTLStyleArrayI13dynamic_arrayI8Vector4fLj4EEEEvRT_17TransferMetaFlags
fHf:_X509Store__ctor_m1573680316
uHf:_X509Chain_get_CertificateCollection_m324631835
qqh:_EqualityComparer_1__cctor_m1011898363_gshared
_Vd:_AnimationTriggers__ctor_m2623627182
_ce:_Array_InternalArray__IndexOf_TisClientCertificateType_t4001384466_m1168139450_gshared
jci:__Z49RuntimeInvoker_Int32_t2071877448_Link_t2723257478PK10MethodInfoPvPS2_
cVg:_FieldBuilder_get_Name_m2243491233
aUa:__ZN9Coroutine16SetCurrentMethodE18ScriptingMethodPtr
ys:__ZN8Animator9WriteStepEv
Qrb:__ZNSt3__23mapIN4core12basic_stringIcNS1_20StringStorageDefaultIcEEEE9PrefValueNS_4lessIS5_EENS_9allocatorINS_4pairIKS5_S6_EEEEEixERSB_
Wkc:__ZN15DirectorManager22ConstructPlayableGraphEv
kW:__ZN13ScreenManager16SetScreenTimeoutEi
kJb:__Z18Transfer_BlittableI17RemapPPtrTransferLb0EdEvRK29SerializationCommandArgumentsR31RuntimeSerializationCommandInfo
Ped:_SymmetricAlgorithm_set_IV_m4262655606
_zh:_StencilMaterial__cctor_m2963056855
Srh:_EqualityComparer_1_System_Collections_IEqualityComparer_Equals_m315020809_gshared
gSg:_CustomAttributeNamedArgument_GetHashCode_m3715408876_AdjustorThunk
LZc:__Z38Register_UnityEngine_Font_HasCharacterv
zGf:_X509Certificate2_AppendBuffer_m3517242299
c2a:__Z35IntersectSpherePlaneBoundsOptimizedRKN4math7_float4EPS1_i
TPd:_CultureInfo_get_IsNeutralCulture_m3874876470
WKd:_Delegate_CreateDelegate_m3813023227
jYh:__Z46RuntimeInvoker_WellKnownObjectMode_t2630225581PK10MethodInfoPvPS2_
RHi:_Uri_get_AbsoluteUri_m2120317928
RAj:__ZN6il2cpp2os5posix15PosixWaitObject13InterruptWaitEv
aZd:_ColorTween_TweenValue_m3279916815
oRd:_BaseInputModule_IsModuleSupported_m4272494372
o7:__Z22CleanupLODGroupManagerPv
efe:_Array_InternalArray__ICollection_Add_TisContentType_t1028629049_m2984242302_gshared
mnc:__Z21Event_CUSTOM_PopEventP12Il2CppObject
lxj:__ZN6il2cpp8metadata15GenericMetadata20RegisterGenericClassEP18Il2CppGenericClass
ml:_glUniform3fv
Jzb:__ZNSt3__218__insertion_sort_3IRN15ResourceManager10Dependency6SorterEPS2_EEvT0_S6_T_
Mqe:_Enumerator_System_Collections_IEnumerator_Reset_m3796537546_AdjustorThunk
iZc:_UNITY_FT_Init_Class_tt_service_gx_multi_masters
FJh:_InternalEnumerator_1_System_Collections_IEnumerator_Reset_m3249248421_AdjustorThunk
baf:_IntComparer_Compare_m3057931085
NYa:__ZNK16LightmapSettings31GetRealtimeLightmapDecodeValuesEv
BL:__ZN5audio5mixer12SetSuspendedERNS0_16AudioMixerMemoryEb
fna:__ZN17PersistentManager21UnloadNonDirtyStreamsEv
eTh:__Z78RuntimeInvoker_Int32_t2071877448_DecimalU26_t1613489971_DecimalU26_t1613489971PK10MethodInfoPvPS2_
ouj:__ZN6il2cpp2vm13LivenessStateC2EP11Il2CppClassjPFvPP12Il2CppObjectiPvES7_PFvvESB_
_7h:__Z41RuntimeInvoker_ColorTweenMode_t1328781136PK10MethodInfoPvPS2_
pSa:__ZN12ImageFilters4BlitER17ShaderPassContextP7TextureP13RenderTextureiPK18SharedMaterialDataPKcP6ShaderiNS_9BlitFlagsE11CubemapFaceRK8Vector2fSH_
PEf:_Oid__ctor_m1936781897
qbh:_Object_INTERNAL_CALL_Internal_InstantiateSingleWithParent_m1401308849
Qvi:_ResourceSet__ctor_m1222864106
MOg:_UIntPtr_op_Explicit_m1113914169
ZDe:_Collection_1_System_Collections_IList_get_Item_m3376056117_gshared
FQh:__Z44RuntimeInvoker_Int64_t909078037_Il2CppObjectPK10MethodInfoPvPS2_
Jl:_emscripten_glDepthMask
vSd:__ZN23InterfaceActionInvoker1IP28PointerEventData_t1599784723E6InvokeEjP11Il2CppClassP12Il2CppObjectS1_
mMf:__ZL76UInt16_t986882611_CustomAttributesCacheGenerator_UInt16_TryParse_m1818885113P21CustomAttributesCache
Lqe:_Enumerator_VerifyState_m3639069574_gshared
OBa:__ZN4crnd25static_huffman_data_model22prepare_decoder_tablesEv
xDe:_Enumerator_MoveNext_m689054299_gshared
sje:_Array_Sort_TisIl2CppObject_TisIl2CppObject_m1915706600_gshared
Tnf:_ModulusRing_Difference_m662924064
gJh:_InternalEnumerator_1_MoveNext_m1869236997_gshared
EXd:_CanvasUpdateRegistry_ObjectValidForUpdate_m855695984
s4d:_InputField_set_onValueChanged_m2406388125
Rbg:__ZL95Physics2D_t2540166467_CustomAttributesCacheGenerator_Physics2D_Raycast_m2303387255____maxDepth5P21CustomAttributesCache
tNe:_ReadOnlyCollection_1_System_Collections_ICollection_get_SyncRoot_m2702046016_gshared
mZ:__ZL22CleanupUnityWebStreamsPv
ocg:__ZL92AudioSource_t1135106623_CustomAttributesCacheGenerator_AudioSource_Play_m889724421____delay0P21CustomAttributesCache
GPb:__Z18Transfer_BlittableI18StreamedBinaryReadILb0EELb0E10ColorRGBAfEvRK29SerializationCommandArgumentsR31RuntimeSerializationCommandInfo
pBf:_ListDictionary_Add_m4276262662
Q7:__Znaj
ncd:_RIPEMD160Managed_GGG_m1639995340
p1j:_emscripten_glEnableClientState__wrapper
zZ:__ZN17MessageIdentifierC2EPKcNS_7OptionsEPKN5Unity4TypeES1_
yE:__Z76AnimatorControllerPlayable_CUSTOM_INTERNAL_CALL_CrossFadeInFixedTimeInternalR9HPlayableifif
dih:_Enumerator_System_Collections_IEnumerator_get_Current_m1648049763_gshared
tMj:__ZN6il2cpp6icalls8mscorlib4Mono8Security12Cryptography18KeyPairPersistence15_ProtectMachineEP12Il2CppString
lae:_Enumerable_Any_TisIl2CppObject_m2208185096_gshared
EVh:__Z57RuntimeInvoker_DSAParameters_t1872138834_SByte_t454417549PK10MethodInfoPvPS2_
Iib:__ZN11GameManager15ThreadedCleanupEv
Cze:_List_1__ctor_m1337392449_gshared
sod:_Array_System_Collections_IList_Remove_m2438892375
W6e:_TextWriter__ctor_m2225796097
Pyi:__ZN21InterfaceFuncInvoker0IP24StringU5BU5D_t1642385972E6InvokeEjP11Il2CppClassP12Il2CppObject
Fdb:__ZN14SafeBinaryRead8TransferI14ConstantStringEEvRT_PKc17TransferMetaFlags
TLi:_ScriptableObject_Internal_CreateScriptableObject_m1778903390
Iea:__ZNK6Camera16GetStereoEnabledEv
k2b:__ZN12LightManager15InitializeClassEv
Ifa:__ZN9ShaderLab11shaderprops16GetComputeBufferEPK19ShaderPropertySheetS3_NS_16FastPropertyNameE
J3:__ZN23ManagedAttributeManager35CallManagedGetDefaultExecutionOrderE17ScriptingClassPtr
ibc:__ZN18ScriptingArgumentsC2Ev
_Jg:_TimeZone_IsDaylightSavingTime_m875882154
$Ch:_ArrayReadOnlyList_1_Insert_m503707439_gshared
LYj:_emscripten_glBlendFuncSeparate__wrapper
vTh:__Z52RuntimeInvoker_Single_t2076509932_Decimal_t724701077PK10MethodInfoPvPS2_
Isf:_CipherSuiteCollection_System_Collections_IList_set_Item_m750275607
JTa:__ZNK25CameraStackRenderingState27GetStereoImageEffectTextureEb
xdd:_SHA1CryptoServiceProvider__ctor_m3127563759
Tp:__ZN8Vector3f8TransferI14SafeBinaryReadEEvRT_
s9b:__ZN13BuildSettings13GetSceneIndexERKN4core12basic_stringIcNS0_20StringStorageDefaultIcEEEE
ctg:__ZL103BaseVertexEffect_t2504093552_CustomAttributesCacheGenerator_BaseVertexEffect_ModifyVertices_m3446986347P21CustomAttributesCache
Co:FUNCTION_TABLE_ii
Sih:_Enumerator_MoveNext_m335649778_AdjustorThunk
qT:__ZNSt3__26__treeINS_12__value_typeIN4core12basic_stringIcNS2_20StringStorageDefaultIcEEEES6_EENS_19__map_value_compareIS6_S7_NS_4lessIS6_EELb1EEENS_9allocatorIS7_EEE16__construct_nodeERKNS_4pairIKS6_S6_EE
Qrc:__Z18Transfer_BlittableI9JSONWriteLb0E8BitFieldEvRK29SerializationCommandArgumentsR31RuntimeSerializationCommandInfo
uNg:_UInt32_ToString_m3894907091_AdjustorThunk
VTi:_Predicate_1__ctor_m2863314033_gshared
eXj:b44
NPd:_CultureInfo_get_TextInfo_m1582311326
S6b:__ZNK6Sprite15GenerateOutlineEfhbRNSt3__26vectorI13dynamic_arrayI8Vector2fLj4EENS0_9allocatorIS4_EEEEi
Y6g:_GUIStyle_get_contentOffset_m1904924583
Rgh:_ShimEnumerator_get_Key_m616785465_gshared
_hf:_SmallXmlParser_Error_m1832158746
tKf:_RepeatContext_get_IsLazy_m1620488045
Dk:_glDeleteVertexArrays
X9a:__Z24CreateDirectoryRecursiveRKN4core12basic_stringIcNS_20StringStorageDefaultIcEEEE
bXj:b41
TUb:__ZN9ShaderLab20SerializedSubProgram8TransferI18StreamedBinaryReadILb0EEEEvRT_
w6e:_StreamAsyncResult_get_AsyncWaitHandle_m4218169359
Fhg:__ZL89GUIStyle_t1799908754_CustomAttributesCacheGenerator_GUIStyle_get_stretchWidth_m1223411161P21CustomAttributesCache
Blc:__Z22MonoGUIContentToNative18ScriptingObjectPtrR10GUIContent
N0a:__Z9EndJobSetR8JobFence11JobPriority
Dme:_Array_InternalArray__get_Item_TisContactPoint2D_t3659330976_m825151777_gshared
n_c:__ZN2UI13CanvasManager9AddCanvasEPNS_6CanvasE
iqa:__ZN9Texture3D8TransferI19StreamedBinaryWriteILb0EEEEvRT_
XUa:__ZNK6Camera22CalculateRenderingPathEv
etc:__ZN9JSONWrite8TransferI5RectTIfEEEvRT_PKc17TransferMetaFlags
ju:__ZN11UnityEngine9Animation37SetGenericRootTransformPropertyValuesERKNS0_30AnimatorGenericBindingConstantERKN7mecanim10ValueArrayER9Transformbb
Eti:_AnimatorControllerPlayable_INTERNAL_CALL_GetCurrentAnimatorClipInfoInternal_m3542665271
mrf:_ContentInfo_get_Content_m1802070908
oJb:__ZL12InvokeMethodI17RemapPPtrTransferEvRK29SerializationCommandArgumentsR31RuntimeSerializationCommandInfo
wlf:_X509Certificate_get_PublicKey_m714501701
z6d:_U3CMouseDragOutsideRectU3Ec__Iterator1_System_Collections_IEnumerator_get_Current_m561728752
BRc:_tt_sbit_decoder_load_image
Nkd:_String_LastIndexOf_m290475879
$yc:__ZN15b2DistanceJointD0Ev
qce:__ZN21InterfaceFuncInvoker1Ii22UILineInfo_t3621277874E6InvokeEjP11Il2CppClassP12Il2CppObjectS0_
t3d:_Image_get_layoutPriority_m2151045813
Lqj:__ZN15dense_hashtableINSt3__24pairIK10KeyWrapperIP11Il2CppClassES4_EES5_N6il2cpp8metadata16SZArrayClassHashEN14dense_hash_mapIS5_S4_SA_NS5_14EqualsComparerINS9_19SZArrayClassCompareEEENS0_9allocatorIS7_EEE9SelectKeyESE_SG_EC2EjRKSA_RKSE_RKSI_
w_f:__ZL58ManualResetEvent_t926074657_CustomAttributesCacheGeneratorP21CustomAttributesCache
uai:__Z71RuntimeInvoker_Void_t1841601450_CornerU26_t4129226442_Int32_t2071877448PK10MethodInfoPvPS2_
M7e:_TextReader_Read_m975794707
Tlc:__ZNSt3__24listIN10GUIManager12SortedScriptE11memory_poolIS2_EE6__sortI13OldSortScriptEENS_15__list_iteratorIS2_PvEESA_SA_jRT_
ENg:_UInt64_System_IConvertible_ToChar_m1930853313_AdjustorThunk
Mvf:_TlsClientCertificate_SendCertificates_m1096074091
YVd:_UIBehaviour_OnCanvasHierarchyChanged_m762109874
jAd:_SyncHashtable_get_Item_m408601391
YXf:__ZL45DSA_t903174880_CustomAttributesCacheGeneratorP21CustomAttributesCache
wPe:_ReadOnlyCollection_1_System_Collections_IEnumerable_GetEnumerator_m1401363518_gshared
jdb:__ZNK9Behaviour26GetTypeInfoVirtualInternalEv
DDe:_Stack_1_System_Collections_ICollection_CopyTo_m2104527616_gshared
OEg:_StringBuilder_AppendFormat_m1666670800
e$a:__ZN18DeferredRenderLoop13RenderGBufferEP13RenderTexturePS1_b8JobFencePK25DeferredRenderLoopScratchRi
XIb:__Z18Transfer_BlittableI17RemapPPtrTransferLb1E8BitFieldEvRK29SerializationCommandArgumentsR31RuntimeSerializationCommandInfo
xsj:__ZN6il2cpp6icalls8mscorlib6System9ThreadingL11ThreadStartEPv
G$:__ZN15DirectorManager12OnSampleTimeEv
ORe:_ReadOnlyCollection_1_System_Collections_IList_Remove_m3878418841_gshared
x4d:_InputField_EnforceContentType_m1902926812
iA:__ZN8Animator13ClearBindingsEv
fea:__ZN12CachedReader10Align4ReadEv
REc:__ZN15b2WorldManifold10InitializeEPK10b2ManifoldRK11b2TransformfS5_f
KMe:_Collection_1_CopyTo_m42272870_gshared
p4h:__Z154RuntimeInvoker_RaycastHit2D_t4063908774_Vector2_t2243707579_Vector2_t2243707579_Single_t2076509932_Int32_t2071877448_Single_t2076509932_Single_t2076509932PK10MethodInfoPvPS2_
Stj:__ZN6il2cpp2vm9Exception28GetMarshalDirectiveExceptionEPKc
gbf:_MulticastDelegate_GetObjectData_m3187757658
dXd:_CanvasScaler_set_referencePixelsPerUnit_m1188599784
wSe:_ReadOnlyCollection_1_System_Collections_IList_get_Item_m887129009_gshared
BUe:_Comparison_1_EndInvoke_m179917407_gshared
A$b:__ZNK28MonoBehaviourPropertyBinding12SetPPtrValueERKN11UnityEngine9Animation10BoundCurveEi
kWa:__Z21GetScriptingArraySize17ScriptingArrayPtr
$Kc:__ZN20TextRenderingPrivate8FontImpl8TransferI14SafeBinaryReadEEvRT_
U9h:__Z59RuntimeInvoker_Boolean_t3825574718_KeyValuePair_2_t38854645PK10MethodInfoPvPS2_
kFi:__ZN23InterfaceActionInvoker1IP19LinkRef_t2090853131E6InvokeEjP11Il2CppClassP12Il2CppObjectS1_
iia:__Z35UnityPropertySheet_MakeSortedColorsRKNSt3__23mapIN9ShaderLab16FastPropertyNameE10ColorRGBAfNS_4lessIS2_EENS_9allocatorINS_4pairIKS2_S3_EEEEEER10vector_mapIS2_S3_S5_NS6_INS7_IS2_S3_EEEEE
b6g:_GUIStyle_Draw_m4006459684
ywa:__ZN9GfxDevice17ImmediateTexCoordEifff
_Di:_Parser_ParseRegularExpression_m2390577313
fTc:_ft_black_new
ODc:__ZN10ClipperLib7Clipper13AppendPolygonEPNS_5TEdgeES2_
Ypd:_Array_double_swapper_m1175307080
s7f:__ZL102GameObject_t1756533147_CustomAttributesCacheGenerator_GameObject_Internal_CreateGameObject_m3428198595P21CustomAttributesCache
hFi:_Alternation_AddAlternative_m623421443
WHf:_X509CertificateEnumerator_System_Collections_IEnumerator_Reset_m327358896
sgi:__Z36RuntimeInvoker_Enumerator_t402048720PK10MethodInfoPvPS2_
Xgd:_Hash__ctor_m2554411450
EWe:_NumberFormatter_AppendDigits_m1308372770
xgb:__ZN17FileSystemHandler4CopyER13FileEntryDataS1_
Eid:_Single_System_IConvertible_ToDateTime_m2510003459_AdjustorThunk
nLd:_Delegate_RemoveImpl_m3666700529
FWj:_emscripten_glUniform4f__wrapper
JBf:_NameObjectCollectionBase_OnDeserialization_m3478980442
_ii:_AnimatorControllerParameter_get_name_m1366583724
j4d:_InputField_set_caretColor_m2252440840
aB:__ZN8Animator8TransferI19StreamedBinaryWriteILb0EEEEvRT_
GXa:__ZNK6Camera16GetProjectionFarEv
h4a:__Z24InverseTransformRotationRK23TransformAccessReadOnlyRKN4math7_float4E
rZf:__ZL68SecurityCriticalAttribute_t2312050089_CustomAttributesCacheGeneratorP21CustomAttributesCache
e9e:_MissingFieldException__ctor_m1161042282
kde:_Array_InternalArray__IndexOf_TisSlot_t2267560602_m1912863273_gshared
l9c:__Z31GetPerformanceReportingSettingsv
oqa:__ZN7Texture34CreateFileTextureUploadInstructionE18TextureUploadFlagsj
cNi:_StateMachineBehaviour_OnStateExit_m1490844990
mwa:__ZN9GfxDevice21ResetDynamicResourcesEv
eSa:__ZN13ComputeShader14SetBufferParamEjRKN9ShaderLab16FastPropertyNameE15ComputeBufferID
GMj:__ZN6il2cpp2os9FastMutex4LockEv
ZUe:_Comparison_1_EndInvoke_m4174686984_gshared
yAg:_StreamingContext__ctor_m3063421596_AdjustorThunk
BRe:_ReadOnlyCollection_1_System_Collections_Generic_IListU3CTU3E_Insert_m3054305464_gshared
d$b:__ZN19LowerResBlitTexture13ApplySettingsEv
mNf:__ZL70IntPtr_t_CustomAttributesCacheGenerator_IntPtr_op_Explicit_m3896766622P21CustomAttributesCache
TA:__ZN8Animator8TransferI14SafeBinaryReadEEvRT_
vqj:__ZN15dense_hashtableINSt3__24pairIK10KeyWrapperIP11Il2CppClassES4_EES5_N6il2cpp8metadata16SZArrayClassHashEN14dense_hash_mapIS5_S4_SA_NS5_14EqualsComparerINS9_19SZArrayClassCompareEEENS0_9allocatorIS7_EEE9SelectKeyESE_SG_E4swapERSJ_
Vhb:__ZN17GlobalGameManager23VirtualRedirectTransferER18StreamedBinaryReadILb0EE
Bde:_Array_InternalArray__IndexOf_TisTypeTag_t141209596_m2882894956_gshared
kzh:_Slider_get_value_m4182660424
Dxc:__ZNK14b2CapsuleShape5CloneEP16b2BlockAllocator
gx:__ZN17AnimationPlayable34CollectAnimatorControllerPlayablesER13dynamic_arrayIP26AnimatorControllerPlayableLj4EE
mP:__ZN16BaseVideoTexture19UpdateVideoTexturesEv
ulb:__Z28BuildSingleStreamChannelInfo17ShaderChannelMaskRK20VertexChannelsLayoutS_S2_P11ChannelInfo
o4h:__Z79RuntimeInvoker_RaycastHit2D_t4063908774_Vector2_t2243707579_Vector2_t2243707579PK10MethodInfoPvPS2_
Moa:__ZNK16LightmapSettings23HasLightProbeTetrahedraEv
Zuf:_Context_get_WriteSequenceNumber_m243492531
Yrb:__ZN6Sprite23VirtualRedirectTransferER19StreamedBinaryWriteILb0EE
fTf:__ZL51Assembly_t4268412390_CustomAttributesCacheGeneratorP21CustomAttributesCache
Fkd:_String_LastIndexOfAny_m1473637802
Bjc:__Z38Transform_CUSTOM_INTERNAL_set_positionP12Il2CppObjectRK8Vector3f
Sve:_List_1_System_Collections_ICollection_CopyTo_m3062449209_gshared
Wjj:__ZNK15dense_hashtableINSt3__24pairIK10KeyWrapperINS1_IPK9FieldInfoP11Il2CppClassEEEjEES9_17ReflectionMapHashIS8_EN14dense_hash_mapIS9_jSD_NS9_14EqualsComparerINS0_8equal_toIS8_EEEENS0_9allocatorISB_EEE9SelectKeyESI_SK_E5beginEv
_fa:__ZNK9ShaderLab7Program19HasMatchingVariantsERK13dynamic_arrayI16ShaderKeywordSetLj4EE
qt:__ZN15SerializeTraitsIN4math4trsXEE8TransferI8BlobSizeEEvRS1_RT_
Nza:__ZN14DataBufferGLES11CopySubDataEPKS_jjj
me:_emscripten_glVertexPointer
bJa:__ZNSt3__26__treeI20DeviceDepthStateGLES11memcmp_lessIS1_S1_ENS_9allocatorIS1_EEE7destroyEPNS_11__tree_nodeIS1_PvEE
b0c:__ZN2UI13PrepareOutputERNS_7BatchesEjjNS_30AdditionalCanvasShaderChannelsE
due:_List_1_System_Collections_Generic_ICollectionU3CTU3E_get_IsReadOnly_m1614481629_gshared
Acj:__ZN6il2cpp2vm7Runtime47RaiseExecutionEngineExceptionIfMethodIsNotFoundEPK10MethodInfo
N_a:__Z17GetFrustumPortionPK8Vector3fffPS_
TOg:_UnauthorizedAccessException__ctor_m259001183
xvj:__ZN15dense_hashtableINSt3__24pairIK10KeyWrapperIP14Il2CppIUnknownEjEES5_N6il2cpp5utils11PointerHashIS3_EEN14dense_hash_mapIS5_jSB_NS5_14EqualsComparerINS0_8equal_toIS4_EEEENS0_9allocatorIS7_EEE9SelectKeyESG_SI_E14squash_deletedEv
JOi:_TouchScreenKeyboard_set_text_m3456054179
oF:__Z96Register_UnityEngine_Experimental_Director_AnimatorControllerPlayable_INTERNAL_CALL_PlayInternalv
ZZd:_DefaultControls_CreateDropdown_m1384069408
UTd:_PointerEventData_get_clickCount_m4064532478
YPe:_ReadOnlyCollection_1_System_Collections_Generic_ICollectionU3CTU3E_get_IsReadOnly_m3508872969_gshared
aOd:_EventArgs__cctor_m1350395667
udh:_Rect_get_position_m24550734_AdjustorThunk
GWi:_UnityEvent_1_GetDelegate_m4062537313_gshared
GOd:_CCGregorianCalendar_is_leap_year_m567513478
uFf:_Oid_get_Value_m2271181078
xqd:_Attribute_IsDefined_m2118467641
wSa:__ZN14GraphicsHelper8DrawQuadER9GfxDevice17ShaderChannelMaskbRK5RectTIfE
gjf:_PrivateKeyInfo_Normalize_m3959595934
cEh:_InternalEnumerator_1_System_Collections_IEnumerator_get_Current_m3125080595_gshared
kKe:_Collection_1_System_Collections_IList_Add_m2091889616_gshared
O5b:__ZN16StreamedResource8TransferI24GenerateTypeTreeTransferEEvRT_
rzc:__ZN11b2GearJoint4DumpEv
t$d:_DropdownItem_OnPointerEnter_m761897861
L4h:__Z75RuntimeInvoker_Int32_t2071877448_PlayableHandleU26_t3483893774_Il2CppObjectPK10MethodInfoPvPS2_
gGa:__ZN10Matrix3x3f15InvertTransposeEv
fij:__ZNSt3__213__vector_baseIN6il2cpp2vm17TypeNameParseInfoENS_9allocatorIS3_EEED2Ev
r9d:_Array_InternalArray__ICollection_Remove_TisKeyValuePair_2_t1174980068_m2768765894_gshared
OAb:__ZN24GenerateTypeTreeTransfer8TransferINSt3__26vectorIN4core12basic_stringIcNS3_20StringStorageDefaultIcEEEE13stl_allocatorIS7_L18MemLabelIdentifier12ELi16EEEEEEvRT_PKc17TransferMetaFlags
UHe:_Collection_1_set_Item_m2199807215_gshared
o7f:__ZL96GameObject_t1756533147_CustomAttributesCacheGenerator_GameObject_SendMessage_m71956653____value1P21CustomAttributesCache
gIb:__Z29Transfer_Blittable_ArrayFieldI14SafeBinaryRead8Vector3fEvRT_R9ArrayInfoRK23StaticTransferFieldInfo
GMg:_UInt32_System_IConvertible_ToBoolean_m91295134
lHg:_Monitor_Monitor_test_synchronised_m1542589500
g7f:__ZL85GameObject_t1756533147_CustomAttributesCacheGenerator_GameObject_get_layer_m725607808P21CustomAttributesCache
rjg:__ZL68RuntimePlatform_t1869584967_CustomAttributesCacheGenerator_WP8PlayerP21CustomAttributesCache
VLc:__ZN20TextRenderingPrivate8FontImpl18ResetCachedTextureEv
HMf:__ZL75String_t_CustomAttributesCacheGenerator_String_Concat_m626692867____values0P21CustomAttributesCache
p7f:__ZL98GameObject_t1756533147_CustomAttributesCacheGenerator_GameObject_SendMessage_m71956653____options2P21CustomAttributesCache
Vjf:_SymmetricTransform_TransformFinalBlock_m4192185386
bZe:_TextInfo__ctor_m1263401274
wPg:_Version_get_Major_m3385239713
DYi:_ListPool_1_Release_m3047738410_gshared
HOi:_TouchScreenKeyboard_Open_m913506328
GHj:_GC_print_finalization_stats
Nuf:_Context_get_SecurityProtocolFlags_m3295551796
vjh:_ValueCollection__ctor_m927733289_gshared
Rea:__ZN11NamedObject15ThreadedCleanupEv
MAc:__ZNK12b2WheelJoint10GetAnchorBEv
Oji:_LowMemoryCallback__ctor_m4181659636
OJh:_InternalEnumerator_1__ctor_m2981879621_AdjustorThunk
gdc:__Z53Register_UnityEngine_Behaviour_get_isActiveAndEnabledv
bDb:__ZNK13MonoBehaviour26GetTypeInfoVirtualInternalEv
Arh:_EqualityComparer_1__ctor_m3971803374_gshared
xq:__ZNSt3__26vectorIN4core12basic_stringIcNS1_20StringStorageDefaultIcEEEENS_9allocatorIS5_EEE8__appendEj
qgj:_il2cpp_gc_collect
gzb:__ZN26PlayerSettingsSplashScreen8TransferI17RemapPPtrTransferEEvRT_
FLc:__ZN20TextRenderingPrivate8FontImpl8TransferI17RemapPPtrTransferEEvRT_
FHh:_InternalEnumerator_1_get_Current_m3922357178_gshared
Qdj:__ZN6il2cpp6icalls8mscorlib6SystemL17CollectTypeFieldsINS_5utils10functional10TrueFilterEEEvP11Il2CppClassPKS7_iRNSt3__26vectorIP9FieldInfoNSB_9allocatorISE_EEEERKT_
Sng:__ZL72ColorBlock_t2652774230_CustomAttributesCacheGenerator_m_HighlightedColorP21CustomAttributesCache
qKg:_Type_get_IsValueType_m1733572463
F4g:_GUISkin_get_horizontalScrollbarThumb_m4062590908
tZb:__Z13GetTagManagerv
TEh:_InternalEnumerator_1_Dispose_m1748410190_AdjustorThunk
FWh:__Z127RuntimeInvoker_Void_t1841601450_IntPtr_t_Int32_t2071877448_SByte_t454417549_Int32_t2071877448_SByte_t454417549_SByte_t454417549PK10MethodInfoPvPS2_
T9d:_Array_InternalArray__ICollection_Remove_TisUInt16_t986882611_m65494986_gshared
pQe:_ReadOnlyCollection_1_IndexOf_m3054637117_gshared
iu:__ZN11UnityEngine9Animation37HasGenericRootTransformPropertyValuesERKNS0_30AnimatorGenericBindingConstantEb
nQ:__ZN11UnityEngine15CloudWebService17CloudJobSchedulerD0Ev
Ajd:_String_System_IConvertible_ToBoolean_m2696751322
ona:__ZN18LoadSceneOperation7PerformEv
y2g:_GUILayer_INTERNAL_CALL_HitTest_m693512502
vG:__ZL16FMOD_ErrorString11FMOD_RESULT_468
Ikd:_String_LastIndexOfAny_m4281325295
MDc:__ZN10ClipperLib7Clipper14IntersectEdgesEPNS_5TEdgeES2_RNS_8IntPointE
VE:__Z113Register_UnityEngine_Experimental_Director_AnimatorControllerPlayable_INTERNAL_CALL_GetAnimatorControllerInternalv
lmc:__Z21CleanupGlobalGUIStatev
UIg:_TimeSpan__ctor_m1888018443_AdjustorThunk
eAd:_SyncHashtable_get_Count_m3694444082
iij:__ZNSt3__26vectorINS_12basic_stringIcNS_11char_traitsIcEENS_9allocatorIcEEEENS4_IS6_EEE8allocateEj
BHa:__ZN22VertexDeclarationCache5ClearEv
i0j:_emscripten_glUniform2i__wrapper
V7a:__ZN17PersistentManager12SetPathRemapERKN4core12basic_stringIcNS0_20StringStorageDefaultIcEEEES6_
r0a:__ZN6Camera24PrepareCullingParametersERK23CameraCullingParameters13RenderingPathR11CullResults
Ana:__ZN19RuntimeSceneManager22EndIntegrateMainThreadEP10UnitySceneNS_11LoadingModeE
_Yf:__ZL84Evidence_t1407710183_CustomAttributesCacheGenerator_Evidence_GetHashCode_m1260371757P21CustomAttributesCache
gQe:_ReadOnlyCollection_1_System_Collections_ICollection_get_IsSynchronized_m2344337514_gshared
qJb:__Z26Transfer_UnityEngineObjectI17RemapPPtrTransferLb0EEvRK29SerializationCommandArgumentsR31RuntimeSerializationCommandInfo
Pkd:_String_IsNullOrEmpty_m2802126737
itd:_Byte_Parse_m1442736478
_xa:__ZN13GfxDeviceGLES15OnDeviceCreatedEb
Z0e:_Int64_Parse_m3258022240
zkd:_String_IndexOfOrdinal_m3591623977
oOi:_Texture2D_get_whiteTexture_m1979591766
xCg:_CryptoConfig_EncodeLongNumber_m2352037787
XKg:_Type_GetMethod_m475234662
kjd:_Single_GetHashCode_m3102305584
aoe:_KeyValuePair_2__ctor_m1877755778_AdjustorThunk
zxi:_ActivationServices_get_ConstructionActivator_m1726426854
nLb:__Z29Transfer_Blittable_ArrayFieldI24GenerateTypeTreeTransfer4AABBEvRT_R9ArrayInfoRK23StaticTransferFieldInfo
C$f:__ZL76Convert_t2607082565_CustomAttributesCacheGenerator_Convert_ToChar_m245844937P21CustomAttributesCache
X_f:__ZL52Activator_t1850728717_CustomAttributesCacheGeneratorP21CustomAttributesCache
IIj:_GC_adj_bytes_allocd
Pzh:_SpriteState_t1353336012_marshal_pinvoke_cleanup
afe:_Array_InternalArray__ICollection_Add_TisKeyframe_t1449471340_m887263954_gshared
LPi:_UIVertex__cctor_m803910084
Age:_Array_InternalArray__Insert_TisDateTime_t693205669_m1484996356_gshared
Yve:_List_1_System_Collections_IList_Remove_m3933652540_gshared
xoh:_DefaultComparer_GetHashCode_m926674183_gshared
J5e:_MonoIO_get_ConsoleInput_m2976499023
sXg:_OpCode_get_Size_m481593949_AdjustorThunk
Axd:_BitArrayEnumerator_checkVersion_m3839504595
Nod:_Array_GetUpperBound_m1352329707
oOa:__ZZ23InitPlayerLoopCallbacksvEN36UpdateScriptRunBehaviourUpdatestruct7ForwardEv
wle:_Mesh_SetListForChannel_TisIl2CppObject_m2261448912_gshared
Y0h:__Z61RuntimeInvoker_Void_t1841601450_Byte_t3683104436_Il2CppObjectPK10MethodInfoPvPS2_
kkd:_String_TrimEnd_m3153143011
KId:_DateTimeOffset_Equals_m3728302791_AdjustorThunk
o7g:_GUIStyleState_t3801000545_marshal_pinvoke_back
y_a:__ZN20SphericalHarmonicsL219AddDirectionalLightERKN4math7_float3ERKNS0_7_float4E
RJg:_TimeSpan_op_GreaterThanOrEqual_m3997050520
t0f:__ZL77Convert_t2607082565_CustomAttributesCacheGenerator_Convert_ToUInt16_m36213644P21CustomAttributesCache
v$:__Z26ScheduleJobForEachInternalR8JobFencePFvPvjES1_iPFvS1_E11JobPriority
FFf:_OidEnumerator_MoveNext_m1889267785
F9b:__ZN9Scripting18RaiseMonoExceptionEPKcz
Job:__ZN9Texture2D8TransferI19StreamedBinaryWriteILb0EEEEvRT_
iCb:__ZN24RingBufferMemoryFileData6UnlockEPv
i4g:_GUISkin_set_box_m877476512
w$d:_OptionData__ctor_m3070653720
sYi:_TweenRunner_1_StartTween_m3792842064_gshared
J2b:__ZN9ShaderLab16FastPropertyName15InitBy28BitHashEj
Mid:_Single_System_IConvertible_ToInt32_m3269519527_AdjustorThunk
l0i:__ZN6il2cpp2vm5Class7GetNameEP11Il2CppClass
Ddd:_SHA1Internal_ProcessBlock_m4070037334
qKj:__ZN6il2cpp6icalls8mscorlib6System10Reflection14MonoMethodInfo15get_method_infoE12Il2CppIntPtrP16Il2CppMethodInfo
P7f:__ZL87RectOffset_t3387826427_CustomAttributesCacheGenerator_RectOffset_get_bottom_m4112328858P21CustomAttributesCache
Dhe:_Array_InternalArray__set_Item_TisDouble_t4078015681_m24756265_gshared
_vg:_ObjRef_GetObjectData_m3081609242
I$b:__ZN13ProduceHelperIN2UI13RectTransformELb0EE7ProduceE18MemLabelIdentifier18ObjectCreationMode
$tb:__ZN17PackedFloatVector12UnpackFloatsEPfiiii
IZf:__ZL113EncoderReplacementFallback_t4228544112_CustomAttributesCacheGenerator_EncoderReplacementFallback__ctor_m517300448P21CustomAttributesCache
ENe:_ReadOnlyCollection_1__ctor_m3671019970_gshared
Iv:__ZN17AnimationPlayable28UpdateInternalStateRecursiveILi3ELb0EEEvPK35AnimationPlayableEvaluationConstant
rxa:__ZN13GfxDeviceGLES21DestroyComputeProgramER12ObjectHandleI18ComputeProgram_TagPvE
QDd:_Convert_ToDecimal_m2007036836
r7:__ZN17UniqueIDGenerator16DestroyPureIndexEj
V3:__ZL21AppendNestedClassName17ScriptingClassPtrRN4core17string_with_labelILi1EEE
NSb:__ZN14SafeBinaryRead21TransferSTLStyleArrayINSt3__26vectorIN9ShaderLab20SerializedSubProgram12UAVParameterENS1_9allocatorIS5_EEEEEEvRT_17TransferMetaFlags
Gzi:_Context_NotifyDynamicSinks_m1367144344
bV:__ZNK13BaseAllocator10IsAssignedEv
wR:__ZN24TextDOMTransferWriteBaseI9JSONWriteE12PushMetaFlagEi
EQh:__Z45RuntimeInvoker_Int16_t4041245914_Il2CppObjectPK10MethodInfoPvPS2_
Atf:_TlsClientCertificateVerify__ctor_m110646389
Fla:__ZN6prcoreL26RemapGenericIntegerToFloatI17TexFormatARGB888815TexFormatRFloatEEvPKNS_9InnerInfoE
TU:__ZN5Mutex6UnlockEv
Pzi:_Context_GetServerContextSinkChain_m390126977
Xhj:__ZN6il2cpp2vm17TypeNameParseInfoD2Ev
yje:_Array_Sort_TisIl2CppObject_m143182644_gshared
qhg:__ZL89GUIStyle_t1799908754_CustomAttributesCacheGenerator_GUIStyle_set_imagePosition_m327170707P21CustomAttributesCache
p7e:_StringReader_Read_m513112775
rqb:__ZNK8Renderer8GetLayerEv
TDe:_Collection_1_System_Collections_IList_Insert_m266942173_gshared
skb:__ZN12FlareManager11DeleteFlareEi
wFe:_Collection_1_Add_m2613548553_gshared
bA:__ZN7mecanim9animation22DestroyBlendTreeOutputEPNS0_15BlendTreeOutputERNS_6memory9AllocatorE
TWa:__ZNK6Camera20GetReplacementShaderEv
mYj:_glProgramBinary__wrapper
uJd:_Decimal__ctor_m569480123_AdjustorThunk
OLa:__ZN12HandlerChain11MoveToTrashER13FileEntryData
SCf:_HttpWebRequest__cctor_m3013631978
QLj:__ZNSt3__26__treeINS_12__value_typeINS_12basic_stringIcNS_11char_traitsIcEENS_9allocatorIcEEEEPFvvEEENS_19__map_value_compareIS7_SA_NS_4lessIS7_EELb1EEENS5_ISA_EEE4findIS7_EENS_15__tree_iteratorISA_PNS_11__tree_nodeISA_PvEEiEERKT_
VSb:__ZNSt3__26vectorIN9ShaderLab20SerializedSubProgram14ConstantBufferENS_9allocatorIS3_EEE7reserveEj
upa:__ZL23stbir__calculate_memoryP11stbir__info
S1h:__Z90RuntimeInvoker_Boolean_t3825574718_Int32_t2071877448_Int32U26_t455636984_Int32_t2071877448PK10MethodInfoPvPS2_
olj:__ZNK15dense_hashtableINSt3__24pairIK10KeyWrapperINS1_IPK10MethodInfoP11Il2CppClassEEEjEES9_17ReflectionMapHashIS8_EN14dense_hash_mapIS9_jSD_NS9_14EqualsComparerINS0_8equal_toIS8_EEEENS0_9allocatorISB_EEE9SelectKeyESI_SK_E12test_deletedERK24dense_hashtable_iteratorISB_S9_SD_SM_SI_SK_E
QRf:__ZL90BinaryReader_t2491843768_CustomAttributesCacheGenerator_BinaryReader_ReadSByte_m1712621355P21CustomAttributesCache
awh:_Scrollbar_FindSelectableOnRight_m3219495255
hAb:__ZNK30RuntimeInitializeOnLoadManager26GetTypeInfoVirtualInternalEv
E_c:__ZNSt3__227__insertion_sort_incompleteIRPFbPN2UI6CanvasES3_EPS3_EEbT0_S8_T_
iwc:__ZNK9rapidjson12GenericValueINS_4UTF8IcEE13JSONAllocatorE6AcceptINS_12PrettyWriterI16TempBufferWriterS2_S2_S3_EEEEbRT_
a7h:__Z55RuntimeInvoker_AnalyticsResult_t3037633135_Il2CppObjectPK10MethodInfoPvPS2_
kge:_Array_InternalArray__ICollection_CopyTo_TisVector3_t2243707580_m509487340_gshared
$pc:__Z59Register_UnityEngine_GUIUtility_Internal_GetKeyboardControlv
csf:_CipherSuite_get_KeyBlockSize_m2993514247
TE:__Z82AnimatorControllerPlayable_CUSTOM_INTERNAL_CALL_IsParameterControlledByCurveStringR9HPlayableP12Il2CppString
muc:__ZL26Transfer_SimpleNativeClassI8JSONRead10RectOffsetLb1EEvRK29SerializationCommandArgumentsR31RuntimeSerializationCommandInfo
M1c:__Z44CanvasRenderer_CUSTOM_INTERNAL_CALL_SetColorP12Il2CppObjectRK10ColorRGBAf
hHj:_GC_should_collect
Nxi:_UrlAttribute_Equals_m1587451932
oDj:__ZNSt3__26__treeINS_12basic_stringIcNS_11char_traitsIcEENS_9allocatorIcEEEENS_4lessIS6_EENS4_IS6_EEE12__find_equalIS6_EERPNS_16__tree_node_baseIPvEESG_RKT_
Drc:__Z18Transfer_BlittableI9JSONWriteLb1EsEvRK29SerializationCommandArgumentsR31RuntimeSerializationCommandInfo
EDc:__ZN10ClipperLib8JoinHorzEPNS_5OutPtES1_S1_S1_NS_8IntPointEb
X4c:__Z48UnityAnalyticsHandler_CUSTOM_SendCustomEventNameP12Il2CppObjectP12Il2CppString
zDg:_DSAParameters_t1872138834_marshal_pinvoke_cleanup
Tea:__ZN6ObjectD2Ev
Zbc:__ZN9Transform16SetLocalRotationERK11Quaternionf
JCd:_DateTime_Parse_m1628430317
ZQa:__ZN13RenderManager37RenderCamerasWithScriptableRenderLoopEi
wgf:_ASN1_Element_m2600236165
QY:__GLOBAL__sub_I_runtime_graphics5_lump_cpp
F8:__ZN23InstancedPropInfoStaticL16RegisterCallbackEPv
Zfi:__Z37RuntimeInvoker_Enumerator_t2983962278PK10MethodInfoPvPS2_
At:__ZN7mecanim8skeleton25SkeletonPoseComputeLocalQEPKNS0_8SkeletonEPKNS0_13SkeletonPoseTIN4math4trsXEEEPS7_ii
fCi:_MethodCall_Init_m3987198685
qyj:__ZN6il2cpp2os19ReleaseSocketHandleEj
XYf:__ZL59ApplicationTrust_t3968282840_CustomAttributesCacheGeneratorP21CustomAttributesCache
aQf:__ZL128SafeHandleZeroOrMinusOneIsInvalid_t1177681199_CustomAttributesCacheGenerator_SafeHandleZeroOrMinusOneIsInvalid__ctor_m3340306667P21CustomAttributesCache
AEj:__ZN15dense_hashtableINSt3__24pairIK10KeyWrapperIPK19Il2CppGenericMethodEP10MethodInfoEES6_N6il2cpp8metadata23Il2CppGenericMethodHashEN14dense_hash_mapIS6_S9_SD_NS6_14EqualsComparerINSC_26Il2CppGenericMethodCompareEEENS0_9allocatorISA_EEE9SelectKeyESH_SJ_E5clearEv
LXg:_TypeBuilder_GetPropertyImpl_m1854119335
lTg:_TypeBuilder_get_next_table_index_m1415870184
aTj:___cxa_can_catch
Eof:_SequentialSearchPrimeGeneratorBase_GenerateNewPrime_m296245934
nud:_Char_GetUnicodeCategory_m4273361321
W9h:__Z68RuntimeInvoker_Boolean_t3825574718_Il2CppObject_ObjectU26_t597476745PK10MethodInfoPvPS2_
lXa:__ZN6Camera28DefaultPerformRenderFunctionD0Ev
U8e:_Math_Round_m565516458
xzi:_Identity_get_ClientDynamicProperties_m767245959
aEh:_InternalEnumerator_1__ctor_m675130983_AdjustorThunk
Akh:_Dictionary_2_Clear_m899854001_gshared
KAj:__ZN6il2cpp2os5posix15PosixWaitObjectC2ENS2_4TypeE
KBb:__Z23AppendPathNameExtensionRKN4core12basic_stringIcNS_20StringStorageDefaultIcEEEES5_
jfg:__ZL83Canvas_t209405766_CustomAttributesCacheGenerator_Canvas_get_scaleFactor_m1115379735P21CustomAttributesCache
CXg:_TypeBuilder_create_generic_class_m986834171
G1i:__ZL24UnresolvedVirtualCall_34P12Il2CppObjectS0_PK10MethodInfo
CYj:_emscripten_glVertexPointer__wrapper
Esa:__ZN23ShaderVariantCollection13WarmupShadersEv
Muf:_Context_set_ProtocolNegotiated_m1177527245
Bti:_AnimatorControllerPlayable_INTERNAL_CALL_GetAnimatorTransitionInfoInternal_m2259454958
KMg:_UInt32_System_IConvertible_ToChar_m1056040486
C3:__Z25GetCommonScriptingClassesv
tAf:_TlsStream_get_Length_m1562309511
Qna:__Z27scripting_gc_collect_unsafei
XO:__ZN11AudioModule20SuspendVideoTexturesEv
Dxd:_CaseInsensitiveComparer__ctor_m1125492797
f2b:__ZN12CubemapArrayC2E18MemLabelIdentifier18ObjectCreationMode
oCd:_Convert_ToByte_m395020137
MKb:__Z26Transfer_UnityEngineObjectI24GenerateTypeTreeTransferLb0EEvRK29SerializationCommandArgumentsR31RuntimeSerializationCommandInfo
vWc:_UNITY_FT_GlyphLoader_CheckPoints
Jye:_List_1_System_Collections_ICollection_CopyTo_m1995866425_gshared
oBc:__ZN16b2PolygonContact7DestroyEP9b2ContactP16b2BlockAllocator
c8e:_TextWriter_WriteLine_m1754475888
okb:__ZN15SharedLightData7PrecalcEv
zoa:__ZN10Matrix4x4fmLERKS_
zUi:_InvokableCall_1_Invoke_m769918017_gshared
Vp:__ZN4PPtrI9TransformE8TransferI18StreamedBinaryReadILb0EEEEvRT_
dme:_Array_InternalArray__get_Item_TisDouble_t4078015681_m2215331088_gshared
eZf:__ZL57PrincipalPolicy_t289802916_CustomAttributesCacheGeneratorP21CustomAttributesCache
deb:__ZN19StreamedBinaryWriteILb0EE19TransferSTLStyleMapINSt3__28multimapIN4core12basic_stringIcNS4_20StringStorageDefaultIcEEEEN11AssetBundle9AssetInfoENS2_4lessIS8_EENS2_9allocatorINS2_4pairIKS8_SA_EEEEEEEEvRT_17TransferMetaFlags
cJe:_Collection_1_ClearItems_m3446813399_gshared
skh:_Dictionary_2_Init_m3666073812_gshared
$ze:_List_1_AsReadOnly_m1681105545_gshared
RMa:__ZN15ArchiveReadFileD0Ev
Ojf:_SymmetricTransform_TransformBlock_m1524716432
A8:__ZN18ConcurrentFreeListI28FileTextureUploadInstructionE7CleanUpEv
gce:_Array_compare_TisColor32_t874517518_m3842009370_gshared
n6c:__ZN11UnityEngine15PlatformWrapper18GetOperatingSystemEv
ICa:__ZNSt3__26vectorIP14DataBufferGLESNS_9allocatorIS2_EEE21__push_back_slow_pathIKS2_EEvRT_
_Lh:_InternalEnumerator_1__ctor_m2458691472_AdjustorThunk
ISe:_ReadOnlyCollection_1_System_Collections_Generic_ICollectionU3CTU3E_Remove_m974176789_gshared
TKd:_Delegate_return_type_match_m4278947849
Z5d:_InputField_GenerateHightlight_m1346735465
qHi:_Uri_ParseNoExceptions_m1151989845
HBd:_GC_SuppressFinalize_m953228702
rWc:_FT_MSB
nzf:_InternalAsyncResult_get_ProceedAfterHandshake_m552962842
W6g:_GUIStyle_get_clipping_m2754700641
brj:__ZN15dense_hashtableINSt3__24pairIK10KeyWrapperINS1_IP11Il2CppClassjEEES4_EES6_N6il2cpp8metadata14ArrayClassHashEN14dense_hash_mapIS6_S4_SB_NS6_14EqualsComparerINSA_17ArrayClassCompareEEENS0_9allocatorIS8_EEE9SelectKeyESF_SH_E3endEv
v_h:__Z50RuntimeInvoker_SByte_t454417549_Double_t4078015681PK10MethodInfoPvPS2_
Pgg:__ZL72GUISkin_t1436893342_CustomAttributesCacheGenerator_m_verticalSliderThumbP21CustomAttributesCache
rMj:__ZN6il2cpp6icalls8mscorlib4Mono8Security12Cryptography18KeyPairPersistence10_CanSecureEP12Il2CppString
Kig:__ZL96CustomEventData_t1269126727_CustomAttributesCacheGenerator_CustomEventData_AddUInt16_m3349298376P21CustomAttributesCache
QBh:_Action_1_Invoke_m4180501989_gshared
Uyh:_Slider__ctor_m3124136916
LNh:_DefaultComparer__ctor_m3180706193_gshared
CAe:_List_1_System_Collections_Generic_IEnumerableU3CTU3E_GetEnumerator_m3625278020_gshared
eua:__ZN13GfxDeviceGLES14SetRasterStateEPK17DeviceRasterState
Wya:__ZNK13TranslateGLES11BlendFactorE9BlendMode
nGb:__Z30TransferField_LinearCollectionI14SafeBinaryReadEvRK29SerializationCommandArgumentsR31RuntimeSerializationCommandInfo
P4d:_InputField_set_caretPositionInternal_m231166704
APi:_Transform_InverseTransformPoint_m2648491174
guf:_TlsServerHello__ctor_m3032108168
yda:__ZN14SafeBinaryRead11EndTransferEv
KSf:__ZL98ILGenerator_t99948092_CustomAttributesCacheGenerator_ILGenerator_Mono_GetCurrentOffset_m3553856682P21CustomAttributesCache
DU:__ZNK3WWW12GetAudioClipEv
CGb:__ZN14SafeBinaryRead8TransferI8MonoPPtrEEvRT_PKc17TransferMetaFlags
Gmh:_Dictionary_2_System_Collections_Generic_ICollectionU3CSystem_Collections_Generic_KeyValuePairU3CTKeyU2CTValueU3EU3E_Remove_m1705959559_gshared
nNa:__ZN24dense_hashtable_iteratorINSt3__24pairIKN4core12basic_stringIcNS2_20StringStorageDefaultIcEEEEP20ArchiveStorageReaderEES6_20StringHash32FunctionIS6_EN14dense_hash_mapIS6_S9_SC_NS0_8equal_toIS6_EE13stl_allocatorISA_L18MemLabelIdentifier54ELi16EEE9SelectKeyESF_SI_EppEv
ILh:_InternalEnumerator_1_System_Collections_IEnumerator_get_Current_m1533037706_gshared
h9f:__ZL111MonoBehaviour_t1158329972_CustomAttributesCacheGenerator_MonoBehaviour_StartCoroutine_Auto_Internal_m1014513456P21CustomAttributesCache
QFa:__ZN21UniformBufferTFMethod13MapBoneBufferEj
Yxf:_RecordProtocol_SendChangeCipherSpec_m3542001341
mie:_Array_InternalArray__set_Item_TisVector3_t2243707580_m1390667454_gshared
xlc:__ZN12GUIClipState10BeginOnGUIER10InputEvent
Vsj:__ZNSt3__26vectorIcNS_9allocatorIcEEEC2Ej
Lhf:_KeyPairPersistence_CanSecure_m2251009700
RNa:__ZZ23InitPlayerLoopCallbacksvEN27FixedUpdateClearLinesstruct7ForwardEv
NCb:__ZN9TextAsset15ThreadedCleanupEv
Uug:_ReturnMessage_get_Properties_m531965085
mVg:_GenericTypeParameterBuilder_IsSubclassOf_m563999142
rOd:_Exception_ToString_m627574695
AMc:__ZNSt3__26vectorIN20TextRenderingPrivate8FontImpl7IntRectE13stl_allocatorIS3_L18MemLabelIdentifier34ELi16EEE21__push_back_slow_pathIKS3_EEvRT_
w$:__Z21CompleteFenceInternalR8JobFence
gnc:__Z30Event_Get_Custom_PropModifiersP12Il2CppObject
Zjj:__ZN30dense_hashtable_const_iteratorINSt3__24pairIK10KeyWrapperINS1_IPK9FieldInfoP11Il2CppClassEEEjEES9_17ReflectionMapHashIS8_EN14dense_hash_mapIS9_jSD_NS9_14EqualsComparerINS0_8equal_toIS8_EEEENS0_9allocatorISB_EEE9SelectKeyESI_SK_E30advance_past_empty_and_deletedEv
Ymh:_Dictionary_2_ContainsValue_m2375979648_gshared
ux:__ZN7mecanim9animation16CreateClipOutputEPKNS0_4ClipERNS_6memory9AllocatorE
ru:__ZN7mecanim9animation23ClearAnimationNodeStateEPNS0_18AnimationNodeStateEb
Bge:_Array_InternalArray__Insert_TisDecimal_t724701077_m1429254816_gshared
OYi:_ListPool_1_Get_m2998644518_gshared
GQb:__ZN18StreamedBinaryReadILb0EE21TransferSTLStyleArrayI13dynamic_arrayIyLj8EEEEvRT_17TransferMetaFlags
SBa:__ZN18AsyncUploadManager17DoScaledPaddedJobEP28FileTextureUploadInstruction
isa:__ZNSt3__218__stable_sort_moveIRN10vector_mapI17ScriptingClassPtrPKN5Unity4TypeENS_4lessIS2_EENS_9allocatorINS_4pairIS2_S6_EEEEE13value_compareENS_11__wrap_iterIPSB_EEEEvT0_SJ_T_NS_15iterator_traitsISJ_E15difference_typeEPNSM_10value_typeE
HRb:__ZN6Shader21AwakeFromLoadThreadedEv
Gka:__ZN6prcoreL17RemapGenericFloatI17TexFormatRGBFloat17TexFormatRGBAHalfEEvPKNS_9InnerInfoE
qpg:__ZL70InputField_t1631627530_CustomAttributesCacheGenerator_m_CharacterLimitP21CustomAttributesCache
rBe:_List_1_get_Capacity_m2443158653_gshared
Vvc:__ZN8JSONRead21TransferSTLStyleArrayI13dynamic_arrayI8Vector2fLj4EEEEvRT_18MemLabelIdentifier17TransferMetaFlags
A8g:_LayerMask_op_Implicit_m2135076047
z9c:__ZN13RuntimeStaticINSt3__26vectorIjNS0_9allocatorIjEEEELb0EE16StaticInitializeEPv
vNj:__ZN6il2cpp2os9SemaphoreC2Eii
_Dh:_InternalEnumerator_1_get_Current_m2960188445_AdjustorThunk
EGb:__ZNSt3__26vectorI8MonoPPtr13stl_allocatorIS1_L18MemLabelIdentifier1ELi16EEE8__appendEj
tAh:_Text_set_alignByGeometry_m1514652028
wVa:__ZN14qsort_internal30FindAndMovePivotToLastPositionIP17RODataReplacementi19ROSorterReplacementEEvT_S4_T0_T1_
$Fa:__ZN15UniformTFMethod20IsBoneCountSupportedEi
nbh:_Object_Internal_InstantiateSingle_m2776302597
Gfd:_X509Certificate_GetExpirationDateString_m2351894475
h4e:_FileStream_get_Position_m465478322
v7i:__ZN14dense_hash_setI10KeyWrapperIPK19Il2CppGenericMethodEN6il2cpp8metadata23Il2CppGenericMethodHashENS4_14EqualsComparerINS6_26Il2CppGenericMethodCompareEEENSt3__29allocatorIS4_EEEC2EjRKS7_RKSA_
VUj:dynCall_viidi
Fge:_Array_InternalArray__Insert_TisInt64_t909078037_m3039874636_gshared
xrd:_Convert_ToInt16_m1787678274
dBh:_ToggleGroup_NotifyToggleOn_m997426227
gyf:_RSASslSignatureDeformatter_SetKey_m1150106904
bgg:__ZL74Event_t3028476042_CustomAttributesCacheGenerator_Event_Cleanup_m1195902101P21CustomAttributesCache
J_:__ZN24ScriptingMethodFiltering17FilterOnSignatureENS_18MethodSearchFilterE
ESg:_TypeBuilder_get_Module_m1668298460
Mvh:_Scrollbar_ClickRepeat_m3403943364
nO:__ZN13ProduceHelperI9AudioClipLb0EE7ProduceE18MemLabelIdentifier18ObjectCreationMode
gW:__ZN18ScreenManagerWebGL13SetLockCursorE14CursorLockMode
PVc:_cf2_arrstack_finalize
yaf:_MonoType_GetMethodsByName_m1854415088
uTg:_DerivedType_GetMethods_m165266904
tjf:_RSAManaged_EncryptValue_m4089823119
t$b:__ZN13MonoBehaviour19HandleNotificationsEPviR11MessageData
YNj:__ZN6il2cpp2os9EventImpl5ResetEv
Mnh:_DefaultComparer_GetHashCode_m926363525_gshared
E5g:_GUIStyle_set_focused_m1547304893
Mwh:_ScrollRect_get_verticalScrollbar_m2455612493
h7h:__Z69RuntimeInvoker_Void_t1841601450_Int32_t2071877448_HitInfo_t1761367055PK10MethodInfoPvPS2_
Wea:__ZNK11NamedObject26GetTypeInfoVirtualInternalEv
X4e:_ReadDelegate_Invoke_m2091885836
DUg:_TypeBuilder_GetField_m2112455315
MXj:b58
NXj:b59
uXj:b52
vXj:b53
sXj:b50
p8h:__Z51RuntimeInvoker_Vector4_t2243707581_SByte_t454417549PK10MethodInfoPvPS2_
KXj:b56
LXj:b57
GXj:b54
JXj:b55
pff:_Kernel_Multiply_m3585610531
Frf:_CertificateSelectionCallback_EndInvoke_m3525317639
ML:__ZN4PPtrI15AudioMixerGroupE8TransferI18StreamedBinaryReadILb0EEEEvRT_
ySh:__Z67RuntimeInvoker_Void_t1841601450_Int32_t2071877448_Int16_t4041245914PK10MethodInfoPvPS2_
RGd:_DateTime__ctor_m3604679583_AdjustorThunk
_ag:__ZL96Transform_t3275118058_CustomAttributesCacheGenerator_Transform_INTERNAL_get_position_m1881704498P21CustomAttributesCache
Gig:__ZL94CustomEventData_t1269126727_CustomAttributesCacheGenerator_CustomEventData_AddChar_m1103619816P21CustomAttributesCache
cqd:_SimpleEnumerator_Reset_m1341779532
sij:__ZNSt3__214__split_bufferINS_12basic_stringIcNS_11char_traitsIcEENS_9allocatorIcEEEERNS4_IS6_EEEC2EjjS8_
Iif:_MACAlgorithm_Core_m2390605245
MKh:_InternalEnumerator_1_System_Collections_IEnumerator_get_Current_m30488070_gshared
n_b:__ZN10GameObject12CleanupClassEv
tHh:_InternalEnumerator_1_System_Collections_IEnumerator_Reset_m2624612805_AdjustorThunk
$Of:__ZL108ArrayReadOnlyList_1_t3367196019_CustomAttributesCacheGenerator_ArrayReadOnlyList_1_GetEnumerator_m3031680693P21CustomAttributesCache
Cwi:_DllImportAttribute__ctor_m1165454237
Jua:__ZN9GfxDevice25SetShaderPropertiesSharedERK19ShaderPropertySheet
MXi:_IndexedSet_1_GetEnumerator_m3646001838_gshared
tCb:__ZN10MonoScript17MainThreadCleanupEv
t7b:__ZN19SpriteMeshGenerator4path9clip_edgeEi
guh:_VertexHelper_AddUIVertexTriangleStream_m4009409241
rOh:_Comparer_1__ctor_m844571340_gshared
r3b:__ZL25InitializeDefaultMaterialv
Vgb:__ZN21ArchiveStorageCreatorD2Ev
LIg:_WaitHandle_Dispose_m441403862
rKa:__ZN19FileAccessorHandlerD2Ev
$Oh:_Comparer_1__ctor_m2941434245_gshared
HBh:_VertexHelper_AddVert_m3290455716
JYf:__ZL56SHA256Managed_t2029745292_CustomAttributesCacheGeneratorP21CustomAttributesCache
GSf:__ZL126GenericTypeParameterBuilder_t1370236603_CustomAttributesCacheGenerator_GenericTypeParameterBuilder_MakeGenericType_m2955814622P21CustomAttributesCache
vra:__ZN17PersistentManager12UnloadStreamERKN4core12basic_stringIcNS0_20StringStorageDefaultIcEEEEb
THc:__ZN19CompositeCollider2D22SimplifyCompositePathsERKNSt3__26vectorINS1_IN10ClipperLib8IntPointENS0_9allocatorIS3_EEEENS4_IS6_EEEERS8_
ZV:__ZN13ScreenManager17RequestResolutionEiibi
UCg:_DESTransform__ctor_m4096028381
Bgj:_il2cpp_unity_liveness_calculation_from_statics
lIg:_Scheduler_get_Instance_m1989471839
M2h:__Z61RuntimeInvoker_Void_t1841601450_CullingGroupEvent_t1057617917PK10MethodInfoPvPS2_
JEf:_WebRequest_System_Runtime_Serialization_ISerializable_GetObjectData_m3377822910
Qqb:__ZN8Renderer8TransferI17RemapPPtrTransferEEvRT_
tIe:_Collection_1_Contains_m1299140035_gshared
IXj:_glBlitFramebuffer__wrapper
Fne:_ExecuteEvents_ExecuteHierarchy_TisIl2CppObject_m2541874163_gshared
ffe:_Array_InternalArray__ICollection_Add_TisUICharInfo_t3056636800_m968274080_gshared
WYi:_ObjectPool_1__ctor_m1532275833_gshared
Ixa:__ZN13GfxDeviceGLES19SetSinglePassStereoE16SinglePassStereo
p2i:__ZL24UnresolvedVirtualCall_71P12Il2CppObjectS0_S0_iS0_S0_S0_PK10MethodInfo
fNf:__ZL64IntPtr_t_CustomAttributesCacheGenerator_IntPtr__ctor_m3803259710P21CustomAttributesCache
fAe:_List_1_GetIndex_m3262928832_gshared
kxi:_SafeHandle_DangerousRelease_m2167699172
P3a:__Z24LookRotationToQuaternionRK8Vector3fS1_P11Quaternionf
N3a:__ZN16ReflectionProbes9GetCameraEv
WVb:__ZL18IsGpuProgramUsable20ShaderGpuProgramTypePK6Shader
Xmf:_ArgumentException__ctor_m2105824819
N0c:__ZN2UI6Canvas17SetSortingLayerIDEi
GWd:_BaseMeshEffect_get_graphic_m3358796463
HAj:__ZN6il2cpp2vm11MethodStack23CleanupForCurrentThreadEv
u5i:__ZL25UnresolvedVirtualCall_238P12Il2CppObject19Vector4_t2243707581PK10MethodInfo
iTi:_Predicate_1_Invoke_m695569038_gshared
Noe:_Enumerator_VerifyState_m825848279_AdjustorThunk
Xkb:__ZN20TierGraphicsSettings8TransferI24GenerateTypeTreeTransferEEvRT_
fii:_UnityAnalyticsHandler_t3238795095_marshal_pinvoke_back
_Hb:__ZN14SafeBinaryRead21TransferSTLStyleArrayI13dynamic_arrayI4AABBLj4EEEEvRT_17TransferMetaFlags
dia:__ZN18UnityPropertySheet8TransferI19StreamedBinaryWriteILb0EEEEvRT_
uwf:_TlsServerCertificate_checkServerIdentity_m3836435780
r9:__ZNSt3__26__treeINS_12__value_typeIiN11TypeManager18TypeCallbackStructEEENS_19__map_value_compareIiS4_NS_4lessIiEELb1EEENS_9allocatorIS4_EEE7destroyEPNS_11__tree_nodeIS4_PvEE
vkf:_PKCS12_Decrypt_m2353135969
Xqi:_PersistentCallGroup_Initialize_m3908067069
QZg:_MonoEvent_ToString_m386956596
njg:__ZL70RuntimePlatform_t1869584967_CustomAttributesCacheGenerator_FlashPlayerP21CustomAttributesCache
qCb:__ZN39AssetBundleLoadFromStreamAsyncOperationC2ERKN4core12basic_stringIcNS0_20StringStorageDefaultIcEEEE
bUd:_PointerEventData_get_pointerPress_m880101744
Jea:__ZL19GetCameraTargetRectRK6Camerabb
nhh:_Transform_1_BeginInvoke_m1786442111_gshared
T_e:_Int32_GetFormatException_m1729046182
J4a:__ZN13dynamic_arrayIN10GameObject13ComponentPairELj4EE6insertEPS1_RKS1_
mEe:_Collection_1_get_Count_m3834276648_gshared
jcb:__ZN21UnityDefaultAllocatorI17LowLevelAllocatorE10DeallocateEPv
GY:__GLOBAL__sub_I_runtime_camera2_lump_cpp
ur:__ZN15PackedIntVector8TransferI14SafeBinaryReadEEvRT_
nYg:_FieldInfo_get_IsLiteral_m267898096
rCa:__ZN17SharedTextureDataD0Ev
uzf:_SslStreamBase_EndNegotiateHandshake_m1732321201
zhh:_Transform_1_BeginInvoke_m1167293475_gshared
PH:__ZN13AudioListener8DoUpdateEv
eMf:__ZL71SByte_t454417549_CustomAttributesCacheGenerator_SByte_Parse_m1620039654P21CustomAttributesCache
jCd:__Z13bankers_roundd
Zyb:__ZN14SafeBinaryRead8TransferI5RectTIfEEEvRT_PKc17TransferMetaFlags
vi:_emscripten_glGenFramebuffers
pzd:_Hashtable_CopyTo_m2778915805
m9:__ZN17BaseObjectManager16StaticInitializeEPv
KSg:_ConstructorBuilder_get_IsCompilerContext_m2796899803
j6f:__ZL97Component_t3819376471_CustomAttributesCacheGenerator_Component_GetComponentsInChildren_m843288020P21CustomAttributesCache
vfi:__Z37RuntimeInvoker_UICharInfo_t3056636800PK10MethodInfoPvPS2_
Vce:_Array_IndexOf_TisUIVertex_t1204258818_m613887160_gshared
aAb:__ZN18StreamedBinaryReadILb0EE19TransferSTLStyleMapINSt3__28multimapIN4core12basic_stringIcNS4_20StringStorageDefaultIcEEEE4PPtrI6ObjectENS2_4lessIS8_EE13stl_allocatorINS2_4pairIKS8_SB_EEL18MemLabelIdentifier51ELi16EEEEEEvRT_17TransferMetaFlags
DZd:_FloatTween_GetDuration_m1757342579_AdjustorThunk
KCd:_DateTime_CoreParse_m2014268103
Jxe:_List_1__ctor_m3698273726_gshared
SFc:__ZN24ParticleIntersectQuery2D18ReportFixtureProxyEPK14b2FixtureProxy
S3c:__ZN21UnityAnalyticsManager23VirtualRedirectTransferER19StreamedBinaryWriteILb0EE
csc:__Z18Transfer_BlittableI9JSONWriteLb0EyEvRK29SerializationCommandArgumentsR31RuntimeSerializationCommandInfo
Pea:__ZN13RenderTexture15ThreadedCleanupEv
W6:__ZN15dense_hashtableINSt3__24pairIKiiEEi21InstanceIDHashFunctorN14dense_hash_mapIiiS4_NS0_8equal_toIiEE13stl_allocatorIS3_L18MemLabelIdentifier130ELi16EEE9SelectKeyES7_SA_E9copy_fromERKSD_j
unb:__ZN12CubemapArray23VirtualRedirectTransferER14SafeBinaryRead
zCg:_CryptographicException__ctor_m1012314467
PSe:_ReadOnlyCollection_1_System_Collections_IList_Add_m616574295_gshared
U_e:_Int32_ProcessTrailingWhitespace_m2812079777
Yna:__ZN18ProceduralMaterial9ReloadAllEbb
Zhc:__Z43RectTransform_CUSTOM_INTERNAL_set_sizeDeltaP12Il2CppObjectRK13Vector2fIcall
xEf:_WebProxy__ctor_m3679722173
rGh:_InternalEnumerator_1_Dispose_m2743309309_AdjustorThunk
Wyj:__ZN15dense_hashtableINSt3__24pairIK10KeyWrapperINS1_IPKcS4_EEEiEES6_24NamespaceAndNamePairHashN14dense_hash_mapIS6_iS9_NS6_14EqualsComparerI26NamespaceAndNamePairEqualsEENS0_9allocatorIS8_EEE9SelectKeyESD_SF_E6insertERKS8_
Uda:__ZN24GenerateTypeTreeTransfer18BeginArrayTransferEPKcS1_Ri17TransferMetaFlags
lBa:__Z16DecompressCrunchPKhRjR13TextureFormatiiii18MemLabelIdentifier
tCe:_List_1__ctor_m2082969060_gshared
nm:___syscall51
rm:___syscall54
Rzj:__ZNSt3__26__treeINS_12__value_typeIP24Il2CppReflectionAssemblyPvEENS_19__map_value_compareIS3_S5_NS_4lessIS3_EELb1EEENS_9allocatorIS5_EEE12__find_equalIS3_EERPNS_16__tree_node_baseIS4_EESH_RKT_
NQh:__Z107RuntimeInvoker_Boolean_t3825574718_SByte_t454417549_Il2CppObject_Int32_t2071877448_ExceptionU26_t1467204777PK10MethodInfoPvPS2_
PVi:_UnityAction_2_Invoke_m1994351568_gshared
jii:_UnityAnalyticsHandler_Dispose_m1048126775
oMb:__Z18Transfer_BlittableI19StreamedBinaryWriteILb0EELb1EjEvRK29SerializationCommandArgumentsR31RuntimeSerializationCommandInfo
gs:__ZNK8Animator20IsAnyRendererVisibleEv
_2i:__ZL25UnresolvedVirtualCall_108P12Il2CppObjectS0_28StreamingContext_t1417235061PK10MethodInfo
wWc:_cff_builder_add_point1
$zj:__ZN6il2cpp2vm5Image21GetCachedResourceDataEPK11Il2CppImageRKNSt3__212basic_stringIcNS5_11char_traitsIcEENS5_9allocatorIcEEEE
q2d:_HorizontalOrVerticalLayoutGroup_set_childControlWidth_m4209477792
Vee:_Array_InternalArray__ICollection_Add_TisUInt32_t2149682021_m2629016323_gshared
CFb:__Z18Transfer_BlittableI14SafeBinaryReadLb0E10ColorRGBAfEvRK29SerializationCommandArgumentsR31RuntimeSerializationCommandInfo
DOf:__ZL65Il2CppArray_CustomAttributesCacheGenerator_Array_Sort_m3002148658P21CustomAttributesCache
Ba:invoke_iiiiiiiiii
RN:__ZNK7Texture10GetVRUsageEv
pna:__ZN18LoadSceneOperation19IntegrateTimeSlicedEi
wIg:_Scheduler_SchedulerThread_m2209572785
Adf:_SortKeyBuffer_GetResultAndReset_m2516956577
U9a:__ZN10FileSystem19SetCurrentDirectoryERKN4core12basic_stringIcNS0_20StringStorageDefaultIcEEEE
XYi:_ObjectPool_1_get_countAll_m4217365918_gshared
X3:__ZN16ScriptingManager24NotifyScriptCacheReleaseEi
C4f:__ZL85UriParser_t1012511323_CustomAttributesCacheGenerator_UriParser_OnRegister_m4010407891P21CustomAttributesCache
tSf:__ZL63UnmanagedMemoryStream_t822875729_CustomAttributesCacheGeneratorP21CustomAttributesCache
Zcc:__Z47Register_UnityEngine_Coroutine_ReleaseCoroutinev
BI:__ZN15AudioReverbZone13SetFMODValuesEv
Yni:_Component_GetComponentInChildren_m3925629424
h1:__ZL19StaticDestroyShaderPv
he:_glRenderbufferStorageMultisample
Dvg:_SoapTypeAttribute_get_XmlTypeName_m2546866572
fA:__ZN23AnimationPlayableOutput17SetTargetAnimatorEP8Animator
AOe:_ReadOnlyCollection_1_System_Collections_IList_get_IsFixedSize_m158012227_gshared
QKi:_X509Chain__ctor_m1113875360
lIb:__Z35Transfer_Blittable_SingleValueFieldI14SafeBinaryReadfEvRT_R17GeneralMonoObjectRK23StaticTransferFieldInfo
Pwf:_TlsServerHello_processProtocol_m1241336522
T2f:__ZL79ModulusRing_t80355992_CustomAttributesCacheGenerator_ModulusRing_Pow_m661630322P21CustomAttributesCache
FEh:_InternalEnumerator_1_System_Collections_IEnumerator_Reset_m324760031_AdjustorThunk
lAi:_ContextAttribute_IsContextOK_m3281216012
g6e:_PathTooLongException__ctor_m3212099251
W1j:_pthread_cond_broadcast__wrapper
Hzg:_ObjectManager_RaiseDeserializationEvent_m1611173032
Dr:__ZN17PackedFloatVector8TransferI18StreamedBinaryReadILb0EEEEvRT_
E7f:__ZL88Screen_t786852042_CustomAttributesCacheGenerator_Screen_t786852042____width_PropertyInfoP21CustomAttributesCache
Vnb:__ZN7Cubemap23VirtualRedirectTransferER17RemapPPtrTransfer
UPa:_longest_match_fast
h$d:_DropdownItem_get_image_m2752143412
e2i:__ZL24UnresolvedVirtualCall_60P12Il2CppObjectaPK10MethodInfo
F6b:__ZN22BlockMemoryCacheWriter11GetPathNameEv
I0d:_Graphic_Rebuild_m2617722358
aVf:__ZL86SafeHandle_t2733794115_CustomAttributesCacheGenerator_SafeHandle_SetHandle_m1980208835P21CustomAttributesCache
CUi:_InvokableCall_1__ctor_m563785030_gshared
pId:_DateTime_ToString_m3108726445_AdjustorThunk
AQ:__ZN19CloudServiceHandlerD2Ev
k6a:__ZN13dynamic_arrayIN23ReflectionProbesContext23ReflectionProbeCubeInfoELj4EE18resize_initializedEjRKS1_12ResizePolicy
Ple:_Array_InternalArray__get_Item_TisTableRange_t2011406615_m602485977_gshared
S5d:_InputField_Append_m2623574152
aF:__Z116Register_UnityEngine_Experimental_Director_AnimatorControllerPlayable_INTERNAL_CALL_GetNextAnimatorStateInfoInternalv
Qmf:_ApplicationException__ctor_m1120437222
u_g:_MonoMethod__ctor_m4091684020
hp:stackAlloc
sdc:__Z44Camera_CUSTOM_INTERNAL_CALL_ScreenPointToRayP12Il2CppObjectRK8Vector3fR3Ray
aLa:__ZN25SingleBlockMemoryFileData4LockEPPv
WLa:__ZN12HandlerChain5TouchER13FileEntryData
KWg:_MethodBuilder_GetHashCode_m1713271764
F7b:__ZN15dense_hashtableINSt3__24pairIK12TriangleEdgeiEES2_16TriangleEdgeHashN14dense_hash_mapIS2_iS5_NS0_8equal_toIS2_EENS0_9allocatorIS4_EEE9SelectKeyES8_SA_E12resize_deltaEjj
Wwi:_Marshal__cctor_m802981325
tEe:_Collection_1_IsSynchronized_m1319022347_gshared
Kcf:_MSCompatUnicodeTable_GetResource_m3816716847
Eec:__Z32RectOffset_Get_Custom_PropBottomP12Il2CppObject
K_h:__Z49RuntimeInvoker_UInt16_t986882611_Int64_t909078037PK10MethodInfoPvPS2_
apd:_Array_CreateInstance_m15016505
O9f:__ZL103DataUtility_t4181890362_CustomAttributesCacheGenerator_DataUtility_INTERNAL_CALL_GetPadding_m1621366113P21CustomAttributesCache
yHb:__ZNSt3__26vectorI17AnimationCurveTplIfE13stl_allocatorIS2_L18MemLabelIdentifier1ELi16EEE6assignINS_11__wrap_iterIPS2_EEEENS_9enable_ifIXaasr21__is_forward_iteratorIT_EE5valuesr16is_constructibleIS2_NS_15iterator_traitsISC_E9referenceEEE5valueEvE4typeESC_SC_
cQj:_stat
Vbd:_RijndaelTransform_Decrypt128_m1282993908
Vfe:_Array_InternalArray__ICollection_CopyTo_TisUInt16_t986882611_m3228377237_gshared
rse:_List_1_Add_m4157722533_gshared
$pg:__ZL68Navigation_t1571958496_CustomAttributesCacheGenerator_m_SelectOnDownP21CustomAttributesCache
kli:_Bounds_op_Inequality_m2315096783
azc:__ZN15b2DistanceJoint23InitVelocityConstraintsERK12b2SolverData
Usa:__ZNSt3__218__insertion_sort_3IRNS_4lessIN22BuiltinResourceManager8ResourceEEEPS3_EEvT0_S7_T_
soi:_Component_BroadcastMessage_m1308086896
nbd:_RC2_set_KeySize_m2015782960
ma:invoke_iiiiiiiiiiii
aKe:_Collection_1_SetItem_m3715941382_gshared
YXe:_NumberFormatInfo_get_CurrencyGroupSeparator_m2480433019
jkf:_StrongName_get_PublicKey_m3777577320
d5f:__ZL120AssetBundleCreateRequest_t1038783543_CustomAttributesCacheGenerator_AssetBundleCreateRequest_get_assetBundle_m2931245245P21CustomAttributesCache
jwi:_RuntimeCompatibilityAttribute__ctor_m1331212510
vfc:__Z43Register_UnityEngine_GameObject_SendMessagev
N6:__ZNSt3__26__treeINS_12__value_typeIN4core12basic_stringIcNS2_20StringStorageDefaultIcEEEES6_EENS_19__map_value_compareIS6_S7_NS_4lessIS6_EELb1EEE13stl_allocatorIS7_L18MemLabelIdentifier12ELi16EEE7destroyEPNS_11__tree_nodeIS7_PvEE
L$i:__ZN6il2cpp2vm17SetupFieldsLockedEP11Il2CppClassRKNS_2os12FastAutoLockE
WL:__ZN11AudioSourceD0Ev
Imi:_CanvasRenderer_set_hasPopInstruction_m1388844875
Yte:_List_1_System_Collections_ICollection_CopyTo_m1530390632_gshared
HLe:_Collection_1_System_Collections_IEnumerable_GetEnumerator_m1452790461_gshared
dGh:_InternalEnumerator_1_System_Collections_IEnumerator_Reset_m3194282029_AdjustorThunk
uab:__ZN16MemoryFileSystem4NameEv
jwe:__ZN21InterfaceFuncInvoker0I18Color32_t874517518E6InvokeEjP11Il2CppClassP12Il2CppObject
uRd:_BaseRaycaster_OnEnable_m3641767070
mCe:_List_1_ToArray_m2810936944_gshared
CVe:_Func_2_BeginInvoke_m669892004_gshared
zof:_PrimeGeneratorBase_get_PrimalityTest_m308005118
QNf:__ZL71Enum_t2459695545_CustomAttributesCacheGenerator_Enum_Format_m2294492821P21CustomAttributesCache
F6g:_GUIStyle_Internal_CalcSize_m1309259680
Jmc:__ZNK8GUIStyle8CalcSizeER10GUIContent
Ete:_List_1_CheckIndex_m2328469916_gshared
RCe:_List_1_AddRange_m3345533268_gshared
tNc:_UNITY_FT_New_Size
Aac:__Z42ScriptingGetComponentsOfTypeFromGameObjectRK26ScriptingGetComponentsArgs
oDe:_List_1_get_Item_m3157283227_gshared
_be:__ZN21InterfaceFuncInvoker2Ii38CustomAttributeNamedArgument_t94157543S0_E6InvokeEjP11Il2CppClassP12Il2CppObjectS0_S0_
kVi:_InvokableCall_4_Invoke_m1555001411_gshared
PFd:_Convert_ToString_m2915777777
Gia:__ZNSt3__27__sort4IRPFbRKNS_4pairIN9ShaderLab16FastPropertyNameEN18UnityPropertySheet11UnityTexEnvEEES8_EPS6_EEjT0_SD_SD_SD_T_
LVc:_cf2_hintmap_build
O4h:__Z92RuntimeInvoker_AnimatorStateInfo_t2577870592_PlayableHandleU26_t3483893774_Int32_t2071877448PK10MethodInfoPvPS2_
zTc:_Line_Up
fbf:_MonoType_GetGenericTypeDefinition_m2363776160
$Tf:__ZL62ParameterAttributes_t1266705348_CustomAttributesCacheGeneratorP21CustomAttributesCache
Wuf:_Context_set_SentConnectionEnd_m2641458842
oe:_emscripten_glBufferSubData
lsd:_Buffer_BlockCopyInternal_m2627156229
jJb:__Z18Transfer_BlittableI17RemapPPtrTransferLb1EyEvRK29SerializationCommandArgumentsR31RuntimeSerializationCommandInfo
B0d:_Graphic_set_material_m329335629
dRd:_ExecuteEvents_get_pointerExitHandler_m3250605428
Mja:__ZN6prcoreL12RemapGenericI15TexFormatRGB88817TexFormatARGB8888EEvPKNS_9InnerInfoE
vD:__Z17CalculateGlobalRS23TransformAccessReadOnly
dzg:__ZN21InterfaceFuncInvoker1IP12Il2CppObject28StreamingContext_t1417235061E6InvokeEjP11Il2CppClassS1_S2_
Fli:_Camera_ScreenPointToRay_m614889538
jff:_Kernel_multiByteDivide_m735279869
omh:_Dictionary_2_ToTValue_m542772656_gshared
D8c:__ZN23UnityPurchasingSettings10InitializeER6Object
WHg:_Thread_GetNewManagedId_internal_m3211695465
bQa:_unity_z_deflateReset
C1g:_SkinChangedDelegate_Invoke_m2801964040
TAa:__ZN17GenericDynamicVBO17DrawChunkInternalERK21DynamicVBOChunkHandle17ShaderChannelMaskS3_P17VertexDeclarationP16DrawBuffersRangeij
x9c:__ZN13RuntimeStaticINSt3__26vectorIN5physx25PxVehicleWheelQueryResultENS0_9allocatorIS3_EEEELb0EE16StaticInitializeEPv
uRb:__ZN22MemoryCacherReadBlocks14LockCacheBlockEjPPhS1_
mrd:_Boolean_System_IConvertible_ToChar_m2637404801_AdjustorThunk
Ehd:_SecurityContext_Capture_m2535194991
aMg:_UInt16_System_IConvertible_ToSByte_m3044765342_AdjustorThunk
zTg:_DerivedType_IsArrayImpl_m684825803
cMf:__ZL47Byte_t3683104436_CustomAttributesCacheGeneratorP21CustomAttributesCache
kBj:__ZN4utf88internal15increase_safelyIPKcEENS0_9utf_errorERT_S5_
rMc:__ZN20TextRenderingPrivate8FontImpl16CacheFontForTextEPtiifjPK13dynamic_arrayINS_16TextFormatChangeELj4EE
Hie:_Array_qsort_TisUIVertex_t1204258818_TisUIVertex_t1204258818_m512606409_gshared
hbd:__Z21ArrayElementTypeCheckP11Il2CppArrayPv
a$j:_emscripten_glTexSubImage2D__wrapper
cCf:_NameValueCollection_AsSingleString_m10599052
XRj:__ZNSt3__212basic_stringIcNS_11char_traitsIcEENS_9allocatorIcEEE6appendEjc
fcf:_Object_InternalGetHashCode_m1371384246
Zth:_Navigation_get_defaultNavigation_m2185194207
ksg:__ZL73LayoutElement_t2808691390_CustomAttributesCacheGenerator_m_FlexibleHeightP21CustomAttributesCache
qqi:_ArgumentCache_get_stringArgument_m3051619173
H$e:_Int32_System_IConvertible_ToSByte_m1449623243_AdjustorThunk
imf:_AccessViolationException__ctor_m1270251537
n3c:__Z42Register_UnityEngine_Canvas_get_rootCanvasv
hLi:_X509ExtensionCollection_IndexOf_m3972100651
BGb:__Z14resize_trimmedINSt3__26vectorI8MonoPPtr13stl_allocatorIS2_L18MemLabelIdentifier1ELi16EEEEEvRT_j
Igb:__ZN39AssetBundleLoadFromStreamAsyncOperation11GetProgressEv
Xe:_TTF_RenderText_Solid
sEb:__ZN13MonoBehaviour25TransferEngineAndInstanceI24GenerateTypeTreeTransferEEvRT_
WMg:_UInt32_System_IConvertible_ToInt64_m3091851828
o9e:_MissingMethodException__ctor_m3898429715
bxg:_RemotingConfiguration_RegisterClientProviderTemplate_m514821425
Qfh:_Enumerator_System_Collections_IEnumerator_Reset_m3085583937_gshared
rei:__Z66RuntimeInvoker_ClientCertificateType_t4001384466_Int32_t2071877448PK10MethodInfoPvPS2_
ujf:_RSAManaged_ExportParameters_m2873993187
Lbe:_Array_InternalArray__IEnumerable_GetEnumerator_TisVector4_t2243707581_m829381058_gshared
qDe:_Enumerator__ctor_m2816143215_AdjustorThunk
X8c:__ZN11UnityEngine7Connect16PersistentValuesC2Ev
pHf:_X509Chain_FindParent_m404663796
m9e:_MissingMemberException__ctor_m2164043278
rXi:__ZL7log2_32j
JHe:_Collection_1_CopyTo_m2282972507_gshared
xBb:__ZN13EmscriptenWWW10OnProgressEPvjj
LWd:_BaseVertexEffect__ctor_m358261091
WJf:_Interpreter_GetGroupInfo_m312421921
vJb:__Z19TransferField_ArrayI17RemapPPtrTransfer27Converter_UnityEngineObjectEvRK23StaticTransferFieldInfoR31RuntimeSerializationCommandInfoRT0_
dRh:__Z48RuntimeInvoker_Void_t1841601450_SByte_t454417549PK10MethodInfoPvPS2_
hYf:__ZL53HMACSHA384_t3026079344_CustomAttributesCacheGeneratorP21CustomAttributesCache
d6h:__Z120RuntimeInvoker_Void_t1841601450_Single_t2076509932_Single_t2076509932_Single_t2076509932_Single_t2076509932_Il2CppObjectPK10MethodInfoPvPS2_
kmb:__ZN14RenderSettings8TransferI18StreamedBinaryReadILb0EEEEvRT_
dne:_Object_Instantiate_TisIl2CppObject_m4219963824_gshared
B1e:_IntPtr_System_Runtime_Serialization_ISerializable_GetObjectData_m21554269_AdjustorThunk
ljd:_Single_GetHashCode_m3102305584_AdjustorThunk
aqa:__ZN29SerializeTraitsForStringTypesIN4core12basic_stringIcNS0_20StringStorageDefaultIcEEEEE8TransferI24GenerateTypeTreeTransferEEvRS4_RT_
Fke:_Array_swap_TisVector3_t2243707580_m3036634038_gshared
sK:__ZN4FMOD6System9createDSPEP20FMOD_DSP_DESCRIPTIONPPNS_3DSPE
Yz:__ZN7mecanim9animation26DestroyControllerWorkspaceEPNS0_19ControllerWorkspaceERNS_6memory9AllocatorE
uIi:_UriParser_set_SchemeName_m3624672465
AG:__ZN4FMOD8ChannelI11EndCallbackEv
efd:_ToBase64Transform_TransformBlock_m2201454137
xmc:__ZN8GUIStyle14SetDefaultFontEPN13TextRendering4FontE
tXg:_OpCode_get_StackBehaviourPop_m3787015663_AdjustorThunk
_Ci:_PatternCompiler_EmitCount_m3609178511
urb:__ZN15QualitySettings23VirtualRedirectTransferER24GenerateTypeTreeTransfer
QSi:_U3CCreateWhereIteratorU3Ec__Iterator1D_1_System_Collections_Generic_IEnumerableU3CTSourceU3E_GetEnumerator_m2682676065_gshared
A6g:_GUIStyle_Internal_GetCursorStringIndex_m1491806746
dmg:__ZL89PointerEventData_t1599784723_CustomAttributesCacheGenerator_U3CpositionU3Ek__BackingFieldP21CustomAttributesCache
fhj:__ZN6il2cpp2os10FileHandleC2Ev
xhc:__Z59Register_UnityEngine_MonoBehaviour_Internal_CancelInvokeAllv
MZf:__ZL84Encoding_t663144255_CustomAttributesCacheGenerator_Encoding_GetByteCount_m4104502544P21CustomAttributesCache
LSd:__ZN23InterfaceActionInvoker1IP25AxisEventData_t1524870173E6InvokeEjP11Il2CppClassP12Il2CppObjectS1_
Xvg:_ObjRef_set_TypeInfo_m1661789743
T6i:__ZN30dense_hashtable_const_iteratorINSt3__24pairIK10KeyWrapperIPK19Il2CppGenericMethodEPK26Il2CppGenericMethodIndicesEES6_N6il2cpp8metadata23Il2CppGenericMethodHashEN14dense_hash_mapIS6_SA_SE_NS6_14EqualsComparerINSD_26Il2CppGenericMethodCompareEEENS0_9allocatorISB_EEE9SelectKeyESI_SK_EppEv
h4g:_GUISkin_get_box_m533626169
XAf:_HybridDictionary_Add_m1037587952
d9g:_Mathf_Cos_m238853451
XMc:_UNITY_FT_Request_Metrics
cea:__ZN7Texture8TransferI18StreamedBinaryReadILb0EEEEvRT_
nvj:__ZN6il2cpp6icalls8mscorlib6System10Reflection10MonoMethod29get_IsGenericMethodDefinitionEP22Il2CppReflectionMethod
Vrj:__ZN6il2cpp2vm6Thread21AllocThreadStaticDataEi
PFi:__ZN23InterfaceActionInvoker4IiibP19LinkRef_t2090853131E6InvokeEjP11Il2CppClassP12Il2CppObjectiibS1_
MCd:_DateTime_YearMonthDayFormats_m4204607055
lYd:_ColorBlock_set_disabledColor_m3502887543_AdjustorThunk
GEj:__ZN30dense_hashtable_const_iteratorINSt3__24pairIK10KeyWrapperIPK19Il2CppGenericMethodEP10MethodInfoEES6_N6il2cpp8metadata23Il2CppGenericMethodHashEN14dense_hash_mapIS6_S9_SD_NS6_14EqualsComparerINSC_26Il2CppGenericMethodCompareEEENS0_9allocatorISA_EEE9SelectKeyESH_SJ_EppEv
wO:__Z13RegisterClassI13AudioListenerEvv
AUi:_InvokableCall_1_Find_m951110817_gshared
rSi:_Aes__ctor_m4020215067
xD:__ZN23AnimationOffsetPlayable11GetPositionEv
src:__Z18Transfer_BlittableI9JSONWriteLb0E8Vector3fEvRK29SerializationCommandArgumentsR31RuntimeSerializationCommandInfo
l7:__ZN13RuntimeStaticI17UniqueIDGeneratorLb0EE13StaticDestroyEPv
Wf:_emscripten_glUniform4i
oYf:__ZL46MD5_t1507972490_CustomAttributesCacheGeneratorP21CustomAttributesCache
G0d:_Graphic_OnDisable_m2360886868
aZi:_ObjectPool_1_Release_m1615270002_gshared
gf:_emscripten_glUniform4f
zj:___unlock
IGj:_GC_default_oom_fn
txh:_ScrollRect_InternalCalculateOffset_m3083065267
JIh:_InternalEnumerator_1_System_Collections_IEnumerator_Reset_m1561424184_AdjustorThunk
Hxd:_Comparer_Compare_m4132969818
CM:__ZN20SoundChannelInstance19setReverbPropertiesEP29FMOD_REVERB_CHANNELPROPERTIES
t6d:_U3CCaretBlinkU3Ec__Iterator0_System_Collections_Generic_IEnumeratorU3CobjectU3E_get_Current_m3541562536
MMh:_InternalEnumerator_1__ctor_m2808001655_AdjustorThunk
PJh:_InternalEnumerator_1_System_Collections_IEnumerator_Reset_m2571770313_AdjustorThunk
uYg:_FieldInfo_get_UMarshal_m1934544188
DXh:__Z68RuntimeInvoker_Void_t1841601450_IntPtr_t_MonoMethodInfoU26_t16045984PK10MethodInfoPvPS2_
dSh:__Z86RuntimeInvoker_Int32_t2071877448_Int32_t2071877448_Int32_t2071877448_Int32_t2071877448PK10MethodInfoPvPS2_
ZC:__ZNK26AnimatorControllerPlayable14IsInTransitionEi
doh:_DefaultComparer_Equals_m2171836276_gshared
Mtj:__ZN6il2cpp2vm9Exception18GetFormatExceptionEPKc
adi:__Z56RuntimeInvoker_Void_t1841601450_ResourceInfo_t3933049236PK10MethodInfoPvPS2_
kWf:__ZL55IMessageSink_t2189618969_CustomAttributesCacheGeneratorP21CustomAttributesCache
ikc:__Z40Register_UnityEngine_Transform_IsChildOfv
g6g:_GUIStyle_Draw_m1435796321
zvd:_ArrayList_Sort_m923359189
OAh:_Text_CalculateLayoutInputVertical_m1732119136
tec:__Z45Register_UnityEngine_Display_GetSystemExtImplv
VIa:__ZN9GfxDevice31DrawIndexedNullGeometryIndirectE16GfxPrimitiveTypeP9GfxBuffer15ComputeBufferIDj
iFh:_InternalEnumerator_1_System_Collections_IEnumerator_get_Current_m3088751576_gshared
FYh:__Z78RuntimeInvoker_Void_t1841601450_Int64_t909078037_Il2CppObject_Int64_t909078037PK10MethodInfoPvPS2_
_ki:_Bounds_set_center_m2069004927_AdjustorThunk
Clf:_X509Certificate_GetSubjectName_m2120755276
Doc:__Z46GUIStyle_CUSTOM_Internal_DrawWithTextSelectionP12Il2CppObjectR43MonoInternal_DrawWithTextSelectionArguments
oXi:__ZL17log2withScale_128yyi
s9f:__ZL58ResourceRequest_t2560315377_CustomAttributesCacheGeneratorP21CustomAttributesCache
x$c:__ZNSt3__218__insertion_sort_3IRNS_6__lessIN2UI14DepthSortEntryES3_EEPS3_EEvT0_S7_T_
m_g:_MonoField_CheckGeneric_m1527550038
BZ:__ZN13RuntimeStaticI15DirectorManagerLb0EE16StaticInitializeEPv
Euc:__ZN8JSONRead8TransferI23ManagedObjectTransfererEEvRT_PKc17TransferMetaFlagsb
XHg:_Thread_get_ManagedThreadId_m1995754972
OQd:_BaseInput_get_touchCount_m998724785
Zxb:__ZN11TimeManager6UpdateEv
RKi:_X509Chain_get_Status_m2726750609
k6d:_InputField_get_preferredWidth_m3185355225
R1g:_GUIUtility_get_pixelsPerPoint_m2667928361
JKe:_Collection_1_RemoveItem_m1406181352_gshared
OHg:_Thread_SetState_m3198426726
Tvd:_ArrayListWrapper_Contains_m1158465965
ske:_Array_swap_TisColor32_t874517518_m2203309732_gshared
tof:_BigInteger_op_LessThan_m3825358479
jQj:_fflush
woa:__ZN17LightProbeContext4InitERK16LightmapSettingsRK14RenderSettings
Ard:_Convert_ToInt32_m55151042
u1d:_GraphicRaycaster_Raycast_m1206612976
pOj:__GLOBAL__sub_I_Error_cpp
lFi:_Alternation_GetWidth_m4218808325
vTe:_ReadOnlyCollection_1_System_Collections_IList_Insert_m2651065875_gshared
kOf:__ZL80Il2CppArray_CustomAttributesCacheGenerator_Array_SetValue_m169741241____indices1P21CustomAttributesCache
jia:__ZN10ColorRGBAf8TransferI19StreamedBinaryWriteILb0EEEEvRT_
PPc:_ft_bitmap_glyph_bbox
jCf:_TypeConverterAttribute__ctor_m4061167050
BAj:__ZN6il2cpp2vm11MethodStack17GetStackFramesRawEv
I0g:_Font_add_textureRebuilt_m1282639736
hmh:_Dictionary_2_ContainsValue_m2760581195_gshared
rIj:_GC_reclaim_uninit
A1a:__Z34ProcessIndexListIsNodeVisibleStep2RK22SceneCullingParametersPK9SceneNodePK4AABBR9IndexList
rCb:__ZN10MonoScriptD2Ev
_ja:__ZN6prcoreL12RemapGenericI17TexFormatARGB888817TexFormatBGRA8888EEvPKNS_9InnerInfoE
Azh:_Slider_OnRectTransformDimensionsChange_m4109401172
tEf:_WebHeaderCollection_Get_m3391944907
hZ:__GLOBAL__sub_I_half_cpp
Rfc:__Z39Input_CUSTOM_INTERNAL_get_mousePositionP8Vector3f
ASc:_tt_cmap13_char_next
yxg:_ServerIdentity__ctor_m1576469955
GOa:__ZN9ShaderLab4Pass16SetupPassOptionsEv
Tsi:_AnimatorControllerPlayable_INTERNAL_CALL_SetTriggerID_m508896534
BXi:_UnityEvent_4__ctor_m3102731553_gshared
Efi:__Z78RuntimeInvoker_Int32_t2071877448_UICharInfo_t3056636800_UICharInfo_t3056636800PK10MethodInfoPvPS2_
jh:_JS_Sound_ReleaseInstance
ejg:__ZL72IL2CPPStructAlignmentAttribute_t130316838_CustomAttributesCacheGeneratorP21CustomAttributesCache
Xua:__ZN13GfxDeviceGLES19DrawBuffersIndirectEP9GfxBufferPK18VertexStreamSourceiP17VertexDeclaration17ShaderChannelMask16GfxPrimitiveType15ComputeBufferIDj
lze:_List_1_Shift_m439051997_gshared
mfh:_Renderer_get_sortingLayerID_m2403577271
Uwi:_InAttribute__ctor_m1401060713
NZj:_emscripten_glPixelStorei__wrapper
KJd:_Decimal_System_IConvertible_ToDecimal_m1541432424_AdjustorThunk
IQb:__Z29Transfer_Blittable_ArrayFieldI18StreamedBinaryReadILb0EEaEvRT_R9ArrayInfoRK23StaticTransferFieldInfo
lic:__Z21Resources_CUSTOM_LoadP12Il2CppStringP12Il2CppObject
Fm:FUNCTION_TABLE_diddi
fnd:_EncoderExceptionFallbackBuffer__ctor_m3538569575
sic:__Z26Material_CUSTOM_SetIntImplP12Il2CppObjectii
C_e:_Int16_System_IConvertible_ToSingle_m3277935657_AdjustorThunk
hej:__ZNSt3__26vectorIPK10MethodInfoNS_9allocatorIS3_EEE21__push_back_slow_pathIRKS3_EEvOT_
nki:_AttributeHelperEngine_CheckIsEditorScript_m2980171478
G3b:__ZN8GUILayerD2Ev
NAi:_InternalRemotingServices__cctor_m3821625125
Rec:__Z42Register_UnityEngine_RectOffset_get_bottomv
PEg:_StringBuilder_Insert_m3322917127
mnh:_DefaultComparer_Equals_m724229128_gshared
Hye:_List_1__cctor_m1337542316_gshared
Fgh:_Enumerator_VerifyCurrent_m1702320752_AdjustorThunk
qCh:_ArrayReadOnlyList_1_Clear_m2539474626_gshared
_tg:__ZN21InterfaceFuncInvoker0IP24ObjectU5BU5D_t3614634134E6InvokeEjP11Il2CppClassP12Il2CppObject
FVi:_UnityAction_1_EndInvoke_m2603848420_gshared
pEd:_Convert_ToDouble_m3520060872
eZj:_emscripten_glUniform1f__wrapper
XTj:dynCall_di
myf:_SslCipherSuite_ComputeServerRecordMAC_m1876572367
bOc:__ZN20TextRenderingPrivate19NativeTextGeneratorC2ERK11UTF16StringPNS_8FontImplE11ColorRGBA32ifRK8Vector2fbifiibffbbbP13dynamic_arrayIN2UI8UIVertexELj4EE
crc:__Z28RegisterModule_JSONSerializev
dF:__Z111Register_UnityEngine_Experimental_Director_AnimatorControllerPlayable_INTERNAL_CALL_GetAnimatorClipInfoInternalv
gHg:_Interlocked_CompareExchange_m3227034792
QDg:_HashAlgorithm_get_Hash_m931854461
Ogj:_il2cpp_monitor_enter
SNh:_DefaultComparer_Compare_m3564013922_gshared
yXb:__ZN2UI13RectTransform8TransferI14SafeBinaryReadEEvRT_
$8b:__Z20IsHumanControllingUsv
BRa:__ZNK19RenderEventsContext21ExecuteCommandBuffersEijR17ShaderPassContextR15RenderNodeQueueP19ProfilerInformationi
lJe:_Collection_1_RemoveAt_m3454169520_gshared
aV:__ZNK20DynamicHeapAllocatorI17LowLevelAllocatorE10GetPtrSizeEPKv
wui:_AnimatorControllerPlayable_PlayInFixedTime_m172593751
afb:__ZN10systeminfo21GetPersistentDataPathEv
A_d:_Dropdown_set_value_m2945561009
Oua:__ZN13GfxDeviceGLES17DestroyGpuProgramEPK10GpuProgram
QXe:_GregorianCalendar_GetMonth_m523739832
hFb:__Z44InitializeTransferFunctionScriptingTraitsForI18StreamedBinaryReadILb0EEEvR31TransferFunctionScriptingTraits
AZa:__ZNSt3__218__insertion_sort_3IR23CompareReflectionProbesP31RuntimeReflectionProbeBlendInfoEEvT0_S5_T_
FJb:__ZN12NativeBufferI27Converter_SimpleNativeClassI8GradientEE15SetupForWritingER9ArrayInfo
aPe:_ReadOnlyCollection_1_System_Collections_ICollection_get_IsSynchronized_m2987885125_gshared
X0g:_GameObject_AddComponent_m3757565614
faa:__ZN12_GLOBAL__N_113StaticDestroyEPv
Ebi:__Z54RuntimeInvoker_Boolean_t3825574718_Vector4_t2243707581PK10MethodInfoPvPS2_
$Ze:_Guid_ToString_m51661589
elc:__ZNK8GUIStyle4DrawER8GUIStateRK5RectTIfER10GUIContentbbbb
fAh:_Text_set_font_m1095513810
Q1j:_glUnmapBuffer__wrapper
yHd:_DateTime_System_IConvertible_ToUInt32_m1363211018_AdjustorThunk
D3d:_InputField_get_cachedInputTextGenerator_m881618486
jmi:_Canvas_get_rootCanvas_m1790974328
Jgc:__Z32Mesh_CUSTOM_ExtractArrayFromListP12Il2CppObject
oRg:_Binder_get_DefaultBinder_m965620943
hvc:__ZN8JSONRead21TransferSTLStyleArrayINSt3__26vectorI8Gradient13stl_allocatorIS3_L18MemLabelIdentifier1ELi16EEEEEEvRT_17TransferMetaFlags
Avf:_SecurityParameters_Clear_m3409219757
vyb:__ZNSt3__218__insertion_sort_3IRNS_6__lessINS_4pairIPKN5Unity4TypeE7Hash128EES8_EEPS8_EEvT0_SC_T_
GDi:_PatternCompiler_EmitAlternationEnd_m889639343
XKb:__ZN10RectOffset8TransferI24GenerateTypeTreeTransferEEvRT_
aqd:_SimpleEnumerator_get_Current_m482975946
Q9b:__Z18GetResourceManagerv
PQj:_srand
jlj:__ZNK15dense_hashtableINSt3__24pairIK10KeyWrapperINS1_IPK10MethodInfoP11Il2CppClassEEEjEES9_17ReflectionMapHashIS8_EN14dense_hash_mapIS9_jSD_NS9_14EqualsComparerINS0_8equal_toIS8_EEEENS0_9allocatorISB_EEE9SelectKeyESI_SK_E10test_emptyERK30dense_hashtable_const_iteratorISB_S9_SD_SM_SI_SK_E
maf:_MonoTypeInfo__ctor_m1398838196
j$c:__ZN2UI13CanvasManager19RemoveDirtyRendererEPNS_6CanvasEPNS_14CanvasRendererE
tdh:_Rect_get_position_m24550734
hBh:_Toggle_Rebuild_m929023818
SN:__ZN7Texture34UpdateFileTextureUploadInstructionEP28FileTextureUploadInstructionj
Xaa:__Z15GetIApplicationv
tki:_AudioClip_InvokePCMSetPositionCallback_Internal_m2304858844
$5c:__ZN11UnityEngine15PlatformWrapper25GetGraphicsRendererStringEv
nTh:__Z51RuntimeInvoker_UInt16_t986882611_Decimal_t724701077PK10MethodInfoPvPS2_
y5d:_InputField_KeyPressed_m3066588581
tOi:_Time_get_unscaledTime_m862335845
q8i:__ZNK15dense_hashtableINSt3__24pairIK10KeyWrapperI13dynamic_arrayIPK10Il2CppTypeLj4EEEPFvvEEES8_N6il2cpp8metadata19Il2CppSignatureHashEN14dense_hash_mapIS8_SB_SF_NS8_14EqualsComparerINSE_22Il2CppSignatureCompareEEENS0_9allocatorISC_EEE9SelectKeyESJ_SL_E13find_positionERS9_
Fyh:_Selectable_DoStateTransition_m539253088
ned:_SHA512_Create_m439875055
Vb:invoke_vi
fed:_SHA384Managed_update_m2629600295
dEc:__ZNSt3__26vectorINS0_IN10ClipperLib8IntPointENS_9allocatorIS2_EEEENS3_IS5_EEE7reserveEj
QJa:__ZN15dense_hashtableINSt3__24pairIKN4core12basic_stringIcNS2_20StringStorageDefaultIcEEEEP20ArchiveStorageReaderEES6_20StringHash32FunctionIS6_EN14dense_hash_mapIS6_S9_SC_NS0_8equal_toIS6_EE13stl_allocatorISA_L18MemLabelIdentifier54ELi16EEE9SelectKeyESF_SI_ED2Ev
Tb:invoke_vd
tb:invoke_vf
H6g:_GUIStyle_Internal_CalcSizeWithConstraints_m3375255978
GLh:_InternalEnumerator_1__ctor_m32322958_AdjustorThunk
v5:__ZNK10GameObject8IsActiveEv
oW:__ZN18ScreenManagerWebGL21SetCursorInsideWindowEb
DBg:_SByte_System_IConvertible_ToUInt32_m4256495110
qTd:_PointerEventData_set_eligibleForClick_m2036057844
LDa:__ZN18GfxFramebufferGLES23SetupDefaultFramebufferEPP17RenderSurfaceBaseS2_N2gl6HandleILNS3_10ObjectTypeE9EEE
rQj:_mbsinit
Q5g:_GUIStyle_get_Internal_clipOffset_m4237737448
plg:__ZL70EventSystem_t3466835263_CustomAttributesCacheGenerator_m_FirstSelectedP21CustomAttributesCache
wW:__ZN13ScreenManager18RequestOrientationE17ScreenOrientation
i0i:__ZN6il2cpp2vm5Class12SetupMethodsEP11Il2CppClass
uS:__ZN11UnityEngine15CloudWebService13WWWRestClient18GetResponseHeadersEv
icc:__Z39DeleteLastPathNameComponentWithAnySlashRKN4core12basic_stringIcNS_20StringStorageDefaultIcEEEE
xU:__ZN13EmscriptenWWW14BlockUntilDoneEv
mpg:__ZL68InputField_t1631627530_CustomAttributesCacheGenerator_m_KeyboardTypeP21CustomAttributesCache
LBh:_VerticalLayoutGroup_CalculateLayoutInputHorizontal_m497637066
OWd:_Button_get_onClick_m1595880935
vYi:_ListPool_1_Release_m3716853512_gshared
Uva:__ZN13GfxDeviceGLES17UploadTextureCubeE9TextureIDPKhiii13TextureFormati18TextureUploadFlags17TextureColorSpace
bfh:_RectTransformUtility_PixelAdjustPoint_m560908615
mBi:_MethodCall__ctor_m4106494862
KQg:_Module_IsResource_m663979284
Toc:__Z37Register_UnityEngine_GUIStyle_Cleanupv
Oa:invoke_iiifii
J3b:__ZN8GUILayer12AddToManagerEv
$7f:__ZL109TouchScreenKeyboard_t601950206_CustomAttributesCacheGenerator_TouchScreenKeyboard_Open_m3410222954____secure4P21CustomAttributesCache
Aej:__ZN6il2cpp6icalls8mscorlib6System8MonoType13IsPointerImplEP20Il2CppReflectionType
$Dd:_Convert_ToDecimal_m2284596541
gtb:__ZN14Texture2DArray34UpdateFileTextureUploadInstructionEP28FileTextureUploadInstructionj
Si:_emscripten_glFramebufferRenderbuffer
j3f:__ZL64CipherSuiteCollection_t2431504453_CustomAttributesCacheGeneratorP21CustomAttributesCache
eyi:__ZN21InterfaceFuncInvoker3IP12Il2CppObjectP8String_tS1_PS3_E6InvokeEjP11Il2CppClassS1_S3_S1_S4_
Dwf:_TlsServerCertificateRequest_ProcessAsSsl3_m3017921864
V0e:_Int64_GetHashCode_m4047499913
K4a:__ZN9Transform30EnsureTransformHierarchyExistsEv
gP:__ZN11AudioModule26SetDefaultMicrophoneDriverEPv
Q5f:__ZL102Camera_t189460977_CustomAttributesCacheGenerator_Camera_INTERNAL_CALL_ScreenToViewportPoint_m529506484P21CustomAttributesCache
yqd:_Attribute_IsDefined_m216577166
Cud:_Char_ToUpper_m109978609
lHh:_InternalEnumerator_1_get_Current_m1089848479_gshared
oMd:_Double_System_IConvertible_ToInt64_m3798425616
$Ud:_StandaloneInputModule_get_repeatDelay_m3025279
Hg:___cxa_find_matching_catch_4
nhc:__ZN13MonoBehaviour13StopCoroutineEPKc
N7a:__ZNSt3__26vectorINS_4pairIN4core12basic_stringIcNS2_20StringStorageDefaultIcEEEEPK17MessageIdentifierEENS_9allocatorISA_EEE12__move_rangeEPSA_SE_SE_
xVa:__ZN14qsort_internal17MedianOfThreeSwapIP17RODataReplacement19ROSorterReplacementEEvT_S4_S4_T0_
_Fe:_Collection_1_System_Collections_IList_Insert_m3303840316_gshared
$_i:__ZNK15dense_hashtableINSt3__24pairIK10KeyWrapperIPK22Il2CppGenericParameterEP11Il2CppClassEES6_N6il2cpp5utils11PointerHashIS4_EEN14dense_hash_mapIS6_S9_SE_NS6_14EqualsComparerINS0_8equal_toIS5_EEEENS0_9allocatorISA_EEE9SelectKeyESJ_SL_E3endEv
ecc:__ZN17TransformInternal36OnScaleChangedCalculateTransformTypeE15TransformAccess
PJa:__ZN15dense_hashtableINSt3__24pairIKN4core12basic_stringIcNS2_20StringStorageDefaultIcEEEEP20ArchiveStorageReaderEES6_20StringHash32FunctionIS6_EN14dense_hash_mapIS6_S9_SC_NS0_8equal_toIS6_EE13stl_allocatorISA_L18MemLabelIdentifier54ELi16EEE9SelectKeyESF_SI_E4swapERSL_
Xwd:_SynchronizedArrayListWrapper_InsertRange_m709359548
mMa:__ZN17ArchiveFileSystem10ToAbsoluteEPKc
nof:_BigInteger_op_Modulus_m13450242
blb:__ZN4PPtrI8MaterialE8TransferI18StreamedBinaryReadILb0EEEEvRT_
Bci:__Z56RuntimeInvoker_Int32_t2071877448_RaycastResult_t21186376PK10MethodInfoPvPS2_
REd:_Convert_ToInt32_m2988544165
_ie:_Array_Resize_TisColor32_t874517518_m2219502085_gshared
ww:__ZN7mecanim6CRCKeyENS_7eStringE
eAf:_SslStreamBase_get_CanWrite_m2069502593
aZb:__ZL12SetPrefValueRKN4core12basic_stringIcNS_20StringStorageDefaultIcEEEERK9PrefValue
L8h:__Z31RuntimeInvoker_Mode_t1081683921PK10MethodInfoPvPS2_
ySb:__ZL30ReconstructParamNamesFromTableIN9ShaderLab20SerializedSubProgram15MatrixParameterEEvRK14dense_hash_mapIiN4core17string_with_labelILi1EEE18SInt32HashFunctionNSt3__28equal_toIiEE13stl_allocatorINS8_4pairIKiS6_EEL18MemLabelIdentifier1ELi16EEERNS8_6vectorIT_NS8_9allocatorISL_EEEE
h0:__ZN19ShaderPropertySheet20ReservePropertyCountEj
SAj:__ZN6il2cpp5utils11StringUtils6PrintfEPKcz
kKc:__ZN16NovodexAllocatorD0Ev
Tia:__ZN15NameToObjectMapI6ShaderNSt3__23mapI4PPtrIS0_EN4core12basic_stringIcNS5_20StringStorageDefaultIcEEEENS1_4lessIS4_EENS1_9allocatorINS1_4pairIKS4_S9_EEEEEENS1_8multimapIS9_S4_NSA_IS9_EENSC_INSD_IKS9_S4_EEEEEEE4FindERSK_
Ngh:_ShimEnumerator_Reset_m98005789_gshared
$pa:__ZN24GenerateTypeTreeTransfer21TransferResourceImageE19ActiveResourceImagePKcR13StreamingInfoPvjiPKN5Unity4TypeE
obh:_Object_INTERNAL_CALL_Internal_InstantiateSingle_m3932420250
qqf:_PKCS1_Compare_m552424558
kQb:__Z18Transfer_BlittableI18StreamedBinaryReadILb0EELb0EyEvRK29SerializationCommandArgumentsR31RuntimeSerializationCommandInfo
rRe:_ReadOnlyCollection_1_System_Collections_IList_set_Item_m1377990618_gshared
KPa:_UNITY_png_zstream_error
iWg:_ILGenerator_make_room_m373147874
Omh:_Dictionary_2_Init_m1045257495_gshared
l1j:_emscripten_glLinkProgram__wrapper
otf:_TlsClientSettings_set_TargetHost_m3421266913
Vif:_PKCS1_Verify_v15_m2571212635
Tlb:__ZNSt3__212__deque_baseI18ReflectionProbeJobNS_9allocatorIS1_EEED2Ev
Kv:__ZN11UnityEngine9Animation27DestroyAnimationSetBindingsEPNS0_20AnimationSetBindingsERN7mecanim6memory9AllocatorE
ESb:__ZN15dense_hashtableINSt3__24pairIKiN4core17string_with_labelILi1EEEEEi18SInt32HashFunctionN14dense_hash_mapIiS5_S7_NS0_8equal_toIiEE13stl_allocatorIS6_L18MemLabelIdentifier1ELi16EEE9SelectKeyESA_SD_E13set_empty_keyERKS6_
TB:__ZN8Animator12CleanupClassEv
Xmd:_DecoderReplacementFallbackBuffer__ctor_m1305504326
fvc:__Z13TransferFieldI8JSONReadLb0E27Converter_SimpleNativeClassI10RectOffsetEEvRK23StaticTransferFieldInfoR31RuntimeSerializationCommandInfoRT1_
xkd:_String_IndexOf_m570401060
m3d:_Image_CalculateLayoutInputVertical_m1340533162
_Md:_Enum_System_IConvertible_ToDateTime_m2924690746
Edb:__ZN11AssetBundle9AssetInfo8TransferI14SafeBinaryReadEEvRT_
a$d:_Dropdown_CreateBlocker_m4109366440
LDg:_HashAlgorithm_System_IDisposable_Dispose_m2106335965
ywj:__GLOBAL__sub_I_GenericMetadata_cpp
tbf:_NotImplementedException__ctor_m1305569814
gci:__Z59RuntimeInvoker_Int32_t2071877448_KeyValuePair_2_t1174980068PK10MethodInfoPvPS2_
Ich:_RangeAttribute__ctor_m1657271662
zgg:__ZL67GUISettings_t622856320_CustomAttributesCacheGenerator_m_CursorColorP21CustomAttributesCache
dlc:__ZNK8GUIStyle4DrawER8GUIStateRK5RectTIfER10GUIContentib
Odj:__ZN6il2cpp6icalls8mscorlib6System8MonoType18GetFields_internalEP20Il2CppReflectionTypeiS5_
b1a:__Z24CalculateSpotLightBoundsffRK10Matrix4x4fR15SpotLightBounds
Mcf:_TailoringInfo__ctor_m2248501932
fda:__ZNK13RenderTexture21GetShadowSamplingModeEv
vQ:__ZN23CloudWebServicesManager23VirtualRedirectTransferER14SafeBinaryRead
twd:_FixedSizeArrayListWrapper_InsertRange_m2690348965
QDb:__Z19ShouldTransferFieldR32SerializationCommandQueueBuilder17ScriptingClassPtriR18TransferField_InfoRK20CoreScriptingClasses
HXg:_FieldInfo_get_IsStatic_m1411173225
w5e:_MemoryStream_Read_m2289595005
xL:__ZN5audio5mixer22UpdateAudioMixerMemoryERKNS0_18AudioMixerConstantERNS0_16AudioMixerMemoryEfPN4FMOD6SystemEf
OKc:__ZL21InitializeCachedStripPv
idd:_SignatureDescription_set_DigestAlgorithm_m3219799565
Vhi:_CustomEventData_Add_m4139356558
Asj:__ZN6il2cpp6icalls8mscorlib6System9Threading6Thread23GetCachedCurrentCultureEP12Il2CppThread
Wkg:__ZL94PlayerEditorConnectionEvents_t2252784345_CustomAttributesCacheGenerator_messageTypeSubscribersP21CustomAttributesCache
_xh:_Selectable_get_allSelectables_m3045831006
yVa:__ZNK6Camera22GetWorldToCameraMatrixEv
iqd:_ArrayTypeMismatchException__ctor_m2892687300
xAj:__ZN6il2cpp2vm12GenericClass11IsValueTypeEP18Il2CppGenericClass
Xke:_Dictionary_2_Do_CopyTo_TisKeyValuePair_2_t3716250094_TisIl2CppObject_m715850636_gshared
dDb:__ZN13MonoBehaviour7SetNameEPKc
hrf:_ContentInfo__ctor_m3579805263
mBc:__ZN25b2PolygonAndCircleContact7DestroyEP9b2ContactP16b2BlockAllocator
gxh:_ScrollRect_get_verticalNormalizedPosition_m1701804869
Ena:__ZN18AwakeFromLoadQueue5ClearEv
yih:_Enumerator_get_Current_m2986380627_AdjustorThunk
O$a:__ZNSt3__27__sort5IR15ReflProbeSorterPP15ReflectionProbeEEjT0_S6_S6_S6_S6_T_
XZ:__ZN8Playable10DisconnectEPS_i
uk:_glGenTransformFeedbacks
Yra:__ZN13LoadOperationD2Ev
Bhf:_KeyPairPersistence__ctor_m1817312194
Q8d:_Array_InternalArray__ICollection_Contains_TisMark_t2724874473_m1640201705_gshared
txi:_ActivatedClientTypeEntry_get_ContextAttributes_m53051138
Sla:__Z21PlayerStartFirstSceneb
ZTg:_TypeBuilder_get_AssemblyQualifiedName_m2097258567
Hia:__ZNSt3__27__sort5IRPFbRKNS_4pairIN9ShaderLab16FastPropertyNameEN18UnityPropertySheet11UnityTexEnvEEES8_EPS6_EEjT0_SD_SD_SD_SD_T_
pza:__ZNK7ApiGLES18GetExtensionStringEv
cGa:__ZN31TransformFeedbackSkinPoseBufferD0Ev
fZj:_emscripten_glVertexAttrib1f__wrapper
vLa:__ZNK12HandlerChain4SizeERK13FileEntryData
Hnh:_DefaultComparer_Equals_m1281232537_gshared
fp:FUNCTION_TABLE_iiiiiiiii
L4d:_InputField_set_asteriskChar_m619206227
PCg:_DES_IsSemiWeakKey_m3967392585
$5:__Z24GetComponentOrScriptNameRN5Unity9ComponentE
hEc:__Z22GetPhysicsGroundBody2Dv
kVe:_Comparison_1__ctor_m2159122699_gshared
I_e:_Int16_System_IConvertible_ToUInt32_m883204517_AdjustorThunk
qdg:__ZL137AnimatorControllerPlayable_t4078305555_CustomAttributesCacheGenerator_AnimatorControllerPlayable_CrossFade_m2119841183____normalizedTime3P21CustomAttributesCache
i$g:_MonoProperty_get_PropertyType_m1921201152
yZd:_FloatTween_TweenValue_m3881535116_AdjustorThunk
fHj:_GC_allochblk
Hna:__Z15UnloadGameScenev
L1j:_glCheckFramebufferStatus__wrapper
ykg:__ZL59WriteOnlyAttribute_t14323075_CustomAttributesCacheGeneratorP21CustomAttributesCache
MB:__ZN16MecanimAnimationD0Ev
snf:_BigInteger_get_Rng_m2525288368
ryg:_BinaryCommon_IsPrimitive_m2132448955
yx:__ZN7mecanim9animation14DeltasFromClipERKNS0_18ClipMuscleConstantERKNS0_12ClipBindingsERKNS_14ValueArrayMaskERNS_10ValueArrayESB_SB_
OIf:_X509ExtensionEnumerator_Reset_m3200687545
Ixd:_CaseInsensitiveHashCodeProvider__ctor_m3775398833
hOh:_Comparer_1_System_Collections_IComparer_Compare_m674728644_gshared
d8f:__ZL80Input_t1785128008_CustomAttributesCacheGenerator_Input_GetButtonDown_m2792523731P21CustomAttributesCache
Dfc:__Z36Renderer_Get_Custom_PropSortingOrderP12Il2CppObject
mkj:__ZNK15dense_hashtableINSt3__24pairIK10KeyWrapperIPK10Il2CppTypeEjEES6_N6il2cpp8metadata14Il2CppTypeHashEN14dense_hash_mapIS6_jSB_NS6_14EqualsComparerINSA_26Il2CppTypeEqualityComparerEEENS0_9allocatorIS8_EEE9SelectKeyESF_SH_E13find_positionERS7_
Wca:__ZN7Texture5ResetEv
zxc:__ZNK14b2CapsuleShape7RayCastEP15b2RayCastOutputRK14b2RayCastInputRK11b2Transformi
gfg:__ZL82Canvas_t209405766_CustomAttributesCacheGenerator_Canvas_get_renderMode_m1816014618P21CustomAttributesCache
PJb:__Z18Transfer_BlittableI24GenerateTypeTreeTransferLb1EhEvRK29SerializationCommandArgumentsR31RuntimeSerializationCommandInfo
dvb:__ZN10VertexData10DeallocateEv
_Ic:__ZN10Collider2D16TransformChangedEi
Qhj:__ZNSt3__214__split_bufferIiRNS_9allocatorIiEEEC2EjjS3_
ybc:__ZNK16TypeTreeIterator10ByteOffsetEv
Gce:_Array_FindLastIndex_TisIl2CppObject_m3885928623_gshared
l0d:_Graphic_get_rectTransform_m2697395074
g8:__ZnwjRKSt9nothrow_t
cs:__ZN8Animator11ClearObjectEv
vAb:__ZNSt3__26vectorIi13stl_allocatorIiL18MemLabelIdentifier12ELi16EEE8__appendEj
Caa:__Z20PlayerLoadFirstSceneb
Yga:__ZN14SafeBinaryRead19TransferSTLStyleMapINSt3__23mapI39DeprecatedFastPropertyNameSerializationN18UnityPropertySheet11UnityTexEnvENS1_4lessIS3_EENS1_9allocatorINS1_4pairIKS3_S5_EEEEEEEEvRT_17TransferMetaFlags
Chc:__Z45Register_UnityEngine_MonoBehaviour_IsInvokingv
_Yh:__Z65RuntimeInvoker_Void_t1841601450_Int64_t909078037_Int64_t909078037PK10MethodInfoPvPS2_
ADf:_IPv6Address_set_ScopeId_m1442934355
VDc:__ZNSt3__27__sort4IRPFbPN10ClipperLib13IntersectNodeES3_EPS3_EEjT0_S8_S8_S8_T_
jQf:__ZL72PKCS12_t1362584794_CustomAttributesCacheGenerator_U3CU3Ef__switchU24mapBP21CustomAttributesCache
Izg:_ObjectManager_RaiseOnDeserializedEvent_m512850179
ofg:__ZL83Canvas_t209405766_CustomAttributesCacheGenerator_Canvas_get_renderOrder_m2874842494P21CustomAttributesCache
Xkg:__ZL87PlayerEditorConnectionEvents_t2252784345_CustomAttributesCacheGenerator_connectionEventP21CustomAttributesCache
T5f:__ZL86Camera_t189460977_CustomAttributesCacheGenerator_Camera_get_allCamerasCount_m989474043P21CustomAttributesCache
kac:__Z35UnregisterSerializationCacheBuilderPFv17ScriptingClassPtrR23CachedSerializationDataRbE
yfa:__Z30GetBuiltinVectorParamArraySize24BuiltinShaderVectorParam
w9h:__Z31RuntimeInvoker_Axis_t1431825778PK10MethodInfoPvPS2_
tjj:__ZNSt3__218uninitialized_copyIPNS_4pairIK10KeyWrapperINS1_IPK14Il2CppAssemblyP11Il2CppClassEEEjEESC_EET0_T_SE_SD_
ycf:_CodePointIndexer__ctor_m797342079
npg:__ZL64InputField_t1631627530_CustomAttributesCacheGenerator_m_LineTypeP21CustomAttributesCache
mYf:__ZL61KeyedHashAlgorithm_t1374150027_CustomAttributesCacheGeneratorP21CustomAttributesCache
ZTi:_Predicate_1__ctor_m3243601712_gshared
Rmg:__ZL103PointerEventData_t1599784723_CustomAttributesCacheGenerator_PointerEventData_set_clickCount_m2095939005P21CustomAttributesCache
D2a:__ZN21RendererUpdateManager11AddRendererER8Renderer
F_b:__Z13RegisterClassI15ResourceManagerEvv
_zg:_SerializationEntry_t3485203212_marshal_pinvoke_back
iub:__ZN14SafeBinaryRead21TransferSTLStyleArrayI13dynamic_arrayIfLj4EEEEvRT_17TransferMetaFlags
K_f:__ZL79Thread_t241561612_CustomAttributesCacheGenerator_Thread_GetHashCode_m2038641494P21CustomAttributesCache
TAj:__ZN6il2cpp5utils11StringUtils11Utf16ToUtf8EPKDs
LZg:_MonoEventInfo_GetEventInfo_m2331957186
q6c:__ZN11UnityEngine15PlatformWrapper20IsRootedOrJailbrokenEv
rGf:_X509Certificate2_GetNameInfo_m402390219
Y0a:__Z33IntersectAABBPlaneBoundsOptimizedRK4AABBPKN4math7_float4Ei
fqd:_Swapper_BeginInvoke_m2652511022
geh:_RectOffset_t3387826427_marshal_pinvoke_back
nGg:_UTF8Encoding_GetBytes_m2973831055
$ua:__ZN9GfxDevice19EndGeometryJobFrameEv
x_h:__Z49RuntimeInvoker_SByte_t454417549_Int32_t2071877448PK10MethodInfoPvPS2_
TUe:_Comparison_1_Invoke_m2645957248_gshared
KJb:__ZN27Converter_SimpleNativeClassI17AnimationCurveTplIfEE17ScriptingToNativeER18ScriptingObjectPtrPS1_
n$h:__Z197RuntimeInvoker_Boolean_t3825574718_Il2CppObject_Il2CppObject_Il2CppObject_Int32_t2071877448_DateTimeU26_t3448131235_SByte_t454417549_BooleanU26_t3168250738_SByte_t454417549_ExceptionU26_t1467204777PK10MethodInfoPvPS2_
_Mj:__ZN6il2cpp8metadata24Il2CppGenericInstCompare7CompareERK10KeyWrapperIPK17Il2CppGenericInstES8_
Q6i:__ZNK15dense_hashtableINSt3__24pairIK10KeyWrapperIPK19Il2CppGenericMethodEPK26Il2CppGenericMethodIndicesEES6_N6il2cpp8metadata23Il2CppGenericMethodHashEN14dense_hash_mapIS6_SA_SE_NS6_14EqualsComparerINSD_26Il2CppGenericMethodCompareEEENS0_9allocatorISB_EEE9SelectKeyESI_SK_E5beginEv
C0d:_Graphic_get_materialForRendering_m2600868951
Wvf:_TlsClientSettings_get_ClientCertificate_m89435195
LXf:__ZL61AsymmetricAlgorithm_t784058677_CustomAttributesCacheGeneratorP21CustomAttributesCache
Iui:_AnimatorControllerPlayable_INTERNAL_CALL_PlayInternal_m3496633968
mWg:__ZN21InterfaceFuncInvoker1IiP12MemberInfo_tE6InvokeEjP11Il2CppClassP12Il2CppObjectS1_
Zci:__Z54RuntimeInvoker_Void_t1841601450_ILTokenInfo_t149559338PK10MethodInfoPvPS2_
eIe:_Collection_1_System_Collections_IList_Contains_m3210868188_gshared
wFi:_AnchorInfo_get_IgnoreCase_m2406760852
bIa:__ZN9GfxDevice22UploadTextureCubeArrayE9TextureIDPKhjii13TextureFormati18TextureUploadFlags17TextureColorSpace
a0b:__ZNK17AnimationCurveTplIfE8EvaluateEfPNS0_5CacheE
wNa:__Z31ManagerContextInitializeClassesv
Rdj:__ZNSt3__213__vector_baseIP9FieldInfoNS_9allocatorIS2_EEED2Ev
zWe:_NumberFormatter_AppendIntegerString_m868842252
mQc:_ft_smooth_transform
aRf:__ZL53SortedList_t3004938869_CustomAttributesCacheGeneratorP21CustomAttributesCache
zNc:_UNITY_FT_List_Finalize
LMj:__ZN6il2cpp6icalls8mscorlib6System7Runtime8Remoting10Activation18ActivationServices34AllocateUninitializedClassInstanceEP20Il2CppReflectionType
NWa:__Z20LightAttenuateApproxRKfS0_
f3:__ZN9Scripting30SetCachedPtrOnScriptingWrapperE18ScriptingObjectPtrP6Object
_H:__ZNK12AudioManager26GetTypeInfoVirtualInternalEv
rMb:__Z18Transfer_BlittableI19StreamedBinaryWriteILb0EELb0EdEvRK29SerializationCommandArgumentsR31RuntimeSerializationCommandInfo
rcb:__ZN17LowLevelAllocator6MallocEj
mmd:_ASCIIEncoding_GetBytes_m3649277167
V1g:_GUILayoutUtility_Internal_GetWindowRect_m1287880151
ZRh:__Z49RuntimeInvoker_Char_t3454481338_Int32_t2071877448PK10MethodInfoPvPS2_
Dlh:_Dictionary_2__ctor_m2457723796_gshared
Tzc:__ZN16b2PrismaticJoint4DumpEv
h6h:__Z49RuntimeInvoker_Il2CppObject_Il2CppObject_IntPtr_tPK10MethodInfoPvPS2_
abf:_MonoType_GetObjectData_m2888677152
Kqa:__ZN18BlockRangeInternal16PopLastNodeIndexEP10BlockRangeji
rPg:_Version__ctor_m2972638031
ppe:_Enumerator_System_Collections_IEnumerator_Reset_m886102771_AdjustorThunk
Qff:_Kernel_MultiplyByDword_m155008287
ztb:__ZN4MeshD0Ev
H9c:__ZL42RequestRecreateEyeTexturesBeforeNextUpdatev
pjh:_ValueCollection_System_Collections_Generic_ICollectionU3CTValueU3E_get_IsReadOnly_m3005456072_gshared
LQe:_ReadOnlyCollection_1_System_Collections_ICollection_get_SyncRoot_m1577944046_gshared
Oea:__ZNK6Camera20IsCurrentlyRenderingEv
Hsh:_LayoutUtility_U3CGetMinHeightU3Em__4_m1769295917
V1c:__Z36CanvasRenderer_CUSTOM_SetPopMaterialP12Il2CppObjectS0_i
DYf:__ZL58RijndaelManaged_t1034060848_CustomAttributesCacheGeneratorP21CustomAttributesCache
esc:__Z18Transfer_BlittableI9JSONWriteLb0EdEvRK29SerializationCommandArgumentsR31RuntimeSerializationCommandInfo
pzc:__ZNK11b2GearJoint16GetReactionForceEf
z6e:_TextReader__ctor_m3276128267
gte:_List_1_System_Collections_Generic_ICollectionU3CTU3E_get_IsReadOnly_m3598018290_gshared
ZOe:_ReadOnlyCollection_1_System_Collections_IList_Insert_m3679749778_gshared
mBh:_Toggle_OnDidApplyAnimationProperties_m325835214
gPj:_wctomb
ati:_AnimatorControllerPlayable_INTERNAL_CALL_IsParameterControlledByCurveString_m1715379406
wdc:__Z27Camera_CUSTOM_GetAllCamerasP11Il2CppArray
eDb:__ZNK13MonoBehaviour25GetNeedsPerObjectTypeTreeEv
MSj:__ZNSt11logic_errorD0Ev
LBd:_Convert_InternalFromBase64String_m3682756716
bd:___cxa_rethrow
Ctc:__Z18Transfer_BlittableI8JSONReadLb1EhEvRK29SerializationCommandArgumentsR31RuntimeSerializationCommandInfo
zGc:__ZN18Overlap2DQueryBase13ReportFixtureEP9b2Fixture
ngg:__ZL86GUI_t4082743951_CustomAttributesCacheGenerator_U3CnextScrollStepTimeU3Ek__BackingFieldP21CustomAttributesCache
V9b:__ZN10systeminfo23SupportsLocationServiceEv
m8f:__ZL85Input_t1785128008_CustomAttributesCacheGenerator_Input_get_touchSupported_m3352846145P21CustomAttributesCache
hS:__ZNKSt3__26__treeINS_12__value_typeIN4core12basic_stringIcNS2_20StringStorageDefaultIcEEEES6_EENS_19__map_value_compareIS6_S7_NS_4lessIS6_EELb1EEENS_9allocatorIS7_EEE4findIS6_EENS_21__tree_const_iteratorIS7_PNS_11__tree_nodeIS7_PvEEiEERKT_
UEi:_Regex_System_Runtime_Serialization_ISerializable_GetObjectData_m4035555909
nJg:_TimeSpan_Add_m3228293154
Knh:_DefaultComparer_Equals_m4098991076_gshared
C4a:__ZN13MonoBehaviour8SetClassE17ScriptingClassPtr18ScriptingObjectPtr
Oqf:_RC4__cctor_m523650203
qAi:_CrossContextDelegate_Invoke_m2908136830
RRi:_Locale_GetText_m3480617287
Tmf:_ApplicationIdentity_ToString_m800036884
HW:__ZN20LocalFileSystemPosix4ReadER13FileEntryDatayyPvPy
m_a:__ZNSt3__211__sift_downIRN23ForwardShaderRenderLoop18RenderObjectSorterILb0EEEP21ForwardRenderPassDataEEvT0_S7_T_NS_15iterator_traitsIS7_E15difference_typeES7_
y8e:_UnmanagedMemoryStream_get_Position_m4093669769
tWf:__ZL83MethodDictionary_t1742974787_CustomAttributesCacheGenerator_U3CU3Ef__switchU24map21P21CustomAttributesCache
HVj:dynCall_iiiiiiffiiiiiiiiiffffiiii
tDb:__ZN13MonoBehaviour5DoGUIENS_13GUILayoutTypeEii
_nf:_Kernel_Multiply_m1938858919
TTg:_DerivedType_IsDefined_m555719351
kCi:_Mark_get_IsDefined_m3332701456
Gbb:__ZNK12TLSAllocatorI14StackAllocatorE8ContainsEPKv
$xb:__ZN11TimeManager8TransferI18StreamedBinaryReadILb0EEEEvRT_
WWb:__ZN15SerializeTraitsINSt3__23mapI4PPtrI6ShaderEN4core12basic_stringIcNS5_20StringStorageDefaultIcEEEENS0_4lessIS4_EENS0_9allocatorINS0_4pairIKS4_S9_EEEEEEE8TransferI24GenerateTypeTreeTransferEEvRSH_RT_
Wif:_EncryptedPrivateKeyInfo__ctor_m3964541963
_Cg:_DESTransform__cctor_m1179482644
Aph:_EqualityComparer_1_System_Collections_IEqualityComparer_GetHashCode_m1465362976_gshared
kbh:_Object_t1021602117_marshal_pinvoke_cleanup
Ntb:__ZN14BlendShapeData8TransferI14SafeBinaryReadEEvRT_
$Ni:_TextGenerator_PopulateWithErrors_m467881283
jNd:_Enum_Format_m2294492821
F$f:__ZL81Convert_t2607082565_CustomAttributesCacheGenerator_Convert_ToDateTime_m3810846875P21CustomAttributesCache
Kpa:__ZN7Texture25ReloadFromStorageIfNeededEPvb
QAb:__ZN24GenerateTypeTreeTransfer8TransferINSt3__26vectorIN30RuntimeInitializeOnLoadManager15ClassMethodInfoE13stl_allocatorIS4_L18MemLabelIdentifier12ELi16EEEEEEvRT_PKc17TransferMetaFlags
Jmg:__ZL106PointerEventData_t1599784723_CustomAttributesCacheGenerator_PointerEventData_set_pressPosition_m2094137883P21CustomAttributesCache
Qgh:_ShimEnumerator_get_Entry_m2332479818_gshared
qRd:_BaseRaycaster_get_priority_m247683215
eId:_DateTime_CheckDateTimeKind_m329345155_AdjustorThunk
HYc:_Update_Max
_ui:_PlayableHandle_Equals_m1435096530_AdjustorThunk
nsj:__ZN6il2cpp6icalls8mscorlib6SystemL15ThrowNoWideningEv
k0b:__ZNK23TransformChangeDispatch24GetChangeMaskForInterestENS_12InterestTypeE
Njc:__Z45Transform_CUSTOM_INTERNAL_CALL_TransformPointP12Il2CppObjectRK8Vector3fRS1_
OHe:__ZN23InterfaceActionInvoker2Ii18Color32_t874517518E6InvokeEjP11Il2CppClassP12Il2CppObjectiS0_
jbb:__ZL10KeyHandleriPK23EmscriptenKeyboardEventPv
T8i:__ZN14dense_hash_mapI10KeyWrapperI13dynamic_arrayIPK10Il2CppTypeLj4EEEPFvvEN6il2cpp8metadata19Il2CppSignatureHashENS6_14EqualsComparerINSA_22Il2CppSignatureCompareEEENSt3__29allocatorINSF_4pairIKS6_S8_EEEEEC2EjRKSB_RKSE_
vha:__ZNSt3__26__treeINS_12__value_typeI39DeprecatedFastPropertyNameSerializationfEENS_19__map_value_compareIS2_S3_NS_4lessIS2_EELb1EEENS_9allocatorIS3_EEE7destroyEPNS_11__tree_nodeIS3_PvEE
dSc:_tt_cmap4_char_index
c3h:__Z54RuntimeInvoker_Void_t1841601450_Vector2U26_t3911752445PK10MethodInfoPvPS2_
jki:_AsyncOperation_get_allowSceneActivation_m2825451182
OJg:_TimeSpan_op_Addition_m3421801803
FLa:__ZNK12HandlerChain8IsHiddenERK13FileEntryData
Hog:__ZL50Graphic_t2426225576_CustomAttributesCacheGeneratorP21CustomAttributesCache
cJb:__ZL26Transfer_SimpleNativeClassI17RemapPPtrTransfer10RectOffsetLb0EEvRK29SerializationCommandArgumentsR31RuntimeSerializationCommandInfo
aOc:__Z14ValidateFormatR13dynamic_arrayIN20TextRenderingPrivate16TextFormatChangeELj4EE
Ute:_List_1__ctor_m2672294496_gshared
nQi:_Vector2_op_Implicit_m1064335535
gHd:_DateTime_System_IConvertible_ToInt32_m2789391054_AdjustorThunk
ygf:_ASN1Convert_FromInt32_m1541043489
tUd:_PointerInputModule_ProcessMove_m3200120346
sCd:_Convert_ToByte_m1008221737
Ppf:_MD2Managed_MD2Transform_m3825201358
TIe:_Collection_1_System_Collections_IList_IndexOf_m3976312928_gshared
nqg:__ZL69Scrollbar_t3248359358_CustomAttributesCacheGenerator_m_OnValueChangedP21CustomAttributesCache
Hne:_KeyValuePair_2__ctor_m3201181706_gshared
BDc:__ZN10ClipperLib14PointInPolygonERKNS_8IntPointEPNS_5OutPtE
jvg:_SoapFieldAttribute_get_XmlElementName_m4100905008
F_d:_Dropdown_AddOptions_m835420907
mRi:_Vector4_get_sqrMagnitude_m2115578799_AdjustorThunk
smg:__ZL107PointerEventData_t1599784723_CustomAttributesCacheGenerator_PointerEventData_get_rawPointerPress_m448871540P21CustomAttributesCache
Afa:__ZNK9ShaderLab20ShaderBlendStateDesc15ToGfxBlendStateEPK19ShaderPropertySheetS3_R13GfxBlendState
TQf:__ZL92Hashtable_t909839986_CustomAttributesCacheGenerator_Hashtable_t909839986____hcp_PropertyInfoP21CustomAttributesCache
VXd:_CanvasUpdateRegistry_IsRebuildingLayout_m1677873278
ZEc:__ZN15dense_hashtableINSt3__24pairIKNS1_IPK10Collider2DS4_EE11Collision2DEES5_NS2_23ColliderPairHashFunctorEN14dense_hash_mapIS5_S7_S9_NS0_8equal_toIS5_EE13stl_allocatorIS8_L18MemLabelIdentifier65ELi16EEE9SelectKeyESC_SF_E9copy_fromERKSI_j
Y3h:__Z64RuntimeInvoker_Boolean_t3825574718_PlayableHandleU26_t3483893774PK10MethodInfoPvPS2_
_v:__ZN11UnityEngine9AnimationL22GenericBindingCallbackEPvS1_i
pYc:_Compute_Point_Displacement
GWb:__ZN9ShaderLab9IntShaderC2Ev
Hej:__ZN6il2cpp6icalls8mscorlib6SystemL9IsPrivateEPK9EventInfo
ALj:__ZN6il2cpp6icalls8mscorlib6System10Reflection4Emit11TypeBuilder20setup_internal_classEP27Il2CppReflectionTypeBuilderS7_
BFh:_InternalEnumerator_1_System_Collections_IEnumerator_Reset_m3237341717_AdjustorThunk
n4i:__ZL25UnresolvedVirtualCall_177P12Il2CppObject23RaycastResult_t21186376S1_PK10MethodInfo
e3g:_RectOffset_set_left_m620681523
$bh:_Physics2D_Raycast_m2560154475
_Ch:_ArrayReadOnlyList_1_IndexOf_m1809425308_gshared
sci:__Z61RuntimeInvoker_Int32_t2071877448_ResourceCacheItem_t333236149PK10MethodInfoPvPS2_
tgj:_il2cpp_gc_disable
jE:__Z69AnimatorControllerPlayable_CUSTOM_INTERNAL_CALL_GetLayerIndexInternalR9HPlayableP12Il2CppString
cTd:_ExecuteEvents_U3Cs_HandlerListPoolU3Em__0_m2903690915
yzd:_Hashtable_Clone_m165405752
Wzc:__ZN16b2PrismaticJoint24SolveVelocityConstraintsERK12b2SolverData
yTf:__ZL61CallingConventions_t1097349142_CustomAttributesCacheGeneratorP21CustomAttributesCache
iRh:__Z140RuntimeInvoker_Boolean_t3825574718_Il2CppObject_Int32_t2071877448_Il2CppObject_SByte_t454417549_Int64U26_t763825331_ExceptionU26_t1467204777PK10MethodInfoPvPS2_
uoi:_Component_BroadcastMessage_m444672650
L5c:__ZN11UnityEngine15PlatformWrapper19GetPhysicalMemoryMBEv
Ang:__ZL144U3CStartU3Ec__Iterator0_t3220237554_CustomAttributesCacheGenerator_U3CStartU3Ec__Iterator0_System_Collections_IEnumerator_get_Current_m290565900P21CustomAttributesCache
LX:__Z15CreateDirectoryRKN4core12basic_stringIcNS_20StringStorageDefaultIcEEEE
Joa:__Z21CalculateGlobalMatrix23TransformAccessReadOnly
NPf:__ZL70InternalsVisibleToAttribute_t1037732567_CustomAttributesCacheGeneratorP21CustomAttributesCache
d3e:_MonoIO_GetCurrentDirectory_m1509324201
ied:_SHA384Managed_adjustByteCounts_m410900820
AFg:_UTF32Encoding_GetHashCode_m4205784236
hDd:_DateTime_ToUniversalTime_m1815024752
Kng:__ZL73U3COnFinishSubmitU3Ec__Iterator0_t99135383_CustomAttributesCacheGeneratorP21CustomAttributesCache
D_b:__Z13RegisterClassI14RenderSettingsEvv
N2a:__ZNK25CameraStackRenderingState25CalculateCameraTargetTypeEv
HNi:_TextGenerator_Finalize_m4242493229
rEe:_Collection_1_ConvertItem_m3563206219_gshared
LJg:_TimeSpan_Subtract_m3597791685_AdjustorThunk
CZg:_MonoCMethod_get_Name_m764669486
sui:_AnimatorControllerPlayable_CrossFade_m3146661810
az:__ZN7mecanim12statemachine24CreateStateMachineOutputEPKNS0_20StateMachineConstantEjRNS_6memory9AllocatorE
C8g:_Logger__ctor_m3834134587
Ffj:_il2cpp_assembly_get_image
yva:__ZNK9GfxDevice27GetActiveRenderSurfaceWidthEv
pae:_SetPropertyUtility_SetClass_TisIl2CppObject_m3524554928_gshared
rdb:__ZNK11AssetBundle26GetTypeInfoVirtualInternalEv
IJi:_PKCS12_get_Keys_m1312614820
b6c:__ZN11UnityEngine15PlatformWrapper28GetCleanGraphicsFixedVersionEv
iab:__ZN16MemoryFileSystem5WriteER13FileEntryDatayyPvPy
w:tempBigIntP
wij:__ZN6il2cpp2vm4Type7GetTypeEPK10Il2CppType
OKf:_Interval_t2354235237_marshal_pinvoke_cleanup
Tdh:_Rect_Contains_m1334685291_AdjustorThunk
GEc:__ZN23ColliderTilingExtensionD0Ev
T0b:__ZN16SpriteRenderData28PrepareRenderingDataIfNeededEv
kqd:_AssemblyLoadEventHandler_Invoke_m108373765
X6h:__Z64RuntimeInvoker_Boolean_t3825574718_Il2CppObject_Int64_t909078037PK10MethodInfoPvPS2_
sUd:_PointerInputModule_ShouldStartDrag_m4163638715
cog:__ZL61Dropdown_t1985816271_CustomAttributesCacheGenerator_m_OptionsP21CustomAttributesCache
u2i:__ZL24UnresolvedVirtualCall_76P12Il2CppObjectPK10MethodInfo
Nka:__ZN6prcoreL17RemapGenericFloatI18TexFormatRGBAFloat17TexFormatRGBAHalfEEvPKNS_9InnerInfoE
_Qa:__Z16FindCameraStacksRKNSt3__24listI4PPtrI6CameraENS_9allocatorIS3_EEEERNS_6vectorI11CameraStackNS4_ISA_EEEE
QRi:_WebRequestUtils__cctor_m893658947
opb:__ZN10GISettings8TransferI14SafeBinaryReadEEvRT_
xn:FUNCTION_TABLE_vifff
CRe:_ReadOnlyCollection_1_System_Collections_Generic_ICollectionU3CTU3E_Remove_m2957273994_gshared
kRd:_BaseInputModule_ShouldActivateModule_m2899747874
eda:__ZN13RenderTexture13ApplySettingsEv
h_f:__ZL92UTF8Encoding_t111055448_CustomAttributesCacheGenerator_UTF8Encoding_GetByteCount_m2547312609P21CustomAttributesCache
$e:_JS_Sound_SetListenerPosition
qn:FUNCTION_TABLE_fiffi
iXg:_ModuleBuilderTokenGenerator_GetToken_m3427457873
DCb:__ZN9TextAsset9SetScriptERKN4core12basic_stringIcNS0_20StringStorageDefaultIcEEEEb
nyh:_Selectable_get_isPointerInside_m3162215687
gse:_List_1_System_Collections_IList_Contains_m149594880_gshared
_yj:__ZNK15dense_hashtableINSt3__24pairIK10KeyWrapperINS1_IPKcS4_EEEiEES6_24NamespaceAndNamePairHashN14dense_hash_mapIS6_iS9_NS6_14EqualsComparerI26NamespaceAndNamePairEqualsEENS0_9allocatorIS8_EEE9SelectKeyESD_SF_E10test_emptyERK24dense_hashtable_iteratorIS8_S6_S9_SH_SD_SF_E
l0f:__ZL78Convert_t2607082565_CustomAttributesCacheGenerator_Convert_ToSByte_m2585959569P21CustomAttributesCache
Xdh:_Rect_Overlaps_m4145874649
SOg:_UnauthorizedAccessException__ctor_m3480402128
Nff:_BigInteger_op_Modulus_m3788401748
SAi:_ArgInfo_GetInOutArgs_m3184132151
Rma:__ZNK8Material16MarkDependenciesER27GarbageCollectorThreadState
G_f:__ZL85Thread_t241561612_CustomAttributesCacheGenerator_Thread_get_CurrentThread_m3667342817P21CustomAttributesCache
gsc:__ZL17Transfer_GUIStyleI9JSONWriteLb0EEvRK29SerializationCommandArgumentsR31RuntimeSerializationCommandInfo
MUa:__Z28GetHaloVertexPositionsStereoP8Vector3fRKS_S2_f
Dla:__ZN6prcoreL27StretchGenericFloatBilinearI15TexFormatRGHalfEEvPKNS_9InnerInfoE
pkg:__ZL85UnityEvent_1_t4075366602_CustomAttributesCacheGenerator_UnityEvent_1__ctor_m152711818P21CustomAttributesCache
$oe:_Enumerator_MoveNext_m598197344_AdjustorThunk
c3i:__ZL25UnresolvedVirtualCall_112P12Il2CppObjectsS0_aaaPK10MethodInfo
Dpi:_DisplaysUpdatedDelegate_Invoke_m3646339243
tNi:_TextGenerationSettings_t2543476768_marshal_pinvoke_back
lld:_String_JoinUnchecked_m1880555587
Rfa:__ZNK9ShaderLab7Program21GetMatchingSubProgramEPK6ShaderPKNS_4PassERK16ShaderKeywordSetjPS7_R19ShaderSnippetResult
uge:_Array_InternalArray__Insert_TisKeyValuePair_2_t1174980068_m2464431954_gshared
p5f:__ZL109AsyncOperation_t3814632279_CustomAttributesCacheGenerator_AsyncOperation_set_allowSceneActivation_m3988498951P21CustomAttributesCache
oic:__Z49Register_UnityEngine_Resources_GetBuiltinResourcev
NFi:_BalancingGroup_set_Balance_m3452171919
pSc:_tt_cmap10_char_index
B_d:_Dropdown_Awake_m335654827
_7:__Z18GetITerrainManagerv
rmh:_Dictionary_2_U3CCopyToU3Em__0_m1479035402_gshared
pxd:_BitArray_set_Item_m3801461194
hVd:_StandaloneInputModule_get_cancelButton_m1563746440
n$i:__ZN15dense_hashtableINSt3__24pairIK10KeyWrapperIPK22Il2CppGenericParameterEP11Il2CppClassEES6_N6il2cpp5utils11PointerHashIS4_EEN14dense_hash_mapIS6_S9_SE_NS6_14EqualsComparerINS0_8equal_toIS5_EEEENS0_9allocatorISA_EEE9SelectKeyESJ_SL_E3endEv
Wkd:_String_Remove_m3580114465
lPc:_UNITY_FT_Destroy_Class_cff_field_handlers
mVb:__ZN9ShaderLab22SerializedBindChannels8TransferI19StreamedBinaryWriteILb0EEEEvRT_
sOf:__ZL65Il2CppArray_CustomAttributesCacheGenerator_Array_Copy_m1969461849P21CustomAttributesCache
BEh:_InternalEnumerator_1_MoveNext_m1791963761_AdjustorThunk
Omc:__ZN5IMGUI20MoveWindowFromLayoutER8GUIStateiRK5RectTIfE
aUf:__ZL56ParameterInfo_t2249040075_CustomAttributesCacheGeneratorP21CustomAttributesCache
Cxi:_UrlAttribute_get_UrlValue_m3448699483
m7f:__ZL83GameObject_t1756533147_CustomAttributesCacheGenerator_GameObject_set_tag_m717375123P21CustomAttributesCache
t3g:_Mathf_Max_m1875893177
tOg:_UIntPtr__ctor_m2737768530
FNc:_UNITY_FT_Stream_ReadUShort
Yki:_Bounds_get_center_m129401026_AdjustorThunk
Y4d:_InputField_OnEnable_m3797157569
Vec:__Z51Register_UnityEngine_GUILayer_INTERNAL_CALL_HitTestv
Skc:__Z50Register_UnityEngine_Object_FindSceneObjectsOfTypev
Wga:__ZNSt3__26__treeINS_12__value_typeIN4core12basic_stringIcNS2_20StringStorageDefaultIcEEEES6_EENS_19__map_value_compareIS6_S7_NS_4lessIS6_EELb1EEE13stl_allocatorIS7_L18MemLabelIdentifier1ELi16EEE7destroyEPNS_11__tree_nodeIS7_PvEE
USi:_Nullable_1__ctor_m796575255_gshared
UFj:__ZN6il2cpp2vm8Profiler7GCEventE13Il2CppGCEvent
qHd:_DateTimeUtils_ToString_m3878360633
msj:__ZN6il2cpp6icalls8mscorlib6SystemL16ThrowInvalidCastEPK11Il2CppClassS5_
gMh:_InternalEnumerator_1_get_Current_m3732458101_AdjustorThunk
czb:__ZN12AspectRatios8TransferI24GenerateTypeTreeTransferEEvRT_
yVd:_StandaloneInputModule_ForceAutoSelect_m1167170508
gEh:_InternalEnumerator_1_MoveNext_m1636015243_gshared
Csf:_Context_get_ServerWriteIV_m2960700649
Ghi:_CustomEventData_AddUInt64_m1437973832
JVd:_TouchInputModule_Process_m1373751353
Rf:_emscripten_glUniform1fv
ngb:__ZNK17FileSystemHandler8IsHiddenERK13FileEntryData
BSd:_ExecuteEvents_Execute_m898902863
jJ:__ZN4FMOD7Channel7setModeEj
ETg:_DerivedType_InvokeMember_m4149586013
Ktg:__ZL76WhiteCellController_t1439096391_CustomAttributesCacheGenerator_resetPositionP21CustomAttributesCache
oU:__ZN13EmscriptenWWW6CancelEv
vAf:_TlsStream_SetLength_m1460039587
Vmc:__ZN11IMGUIModule12AddGUIScriptER8ListNodeI13MonoBehaviourE
qb:invoke_difi
ETd:_PointerEventData_set_rawPointerPress_m1484888025
H7:__ZL50StaticRegisterSceneLoadedCallback_LightmapSettingsPv
Dwd:_SimpleEnumerator_Clone_m215554974
QXa:__ZN29MotionVectorRenderLoopScratch15ThreadedCleanupEv
Pm:FUNCTION_TABLE_iiffi
H1d:_GridLayoutGroup_get_cellSize_m1061731753
rzj:__ZN15dense_hashtableINSt3__24pairIK10KeyWrapperINS1_IPKcS4_EEEiEES6_24NamespaceAndNamePairHashN14dense_hash_mapIS6_iS9_NS6_14EqualsComparerI26NamespaceAndNamePairEqualsEENS0_9allocatorIS8_EEE9SelectKeyESD_SF_E12expand_arrayEjN21dense_hash_map_traits17integral_constantIbLb0EEE
Bph:_EqualityComparer_1_System_Collections_IEqualityComparer_Equals_m300683774_gshared
gAa:__ZN21GLESGpuProgramApplier11ApplyVectorERKN20GpuProgramParameters14ValueParameterEPK8Vector4ft
y0a:__Z17PrepareSceneNodesP11CullResults
tRi:_Vector4_ToString_m2340321043_AdjustorThunk
Ala:__ZN6prcoreL27StretchGenericFloatBilinearI18TexFormatRGBAFloatEEvPKNS_9InnerInfoE
QGi:_Parser_IsIgnoreCase_m4155598997
Evj:__ZN15dense_hashtableINSt3__24pairIK10KeyWrapperIP14Il2CppIUnknownEjEES5_N6il2cpp5utils11PointerHashIS3_EEN14dense_hash_mapIS5_jSB_NS5_14EqualsComparerINS0_8equal_toIS4_EEEENS0_9allocatorIS7_EEE9SelectKeyESG_SI_E12expand_arrayEjN21dense_hash_map_traits17integral_constantIbLb0EEE
EUc:_cff_size_done
Gph:_EqualityComparer_1_System_Collections_IEqualityComparer_Equals_m3376587337_gshared
cSa:__ZN22RenderingCommandBuffer13GetAndCheckRTE24BuiltinRenderTextureTypeRKN9ShaderLab16FastPropertyNameEPKcPP13RenderTexture
k7a:__ZN6Camera34UpdatePreviousViewProjectionMatrixEv
Ufa:__ZN9ShaderLab11ShaderState25RemoveUnsupportedProgramsEPK6Shader
ZVb:__ZL23AddGpuProgramParametersR20GpuProgramParametersRKNSt3__26vectorIN9ShaderLab20SerializedSubProgram15MatrixParameterENS1_9allocatorIS5_EEEERKNS2_INS4_15VectorParameterENS6_ISB_EEEEiP16PropertyNamesSet
Q4f:__ZL179U3CCreateWhereIteratorU3Ec__Iterator1D_1_t2523986802_CustomAttributesCacheGenerator_U3CCreateWhereIteratorU3Ec__Iterator1D_1_System_Collections_IEnumerator_get_Current_m1354814095P21CustomAttributesCache
Kkc:__Z44Register_UnityEngine_Object_DestroyImmediatev
qRf:__ZL57CompareOptions_t2829943955_CustomAttributesCacheGeneratorP21CustomAttributesCache
fec:__Z47Register_UnityEngine_Component_BroadcastMessagev
Ar:__ZN18StreamedBinaryReadILb0EE21TransferSTLStyleArrayI13dynamic_arrayI4PPtrI6ObjectELj4EEEEvRT_17TransferMetaFlags
jVf:__ZL62_ConstructorBuilder_t1236878896_CustomAttributesCacheGeneratorP21CustomAttributesCache
Dac:__Z26scripting_class_has_parent17ScriptingClassPtrS_
A0e:_Int64_System_IConvertible_ToInt16_m2022633688_AdjustorThunk
O6:__ZN13RuntimeStaticI21AssetReferenceStorageLb0EE16StaticInitializeEPv
eOj:__ZN6il2cpp8metadata25Il2CppGenericClassCompare7CompareEPK18Il2CppGenericClassS4_
Eu:__ZNK8Animator20IsInMatchTargetStateEv
Em:FUNCTION_TABLE_viiifiii
Anc:__Z36Register_UnityEngine_GUI_set_changedv
QYd:_ColorTween_get_startColor_m278546349_AdjustorThunk
hid:_Encoding_get_Unicode_m1382741113
czi:_LifetimeServices_set_SponsorshipTimeout_m1403222216
xae:_SetPropertyUtility_SetStruct_TisFitMode_t4030874534_m2608169783_gshared
ZVh:__Z64RuntimeInvoker_Single_t2076509932_Il2CppObject_Int32_t2071877448PK10MethodInfoPvPS2_
Hud:_Char_ToString_m1401375624_AdjustorThunk
kee:_Array_InternalArray__ICollection_Add_TisTableRange_t2011406615_m147373358_gshared
yDd:_Convert_ToDateTime_m1251728572
mee:_Array_InternalArray__ICollection_Add_TisBoolean_t3825574718_m1009318882_gshared
xSe:_ReadOnlyCollection_1_System_Collections_IList_set_Item_m1149349508_gshared
My:__ZN27AnimationLayerMixerPlayable18SetInputConnectionEP8Playablei
cpc:__Z42Register_UnityEngine_GUIStyle_get_wordWrapv
izg:_ObjectReader_ReadObjectContent_m3949770110
Ywe:_List_1_System_Collections_ICollection_get_SyncRoot_m3031553207_gshared
qoi:_Component_SendMessage_m4199581575
gta:__ZZ19InitializeGfxDevice20GfxCreateDeviceFlagsEN38PreLateUpdateEndGraphicsJobsLatestruct7ForwardEv
Z0i:__ZN6il2cpp2vm5Class40GetInterfaceInvokeDataFromVTableSlowPathEPK12Il2CppObjectPK11Il2CppClassj
Aog:__ZL69FontData_t2614388407_CustomAttributesCacheGenerator_m_AlignByGeometryP21CustomAttributesCache
clb:__ZN20TierGraphicsSettings8TransferI18StreamedBinaryReadILb0EEEEvRT_
dAh:_Text_get_font_m3115501113
wrj:__GLOBAL__sub_I_Thread_cpp
fha:__ZN14SafeBinaryRead8TransferINSt3__24pairIN9ShaderLab16FastPropertyNameE10ColorRGBAfEEEEvRT_PKc17TransferMetaFlags
eXi:__ZL9rshift128PyS_
pYb:__Z10pqHeapInitP13PriorityQHeap
czg:_ObjectReader_RecordFixup_m1893348030
yUg:_EnumBuilder_GetElementType_m1228393631
kpj:__ZN14dense_hash_mapI10KeyWrapperINSt3__24pairIPK12PropertyInfoP11Il2CppClassEEEj17ReflectionMapHashIS8_ENS9_14EqualsComparerINS1_8equal_toIS8_EEEENS1_9allocatorINS2_IKS9_jEEEEE13set_empty_keyERSH_
fk:_glRenderbufferStorage
czj:__ZNK15dense_hashtableINSt3__24pairIK10KeyWrapperINS1_IPKcS4_EEEiEES6_24NamespaceAndNamePairHashN14dense_hash_mapIS6_iS9_NS6_14EqualsComparerI26NamespaceAndNamePairEqualsEENS0_9allocatorIS8_EEE9SelectKeyESD_SF_E13find_positionERS7_
JSf:__ZL80ILGenerator_t99948092_CustomAttributesCacheGenerator_ILGenerator_Emit_m116557729P21CustomAttributesCache
FLf:__ZL43Il2CppObject_CustomAttributesCacheGeneratorP21CustomAttributesCache
kgc:__Z45Register_UnityEngine_Input_get_touchSupportedv
f6c:__ZN11UnityEngine15PlatformWrapper28GetTextureFormatSupportFlagsEv
fQc:_UNITY_FT_Create_Class_pshinter_module_class
P5h:__Z103RuntimeInvoker_Void_t1841601450_Vector2U26_t3911752445_Il2CppObject_Il2CppObject_Vector2U26_t3911752445PK10MethodInfoPvPS2_
tkd:_String_CompareOrdinalCaseInsensitiveUnchecked_m2002640463
$rd:_Boolean_GetHashCode_m1894638460
hVc:_cf2_setError
Mmf:_AppDomainInitializer_BeginInvoke_m2446455399
EOg:_UIntPtr_ToUInt32_m1679632738_AdjustorThunk
SFg:_UTF7Encoding_InternalGetChars_m4157428055
Coa:__Z33InterpolateLightProbeCoefficientsRK17LightProbeContextRK29LightProbeSamplingCoordinatesR20SphericalHarmonicsL2
R9f:__ZL86Texture_t2243626319_CustomAttributesCacheGenerator_Texture_Internal_GetWidth_m56137242P21CustomAttributesCache
Zhf:_SmallXmlParser_HandleBufferedContent_m3397096753
dh:_glDisable
e6d:_InputField_OnDeselect_m3963675647
nFh:_InternalEnumerator_1_MoveNext_m1994485778_AdjustorThunk
e3c:__Z44Register_UnityEngine_Canvas_get_pixelPerfectv
Xne:_KeyValuePair_2_get_Value_m1916631176_AdjustorThunk
IRg:_MethodBase__ctor_m3951051358
emb:__ZN4PPtrI9Texture2DE8TransferI14SafeBinaryReadEEvRT_
mBj:__ZN6il2cpp5utils11StringUtils15StringDuplicateEPKDsj
n_d:_Dropdown_get_template_m3014799983
dJf:_BaseMachine_Scan_m122450399
Kui:_AnimatorControllerPlayable_PlayInternal_m3385259863
tvd:_ArrayList_CopyTo_m2353632788
nTf:__ZL71AssemblyFileVersionAttribute_t2897687916_CustomAttributesCacheGeneratorP21CustomAttributesCache
pfi:__Z33RuntimeInvoker_Color32_t874517518PK10MethodInfoPvPS2_
B7:__ZNSt3__26vectorINS_4pairIyP17VertexDeclarationEENS_9allocatorIS4_EEE6assignIPS4_EENS_9enable_ifIXaasr21__is_forward_iteratorIT_EE5valuesr16is_constructibleIS4_NS_15iterator_traitsISB_E9referenceEEE5valueEvE4typeESB_SB_
kue:_List_1_Add_m943275925_gshared
Wbi:__Z100RuntimeInvoker_Int32_t2071877448_Il2CppObject_Color32_t874517518_Int32_t2071877448_Int32_t2071877448PK10MethodInfoPvPS2_
M9c:_HMAC_get_BlockSizeValue_m603907214
hYa:__ZNK8Material12GetPassCountEv
ZAd:_Enumerator__cctor_m3784927209
k2j:b110
l2j:b111
m2j:b112
gTj:_bitshift64Ashr
p2j:b114
q2j:b115
r2j:b116
Iga:__ZNK8Material26GetTypeInfoVirtualInternalEv
mIc:__ZN11Rigidbody2D23VirtualRedirectTransferER14SafeBinaryRead
K0b:__ZN14SpriteRenderer12CleanupClassEv
IBa:__ZN4crnd12crn_unpacker22decode_alpha_endpointsEv
y1a:__Z23CullDynamicObjectsUmbraPK4AABBPKN5Umbra15OcclusionBufferER9IndexList
vtg:__ZL67FieldWithTarget_t2256174789_CustomAttributesCacheGenerator_m_TargetP21CustomAttributesCache
mJe:_Collection_1_RemoveItem_m2565709010_gshared
eSc:_tt_cmap4_char_next
s7h:__Z86RuntimeInvoker_Void_t1841601450_Il2CppObject_StringU26_t638738783_StringU26_t638738783PK10MethodInfoPvPS2_
rPb:__ZN18StreamedBinaryReadILb1EE21TransferSTLStyleArrayI13dynamic_arrayIiLj4EEEEvRT_17TransferMetaFlags
p$:__ZN17DirectorFrameTime14ResetDSPValuesEv
IIi:_GeneralNames_ToString_m800435094
JWd:_BaseMeshEffect_OnDidApplyAnimationProperties_m2484799839
NXf:__ZL73AsymmetricSignatureDeformatter_t3580832979_CustomAttributesCacheGeneratorP21CustomAttributesCache
umd:_ASCIIEncoding_GetString_m3931709239
X6f:__ZL97GameObject_t1756533147_CustomAttributesCacheGenerator_GameObject__ctor_m1633632305____components1P21CustomAttributesCache
Z_a:__ZN23ForwardShaderRenderLoopD2Ev
yIa:__ZN9GfxDevice20SetComputeBufferDataE15ComputeBufferIDPKvj
rMg:_UInt16_Parse_m3560204090
Jvc:__ZN8JSONRead21TransferSTLStyleArrayI13dynamic_arrayIsLj2EEEEvRT_18MemLabelIdentifier17TransferMetaFlags
XI:__ZN4FMOD7Channel11setPositionEjj
Xh:_glBindSampler
E8:__Z22CreateMutexLockedQueuev
MTe:_ReadOnlyCollection_1_System_Collections_Generic_ICollectionU3CTU3E_Clear_m964488020_gshared
nid:_SecurityFrame_get_Domain_m3219347572_AdjustorThunk
_h:_glGetVertexAttribiv
udd:_SHA1__ctor_m788472966
oee:_Array_InternalArray__ICollection_Add_TisChar_t3454481338_m422084244_gshared
z6i:__ZNSt3__218uninitialized_fillIPNS_4pairIK10KeyWrapperIPKcEP11Il2CppClassEES9_EEvT_SB_RKT0_
P_c:__ZN2UI11CanvasGroup23VirtualRedirectTransferER18StreamedBinaryReadILb0EE
Uhh:_Transform_1_EndInvoke_m803975703_gshared
JTe:_ReadOnlyCollection_1_get_Item_m3778245964_gshared
q1f:__ZL52EventArgs_t3289624707_CustomAttributesCacheGeneratorP21CustomAttributesCache
kti:_AnimatorControllerPlayable_GetLayerName_m2571001466
Quc:__ZN8JSONRead8TransferIbEEvRT_PKc17TransferMetaFlagsb
HFe:_Collection_1_RemoveAt_m290627370_gshared
Eii:_AnimationEvent_get_objectReferenceParameter_m3565420672
BTd:_PointerEventData_get_lastPress_m3835070463
l8g:_DefaultValueAttribute_Equals_m3216982933
kFf:_X509KeyUsageExtension_Decode_m3292847033
R7:__ZN26SharedLightmapSettingsDataD2Ev
lZg:_Module_filter_by_type_name_ignore_case_m3574895736
CWf:__ZL57ProxyAttribute_t4031752430_CustomAttributesCacheGeneratorP21CustomAttributesCache
_ob:__ZN26CustomRenderTextureManager19PreAllocateMaterialEP19CustomRenderTexture
yKc:__ZN19ControllerHitReport13onObstacleHitERKN5physx23PxControllerObstacleHitE
Kyg:_ObjectReader_ReadObject_m397855326
PGj:_GC_promote_black_lists
I2d:_Image_get_fillAmount_m3354146540
Bvc:__Z29Transfer_Blittable_ArrayFieldI8JSONRead8Vector4fEvRT_R9ArrayInfoRK23StaticTransferFieldInfo
Tre:_List_1_Sort_m1518807012_gshared
hOc:__ZNK13TextRendering4Font9GetAscentEv
Yn:FUNCTION_TABLE_vf
xo:FUNCTION_TABLE_vd
_Kg:_Type_GetMethod_m1930231379
zo:FUNCTION_TABLE_vi
Wxg:_WellKnownServiceTypeEntry_ToString_m493996021
oSf:__ZL55StreamReader_t2360341767_CustomAttributesCacheGeneratorP21CustomAttributesCache
M7g:_HumanBone_get_humanName_m2091758568_AdjustorThunk
iWf:__ZL51IMessage_t3044378324_CustomAttributesCacheGeneratorP21CustomAttributesCache
ndf:_SimpleCollator_GetContraction_m1391584430
csd:_CultureInfo_get_InvariantCulture_m398972276
Erd:_Boolean_System_IConvertible_ToInt64_m4142756949_AdjustorThunk
M5f:__ZL84Camera_t189460977_CustomAttributesCacheGenerator_Camera_get_targetTexture_m705925974P21CustomAttributesCache
NC:__ZNK8Animator17HasBoundPlayablesEv
uHc:__ZN17Physics2DSettings8TransferI24GenerateTypeTreeTransferEEvRT_
Dpf:_HMAC_initializePad_m3828610671
rbg:__ZL68DrivenTransformProperties_t2488747555_CustomAttributesCacheGeneratorP21CustomAttributesCache
qve:_List_1_Contains_m980727749_gshared
bdd:_RSAParameters_t1462703416_marshal_pinvoke_cleanup
izi:_ConfigHandler_OnChars_m2004226744
hki:_AsyncOperation_get_priority_m966065939
va:invoke_iiifiii
stj:__ZN6il2cpp2vm9Exception11FromNameMsgEPK11Il2CppImagePKcS6_S6_
gYe:_NumberFormatInfo_get_NumberDecimalDigits_m3706097953
JKg:_Type_internal_from_name_m1506974323
gn:FUNCTION_TABLE_fiiifii
gC:__ZN10HumanTrait15InitializeClassEv
E$:__Z14GetTimeManagerv
Mcg:__ZL143AnimatorControllerPlayable_t4078305555_CustomAttributesCacheGenerator_AnimatorControllerPlayable_INTERNAL_CALL_GetLayerNameInternal_m2049776925P21CustomAttributesCache
KZb:__ZneRK20SpriteTilingPropertyS1_
c4h:__Z67RuntimeInvoker_Void_t1841601450_Scene_t1684909666_Int32_t2071877448PK10MethodInfoPvPS2_
rhb:__Z12GUIDToStringRK9UnityGUIDPc
Ueb:__ZN15FileSystemEntry4LockE12FileLockModeP12FileAccessor
X7d:_Array_get_swapper_TisIl2CppObject_m1701356863_gshared
mM:__ZN11AudioSource22UnmuteActiveVideoSinksEv
jBj:__ZN4utf88internal20is_overlong_sequenceIiEEbjT_
Ti:_glReadBuffer
CWh:__Z31RuntimeInvoker_SByte_t454417549PK10MethodInfoPvPS2_
Jwd:_SynchronizedArrayListWrapper_get_Count_m4104930530
RDg:_HashAlgorithm_get_HashSize_m2625667696
pZa:__Z30SetupBakedOcclusionForGeometrybRK26SharedLightmapSettingsDataRK15LightmapIndicesR17ShaderPassContext
lje:_Array_Resize_TisVector4_t2243707581_m1528805937_gshared
jgd:_SecurityPermission_IsSubsetOf_m1087302418
lec:__Z41Register_UnityEngine_Cursor_get_lockStatev
OYa:__Z14SetupLightmapsRK8Vector4fS1_R17ShaderPassContext
RKf:_Interval_get_Empty_m3170923997
H2g:_GUILayoutEntry_CalcWidth_m2520096159
$$b:__Z20DestroyObjectDelayedP6Objectf
WU:__ZN20DynamicHeapAllocatorI17LowLevelAllocatorED0Ev
t5d:_InputField_OnDrag_m726194348
iDc:__ZN10ClipperLib11ClipperBase5ResetEv
Twi:_GuidAttribute__ctor_m1099153635
vef:_PreviousInfo__ctor_m1442166472_AdjustorThunk
$Va:__ZN9DepthPassD2Ev
OHd:_DateTime_get_Kind_m1331920314_AdjustorThunk
RH:__ZN11AudioFilter6GetDSPEv
C5i:__ZN13Il2CppHashMapIPKcP11Il2CppClassN6il2cpp5utils11StringUtils12StringHasherIS1_EENS6_21CaseSensitiveComparerENSt3__29allocatorINSA_4pairIK10KeyWrapperIS1_ES3_EEEEEC2EjRKS8_RKS9_
ZMc:__ZN20TextRenderingPrivate15DynamicFontData36GetFaceForCharacterIfAvailableInFontERKNS_7FontRefERKNSt3__26vectorI4PPtrIN13TextRendering4FontEE13stl_allocatorIS9_L18MemLabelIdentifier34ELi16EEEEj
L1:__ZN19RuntimeSceneManager14CanUnloadSceneEP10UnityScene
pWa:__Z22ExtractRenderNodeQueueRK11CullResults15ExtractionFlagsR15RenderNodeQueue
hie:_Array_InternalArray__set_Item_TisContentType_t1028629049_m703420360_gshared
OCj:__ZN6il2cpp2vm6Method7GetNameEPK10MethodInfo
pDe:_List_1_set_Item_m1431784996_gshared
dH:__ZN24AudioScriptBufferManagerC2Ev
Kwc:__ZN11UnityEngine9Analytics18SceneLoadTimeEvent12ToJsonStringER9JSONWrite
zMc:__ZNSt3__26vectorIh13stl_allocatorIhL18MemLabelIdentifier1ELi16EEE8__appendEj
CMc:__ZN20TextRenderingPrivate8FontImpl16ResetPackingDataEv
$Ig:_TimeSpan_get_Hours_m3804628138_AdjustorThunk
dde:_Array_InternalArray__IndexOf_TisLink_t865133271_m3612939760_gshared
orc:__Z18Transfer_BlittableI9JSONWriteLb0EfEvRK29SerializationCommandArgumentsR31RuntimeSerializationCommandInfo
rda:__Z21GetAsyncUploadManagerv
Kj:_emscripten_glDetachShader
yOg:_UIntPtr__cctor_m889490270
vcf:_SafeHandleZeroOrMinusOneIsInvalid_get_IsInvalid_m2033528032
tud:_Char_IsUpper_m4083577610
UAa:__ZN17GenericDynamicVBO20ReleaseChunkInternalERK21DynamicVBOChunkHandlejj
sZc:__ZL27CleanupModule_TextRenderingv
ucf:_SafeHandleZeroOrMinusOneIsInvalid__ctor_m3340306667
IPj:_fmodl
cwg:_SerializationInfo_AddValue_m902275108
WPj:_fmodf
fMe:_Collection_1_RemoveItem_m2272047354_gshared
uNb:__Z18Transfer_BlittableI18StreamedBinaryReadILb1EELb1E4AABBEvRK29SerializationCommandArgumentsR31RuntimeSerializationCommandInfo
nea:__ZN12CachedWriter11Align4WriteEv
sXa:__Z20DoDeferredRenderLoopR17RenderLoopContextR13dynamic_arrayI16RenderObjectDataLj4EES4_RK11CullResultsRP13RenderTextureSA_Pb
Ara:__ZNSt3__26vectorIiNS_9allocatorIiEEE21__push_back_slow_pathIKiEEvRT_
oeg:__ZL137AnimatorControllerPlayable_t4078305555_CustomAttributesCacheGenerator_AnimatorControllerPlayable_INTERNAL_CALL_ResetTriggerID_m3592790433P21CustomAttributesCache
bsa:__ZN19RuntimeSceneManager11CreateSceneEv
ZAg:_RuntimeTypeHandle__ctor_m235560320_AdjustorThunk
uUc:_ps_get_standard_strings
jHe:_Collection_1_IsValidItem_m1908012838_gshared
oZa:__Z27SetupBakedOcclusionForLightbRK15SharedLightDataR17ShaderPassContext
BMj:__ZN6il2cpp2os5Mutex6UnlockEv
_Cf:__ZN21InterfaceFuncInvoker1IP13Uri_t19570940S1_E6InvokeEjP11Il2CppClassP12Il2CppObjectS1_
J4i:__ZL25UnresolvedVirtualCall_199P12Il2CppObject22Navigation_t1571958496PK10MethodInfo
rxh:_ScrollRect_OnScroll_m3346515304
ldg:__ZL137AnimatorControllerPlayable_t4078305555_CustomAttributesCacheGenerator_AnimatorControllerPlayable_CrossFadeInFixedTimeInternal_m3729673154P21CustomAttributesCache
mSj:__ZN10__cxxabiv116__shim_type_infoD2Ev
Xpe:_Enumerator_System_Collections_IEnumerator_get_Current_m3461301268_gshared
jlh:_Dictionary_2_CopyToCheck_m1638253305_gshared
zRa:__Z18RenderImageFiltersR10RenderLoopb
IU:__Z19free_alloc_internalPv18MemLabelIdentifier
Ogb:__ZNK23ArchiveStorageConverter16GetDirectoryInfoEv
R1c:__Z43CanvasRenderer_Get_Custom_PropMaterialCountP12Il2CppObject
Q8g:__ZN23InterfaceActionInvoker2IP21Exception_t1927440687P18Object_t1021602117E6InvokeEjP11Il2CppClassP12Il2CppObjectS1_S3_
i5a:__ZN10GameObjectD2Ev
ROe:_ReadOnlyCollection_1_System_Collections_Generic_IListU3CTU3E_set_Item_m25653560_gshared
m2g:_GUIContent_t4210063000_marshal_pinvoke_cleanup
up:__ZN6Object23VirtualRedirectTransferER19StreamedBinaryWriteILb1EE
Fbc:__ZNK9BlobWrite24HasOffsetPtrWithDebugPtrEv
Sqg:__ZL68Selectable_t1490392188_CustomAttributesCacheGenerator_m_InteractableP21CustomAttributesCache
oBb:__ZN33AssetBundleLoadFromAsyncOperation12IsCrc32ValidEv
Sni:_Color32_op_Implicit_m889975790
pac:__ZN19RuntimeSceneManager32LoadSceneAsyncByNameOrBuildIndexERKN4core12basic_stringIcNS0_20StringStorageDefaultIcEEEEiNS_11LoadingModeEb
jri:_UnityEventBase_RebuildPersistentCallsIfNeeded_m1583202007
Drf:_CertificateSelectionCallback_Invoke_m2902629105
f7:__ZN10InputEventD2Ev
BXe:_DateTimeFormatInfo_GetAllDateTimePatternsInternal_m1587126173
$Pi:_Vector2_ToString_m775491729_AdjustorThunk
Igd:_Evidence__ctor_m1638117806
SIe:__ZN21InterfaceFuncInvoker1Ib22UICharInfo_t3056636800E6InvokeEjP11Il2CppClassP12Il2CppObjectS0_
RWe:_NumberFormatter_Append_m3268121457
Ynj:__ZNK15dense_hashtableINSt3__24pairIK10KeyWrapperIPK14Il2CppAssemblyEPK16MonoAssemblyNameEES6_N6il2cpp5utils11PointerHashIS4_EEN14dense_hash_mapIS6_SA_SF_NS6_14EqualsComparerINS0_8equal_toIS5_EEEENS0_9allocatorISB_EEE9SelectKeyESK_SM_E3endEv
hGh:_InternalEnumerator_1_Dispose_m3578333724_AdjustorThunk
Mcd:_RSA_ToXmlString_m4145056574
bba:__Z20SetPlayerPauseDirect11PlayerPause
zMd:_Double_System_IConvertible_ToUInt64_m1318285078_AdjustorThunk
nPj:_isalpha
Ngj:_il2cpp_object_unbox
Zvh:_Selectable_FindSelectable_m2739582497
Agb:__ZN17FileSystemHandler5TouchER13FileEntryData
zzc:__ZNK12b2MotorJoint17GetReactionTorqueEf
sHd:_DateTimeUtils_ZeroPad_m86470512
ibi:__Z73RuntimeInvoker_Boolean_t3825574718_CustomAttributeNamedArgument_t94157543PK10MethodInfoPvPS2_
Nbj:__ZN6il2cpp2vmL17IsSocketAsyncCallEP14Il2CppDelegate
JJc:__Z13RegisterClassI11Rigidbody2DEvv
J8g:_Logger_IsLogTypeAllowed_m1750132386
iFj:__ZN6il2cpp2vm6String6NewLenEPKcj
ejb:__ZN6Camera23VirtualRedirectTransferER19StreamedBinaryWriteILb0EE
_Bj:__ZN6il2cpp2os6Thread12GetApartmentEv
OIa:__ZN9GfxDevice28UpdateComputeConstantBuffersEjP12ObjectHandleI18ConstantBuffer_TagPvEjjPKhPKjS8_PKi
Zk:_time
xbd:_RC2Transform__cctor_m4079629627
$ci:__Z60RuntimeInvoker_Void_t1841601450_ResourceCacheItem_t333236149PK10MethodInfoPvPS2_
ETc:_ps_hints_done
ksh:_EqualityComparer_1_System_Collections_IEqualityComparer_Equals_m1091252481_gshared
e1d:_Graphic_UnregisterDirtyLayoutCallback_m1724443555
zpf:_CryptoConvert_ToHex_m2874017189
QVc:_cf2_stack_free
i2:__ZN15dense_hashtableINSt3__24pairIKiP6ObjectEEi21InstanceIDHashFunctorN14dense_hash_mapIiS4_S6_NS0_8equal_toIiEE13stl_allocatorIS5_L18MemLabelIdentifier65ELi16EEE9SelectKeyES9_SC_E12resize_deltaEjj
osg:__ZL94LayoutGroup_t3962498969_CustomAttributesCacheGenerator_LayoutGroup_DelayedSetDirty_m4276695617P21CustomAttributesCache
MA:__ZN8Animator31ClearInternalControllerPlayableEv
D5a:__ZN10GameObject8TransferI24GenerateTypeTreeTransferEEvRT_
Aqe:_Enumerator_VerifyState_m3913376581_gshared
Trg:__ZL72GridLayoutGroup_t1515633077_CustomAttributesCacheGenerator_m_StartCornerP21CustomAttributesCache
O4f:__ZL83U3CCreateWhereIteratorU3Ec__Iterator1D_1_t2523986802_CustomAttributesCacheGeneratorP21CustomAttributesCache
Cjj:__ZN15dense_hashtableINSt3__24pairIK10KeyWrapperINS1_IPK9FieldInfoP11Il2CppClassEEEjEES9_17ReflectionMapHashIS8_EN14dense_hash_mapIS9_jSD_NS9_14EqualsComparerINS0_8equal_toIS8_EEEENS0_9allocatorISB_EEE9SelectKeyESI_SK_E4findERSA_
h1j:_glDeleteSync__wrapper
oMi:_SerializePrivateVariables__ctor_m806793207
YDd:_Decimal_op_Implicit_m623319612
Zih:_ValueCollection_System_Collections_Generic_ICollectionU3CTValueU3E_Remove_m98888100_gshared
cSd:_EventTrigger_OnPointerExit_m2119176877
ZHg:_ThreadAbortException__ctor_m1623816114
l1b:__ZN13ProduceHelperI30RuntimeInitializeOnLoadManagerLb0EE7ProduceE18MemLabelIdentifier18ObjectCreationMode
B3a:__ZN13RenderTexture19SetAutoGenerateMipsEb
kja:__Z20GetTextureFormatInfo13TextureFormat
apc:__Z43Register_UnityEngine_GUIStyle_get_alignmentv
Fz:__ZN26AnimatorControllerPlayable8GetFloatEiRf
buh:_Shadow__ctor_m924057531
QTd:_PointerEventData_set_worldPosition_m192283671
EFe:_Collection_1_InsertItem_m1391780791_gshared
aVj:dynCall_iiifiiii
nOb:__ZN18StreamedBinaryReadILb1EE5AlignEv
VQi:_Vector3_get_right_m1884123822
WKj:__ZN6il2cpp5utils10MemoryPool6MallocEj
wG:__ZN11SoundHandle8InstanceD2Ev
i9:__ZN31CanvasBatchIntermediateRenderer13StaticDestroyEPv
LLi:_X509Store_BuildCrlsCollection_m52567568
kaj:__ZNK15dense_hashtableINSt3__24pairIK10KeyWrapperIPK11Il2CppClassEPKcEES6_N6il2cpp5utils11PointerHashIS3_EEN14dense_hash_mapIS6_S9_SE_NS6_14EqualsComparerINS0_8equal_toIS5_EEEENS0_9allocatorISA_EEE9SelectKeyESJ_SL_E10test_emptyERK24dense_hashtable_iteratorISA_S6_SE_SN_SJ_SL_E
Wzg:_CallbackHandler__ctor_m1235509347
Mgc:__Z29Mesh_CUSTOM_RecalculateBoundsP12Il2CppObject
uPe:_ReadOnlyCollection_1_System_Collections_Generic_ICollectionU3CTU3E_get_IsReadOnly_m3561954522_gshared
iNd:_Enum_ToString_m662345249
Wre:_List_1_get_Capacity_m531373308_gshared
i_j:_emscripten_glBindProgramARB__wrapper
XXf:__ZL66DESCryptoServiceProvider_t933603253_CustomAttributesCacheGeneratorP21CustomAttributesCache
iec:__Z41Register_UnityEngine_CullingGroup_Disposev
Tnb:__ZN7Cubemap23VirtualRedirectTransferER19StreamedBinaryWriteILb0EE
X4h:__Z100RuntimeInvoker_Void_t1841601450_Il2CppObject_Single_t2076509932_Int32_t2071877448_Single_t2076509932PK10MethodInfoPvPS2_
IKa:__ZN25MultiBlocksMemoryFileData5WriteEyyPKv
aAc:__ZNK13b2PulleyJoint16GetReactionForceEf
$Th:__Z78RuntimeInvoker_Il2CppObject_Int64_t909078037_Int64_t909078037_Int64_t909078037PK10MethodInfoPvPS2_
xmj:__ZNSt3__218uninitialized_fillIPNS_4pairIK10KeyWrapperINS1_IPK12PropertyInfoP11Il2CppClassEEEjEESB_EEvT_SD_RKT0_
Lye:_List_1_System_Collections_IList_Add_m4271264217_gshared
RBh:_Action_1_BeginInvoke_m1305519803_gshared
ENa:__ZZ23InitPlayerLoopCallbacksvEN47InitializationAsyncUploadTimeSlicedUpdatestruct7ForwardEv
Goj:__ZN14dense_hash_mapI10KeyWrapperIPK10Il2CppTypeEjN6il2cpp8metadata14Il2CppTypeHashENS4_14EqualsComparerINS6_26Il2CppTypeEqualityComparerEEENSt3__29allocatorINSB_4pairIKS4_jEEEEE13set_empty_keyERSE_
Wdc:__Z35Component_CUSTOM_SendMessageUpwardsP12Il2CppObjectP12Il2CppStringS0_i
SCa:__ZL17ProgramUniform2fvPK7ApiGLESjiihPKv
GOf:__ZL65Il2CppArray_CustomAttributesCacheGenerator_Array_Sort_m4096942812P21CustomAttributesCache
uMc:__ZN20TextRenderingPrivate8FontImpl21HasCharacterInTextureEjijfPj
_gb:__ZN13Lz4CompressorD0Ev
JQj:_htonl
eya:__Z20GetBufferManagerGLESv
ice:__ZN21InterfaceFuncInvoker1Ii18Color32_t874517518E6InvokeEjP11Il2CppClassP12Il2CppObjectS0_
wQb:__ZN18StreamedBinaryReadILb0EE21TransferSTLStyleArrayI31ArrayOfManagedObjectsTransfererEEvRT_17TransferMetaFlags
bGg:_UTF7Decoder_GetChars_m2790530452
KQj:_htons
V4h:__Z82RuntimeInvoker_Boolean_t3825574718_PlayableHandleU26_t3483893774_Int32_t2071877448PK10MethodInfoPvPS2_
Vtc:__Z18Transfer_BlittableI8JSONReadLb0EtEvRK29SerializationCommandArgumentsR31RuntimeSerializationCommandInfo
Xmj:__ZN15dense_hashtableINSt3__24pairIK10KeyWrapperINS1_IPK9EventInfoP11Il2CppClassEEEjEES9_17ReflectionMapHashIS8_EN14dense_hash_mapIS9_jSD_NS9_14EqualsComparerINS0_8equal_toIS8_EEEENS0_9allocatorISB_EEE9SelectKeyESI_SK_E12expand_arrayEjN21dense_hash_map_traits17integral_constantIbLb0EEE
g5g:_GUIStyle_t1799908754_marshal_pinvoke_back
LNa:__ZZ23InitPlayerLoopCallbacksvEN44EarlyUpdateResetFrameStatsAfterPresentstruct7ForwardEv
eRh:__Z49RuntimeInvoker_Int32_t2071877448_Int64_t909078037PK10MethodInfoPvPS2_
vAh:_Text_set_fontSize_m2101304336
fob:__ZNK7Cubemap20GetTextureLayerCountEv
gPc:_pshinter_module_class_pic_free
aqg:__ZL68Navigation_t1571958496_CustomAttributesCacheGenerator_m_SelectOnLeftP21CustomAttributesCache
Yu:__ZN34AnimationStateMachineMixerPlayable13EndTransitionEv
bEc:__ZNSt3__26vectorIxNS_9allocatorIxEEE6assignIPxEENS_9enable_ifIXaasr21__is_forward_iteratorIT_EE5valuesr16is_constructibleIxNS_15iterator_traitsIS7_E9referenceEEE5valueEvE4typeES7_S7_
AI:__ZN12AudioManager21FixMasterGroupRoutingEv
Red:_SymmetricAlgorithm_set_Key_m2973350820
yIc:__ZN6b2Body9SetActiveEb
tog:__ZL58FontData_t2614388407_CustomAttributesCacheGenerator_m_FontP21CustomAttributesCache
nEf:_WebHeaderCollection_IsHeaderValue_m1723393133
Yyd:_Hashtable__ctor_m4280223555
l2d:_HorizontalOrVerticalLayoutGroup_get_childForceExpandWidth_m227100883
MCj:__ZN6il2cpp2os10ThreadImpl33UnregisterCurrentThreadForCleanupEv
g6f:__ZL97Component_t3819376471_CustomAttributesCacheGenerator_Component_GetComponentInChildren_m3985003615P21CustomAttributesCache
Oy:__ZN27AnimationLayerMixerPlayable22PrepareAnimationEventsEfR13dynamic_arrayI22AnimationClipEventInfoLj4EE
FFb:__Z18Transfer_BlittableI14SafeBinaryReadLb1E4AABBEvRK29SerializationCommandArgumentsR31RuntimeSerializationCommandInfo
xBj:__ZN6il2cpp6icalls8mscorlib6System4Enum12get_hashcodeEP12Il2CppObject
X7g:_Input_INTERNAL_get_mouseScrollDelta_m1140491498
Jsi:_AnimatorControllerPlayable_SetInteger_m1311149575
Pse:_List_1_Sort_m2895170076_gshared
jW:__ZNK13ScreenManager16GetScreenTimeoutEv
jH:__ZN9AudioClip7WWWOpenEPKciPjPPvS4_
z4f:__ZL66Uri_t19570940_CustomAttributesCacheGenerator_Uri__ctor_m3854873816P21CustomAttributesCache
K0h:__Z79RuntimeInvoker_Void_t1841601450_Il2CppObject_Int32_t2071877448_Int64_t909078037PK10MethodInfoPvPS2_
yFb:__Z18Transfer_BlittableI14SafeBinaryReadLb0E8Vector2fEvRK29SerializationCommandArgumentsR31RuntimeSerializationCommandInfo
zrg:__ZL101ToggleGroup_t1030026315_CustomAttributesCacheGenerator_ToggleGroup_U3CAnyTogglesOnU3Em__0_m1218114300P21CustomAttributesCache
IDf:_IPv6Address_SwapUShort_m1481806078
xui:_AnimatorControllerPlayable_PlayInFixedTime_m2562520484
U$:__ZN13RuntimeStaticINSt3__23setI19RepeatingLogMessageNS0_4lessIS2_EE13stl_allocatorIS2_L18MemLabelIdentifier70ELi16EEEELb0EE16StaticInitializeEPv
Uc:_emscripten_glVertexAttrib2f
jTb:__ZN15SerializeTraitsIN9ShaderLab20SerializedSubProgram16TextureParameterEE8TransferI14SafeBinaryReadEEvRS2_RT_
Fsd:_Byte_System_IConvertible_ToInt16_m1575115635_AdjustorThunk
ryi:_CrossAppDomainData_get_ProcessID_m2865289777
Mt:__ZN11UnityEngine9Animation31SetHumanTransformPropertyValuesERKNS0_21AvatarBindingConstantERKN7mecanim8skeleton13SkeletonPoseTIN4math4trsXEEEbb
fMg:_UInt16_System_IConvertible_ToUInt16_m1646506872_AdjustorThunk
Fzi:_Context_get_HasGlobalDynamicSinks_m3205328884
Mdf:_SimpleCollator_CompareQuick_m619038530
Zqg:__ZL93Selectable_t1490392188_CustomAttributesCacheGenerator_Selectable_get_isPointerDown_m774209881P21CustomAttributesCache
Szf:_SslStreamBase_EndRead_m1072850679
Erf:_CertificateSelectionCallback_BeginInvoke_m990408067
QIa:__ZN9GfxDevice22DispatchComputeProgramE12ObjectHandleI18ComputeProgram_TagPvEjjj
nd:_SDL_GetTicks
IGe:_Collection_1_System_Collections_IList_Contains_m3345685421_gshared
k0c:__ZN2UI14CanvasRenderer11SyncCullingENS0_8SyncFlagE
vlj:__ZN15dense_hashtableINSt3__24pairIK10KeyWrapperINS1_IPK11Il2CppImageP11Il2CppClassEEEjEES9_17ReflectionMapHashIS8_EN14dense_hash_mapIS9_jSD_NS9_14EqualsComparerINS0_8equal_toIS8_EEEENS0_9allocatorISB_EEE9SelectKeyESI_SK_E6insertERKSB_
dw:__Z16AppendPathToHashRKN7mecanim5crc32EPKc
d1a:__Z21CreateShadowCullerJobP30CreateUmbraShadowCullerJobData
T8g:_Material_get_mainTexture_m432794412
KCa:__ZL18ProgramUniform2uivPK7ApiGLESjiihPKv
aYi:_U3CStartU3Ec__Iterator0_System_Collections_Generic_IEnumeratorU3CobjectU3E_get_Current_m1702093362_gshared
P$j:_glUniform4iv__wrapper
E7b:__ZNK15dense_hashtableINSt3__24pairIK12TriangleEdgeiEES2_16TriangleEdgeHashN14dense_hash_mapIS2_iS5_NS0_8equal_toIS2_EENS0_9allocatorIS4_EEE9SelectKeyES8_SA_E23find_position_with_hashERS3_j
Iud:_Char_GetTypeCode_m2251277629_AdjustorThunk
iqe:_Enumerator_Dispose_m3109097029_AdjustorThunk
cnh:_Dictionary_2_ToTKey_m4209561517_gshared
bVc:_cf2_computeDarkening
NY:__GLOBAL__sub_I_runtime_gfxdevice_lump_cpp
iki:_AsyncOperation_set_priority_m3581020444
jHj:_GC_expand_hp_inner
r8i:__ZNK15dense_hashtableINSt3__24pairIK10KeyWrapperI13dynamic_arrayIPK10Il2CppTypeLj4EEEPFvvEEES8_N6il2cpp8metadata19Il2CppSignatureHashEN14dense_hash_mapIS8_SB_SF_NS8_14EqualsComparerINSE_22Il2CppSignatureCompareEEENS0_9allocatorISC_EEE9SelectKeyESJ_SL_E12test_deletedEj
nc:invoke_viiiififfi
Gfc:__Z25Screen_Get_Custom_PropDpiv
VMb:__Z29Transfer_Blittable_ArrayFieldI19StreamedBinaryWriteILb0EEsEvRT_R9ArrayInfoRK23StaticTransferFieldInfo
fWd:_AnimationTriggers_get_disabledTrigger_m2987312382
HSa:__ZN13ComputeShader20GetCompatibleVariantE17GfxDeviceRendereri
_Aj:__ZN4utf812find_invalidIPKcEET_S3_S3_
JIf:_X509ExtensionCollection_System_Collections_ICollection_CopyTo_m3421329346
DGj:_GC_err_printf
jVg:_FieldBuilder_SetValue_m3109503557
p0d:_Graphic_OnBeforeTransformParentChanged_m1866292273
AGf:_X509Certificate2_Verify_m1574874641
sng:__ZL58PhysicsRaycaster_t249603239_CustomAttributesCacheGeneratorP21CustomAttributesCache
hMc:__ZN20TextRenderingPrivate19NativeTextGenerator23FixLineHorizontalOffsetEiii
jsh:_EqualityComparer_1_System_Collections_IEqualityComparer_GetHashCode_m1473684243_gshared
RAd:_SortedList_GetEnumerator_m1318483481
$od:_Array_CreateInstance_m3327690220
X$d:_FontData_UnityEngine_ISerializationCallbackReceiver_OnBeforeSerialize_m2486694676
nw:__ZN7mecanim9animation19DestroyAnimationSetEPNS0_12AnimationSetERNS_6memory9AllocatorE
r1e:_IntPtr__ctor_m2996690883_AdjustorThunk
_Vh:__Z64RuntimeInvoker_Double_t4078015681_Il2CppObject_Int32_t2071877448PK10MethodInfoPvPS2_
d4:__ZN14SerializedFile7ReleaseEv
hOf:__ZL69Il2CppArray_CustomAttributesCacheGenerator_Array_GetValue_m1507415734P21CustomAttributesCache
fab:__ZN16MemoryFileSystem4OpenER13FileEntryData14FilePermission16FileAutoBehavior
QMe:_Collection_1_Remove_m3355928137_gshared
TSh:__Z52RuntimeInvoker_UInt64_t2909196914_Decimal_t724701077PK10MethodInfoPvPS2_
W8:__ZN13RuntimeStaticI13RendererSceneLb0EE13StaticDestroyEPv
zO:__ZN12AudioManager12CleanupClassEv
tKb:__Z18Transfer_BlittableI24GenerateTypeTreeTransferLb1E12PropertyNameEvRK29SerializationCommandArgumentsR31RuntimeSerializationCommandInfo
nyb:__ZN14SafeBinaryRead21TransferSTLStyleArrayI10vector_mapIPKN5Unity4TypeE7Hash128NSt3__24lessIS5_EENS7_9allocatorINS7_4pairIS5_S6_EEEEEEEvRT_17TransferMetaFlags
iH:__ZN9AudioClip18GetQueuedAudioDataEPPvj
Mci:__Z59RuntimeInvoker_Void_t1841601450_DictionaryEntry_t3048875398PK10MethodInfoPvPS2_
ooh:_DefaultComparer_GetHashCode_m3439703487_gshared
D8b:__ZNK9Texture2D17CheckHasPixelDataEv
gHc:__ZN15b2ContactSolver13StoreImpulsesEv
KVa:__Z18SetShadowsKeywordsR17ShaderPassContext9LightType10ShadowType16ShadowProjectionbb
jpj:__ZN14dense_hash_mapI10KeyWrapperINSt3__24pairIPK12PropertyInfoP11Il2CppClassEEEj17ReflectionMapHashIS8_ENS9_14EqualsComparerINS1_8equal_toIS8_EEEENS1_9allocatorINS2_IKS9_jEEEEEC2EjRKSB_RKSF_
n3b:__ZN17CollisionMeshDataC2Ev
GQg:_Assembly_GetModule_m2064378601
oWi:_UnityEvent_1_AddListener_m846589010_gshared
w0f:__ZL79Convert_t2607082565_CustomAttributesCacheGenerator_Convert_ToUInt16_m3866680988P21CustomAttributesCache
Uwh:_ScrollRect_SetDirty_m93243192
fpb:__ZN16LightmapSettings23VirtualRedirectTransferER19StreamedBinaryWriteILb0EE
dJc:__ZN19CollisionListener2DC2Ev
hbh:_MessageTypeSubscribers__ctor_m743474932
E$j:_glTexParameteriv__wrapper
Zqa:__ZN18IDCollectorFunctor18GenerateInstanceIDEi17TransferMetaFlags
nhe:_Array_InternalArray__set_Item_TisTableRange_t2011406615_m2386708730_gshared
$Qh:__Z40RuntimeInvoker_Il2CppObject_Il2CppObjectPK10MethodInfoPvPS2_
fHc:__ZN15b2ContactSolver9WarmStartEv
aXe:_NumberFormatter_ToDecHex_m1474793296
ubb:__ZN14StackAllocatorD0Ev
Urj:__ZN6il2cpp2vm6Thread8SetStateEP12Il2CppThreadNS0_11ThreadStateE
pcf:_OperatingSystem_Clone_m1943707477
Q$d:_FontData_set_richText_m29558601
oIg:_Scheduler_Change_m4063588742
S9i:__ZN6il2cpp2vm13MetadataCache25GetMethodGenericContainerEPK10MethodInfo
ije:_Array_Resize_TisVector2_t2243707579_m1117258774_gshared
sS:__ZN11UnityEngine15CloudWebService13WWWRestClientD0Ev
DDh:_InternalEnumerator_1_Dispose_m1640363425_AdjustorThunk
kMi:_HitInfo_SendMessage_m3368777144_AdjustorThunk
c9h:__Z41RuntimeInvoker_SelectionState_t3187567897PK10MethodInfoPvPS2_
lra:__ZN17PersistentManager4LockEv
Mhc:__Z22PlayableValidityChecksRK9HPlayableb
Rei:__Z53RuntimeInvoker_RaycastHit_t87180320_Int32_t2071877448PK10MethodInfoPvPS2_
szb:__ZN15ResourceManagerD2Ev
txe:_List_1_Insert_m2532850849_gshared
Ndc:__Z41Register_UnityEngine_Camera_GetAllCamerasv
G6f:__ZL91CullingGroup_t1091689465_CustomAttributesCacheGenerator_CullingGroup_SendEvents_m1292564468P21CustomAttributesCache
uze:_List_1_Sort_m2659614836_gshared
Jpg:__ZL154U3CCaretBlinkU3Ec__Iterator0_t906898126_CustomAttributesCacheGenerator_U3CCaretBlinkU3Ec__Iterator0_System_Collections_IEnumerator_get_Current_m2309548992P21CustomAttributesCache
fah:_Mesh_get_vertices_m626989480
zth:_MaskableGraphic_OnCanvasHierarchyChanged_m2012659245
CBa:__ZN4crnd12crn_unpacker10unpack_dxnEPPhjjjjjj
Y7c:__ZN28PerformanceReportingSettings8TransferI14SafeBinaryReadEEvRT_
tNh:_DefaultComparer__ctor_m3668042_gshared
rEd:_Double_Parse_m2344589511
Ubi:__Z122RuntimeInvoker_Int32_t2071877448_Il2CppObject_CustomAttributeTypedArgument_t1498197914_Int32_t2071877448_Int32_t2071877448PK10MethodInfoPvPS2_
itj:__ZN6il2cpp2vm22EmbeddedResourceRecordC2ERKS1_
pWb:__ZNSt3__26vectorIN9ShaderLab20SerializedSubProgram15VectorParameterENS_9allocatorIS3_EEE21__push_back_slow_pathIKS3_EEvRT_
pWh:__Z109RuntimeInvoker_Void_t1841601450_Int32U26_t455636984_Int32U26_t455636984_Int32U26_t455636984_Int32_t2071877448PK10MethodInfoPvPS2_
Onb:__ZN9Texture2D13AwakeFromLoadE17AwakeFromLoadMode
Vef:_Kernel_SingleByteDivideInPlace_m1760318278
ddf:_MSCompatUnicodeTableUtil__cctor_m1479836795
OGi:_PositionAssertion__ctor_m3703837499
f7d:_LayoutGroup_get_minWidth_m4111745491
X6e:_StreamWriter_Initialize_m1707678624
mAj:__ZN6il2cpp2vm3RCW14QueryInterfaceILb0EEEP14Il2CppIUnknownP15Il2CppComObjectRK10Il2CppGuid
Nwh:_ScrollRect_set_verticalScrollbar_m2903688658
j7g:_GUIStyle_INTERNAL_CALL_SetMouseTooltip_m1802284884
pka:__ZN6prcoreL17RemapGenericFloatI15TexFormatRFloat18TexFormatARGBFloatEEvPKNS_9InnerInfoE
dgb:__ZNK21AssetBundleFileSystem4SizeERK13FileEntryData
yVf:__ZL50_Thread_t1894135853_CustomAttributesCacheGeneratorP21CustomAttributesCache
vHh:_InternalEnumerator_1_get_Current_m1047712960_gshared
JY:__GLOBAL__sub_I_runtime_camera_renderlayers_lump_cpp
n7c:__ZN11UnityEngine15PlatformWrapper20GetPlayerPrefsUInt64ERKN4core12basic_stringIcNS1_20StringStorageDefaultIcEEEEy
DZa:__ZN20ReflectionProbeCacheC2ER13BatchRendererR15RenderLoopStats
gfa:__ZN7Texture23VirtualRedirectTransferER18StreamedBinaryReadILb0EE
kwh:_U3CClickRepeatU3Ec__Iterator0_System_Collections_Generic_IEnumeratorU3CobjectU3E_get_Current_m3444627780
K9:__ZN18AssetBundleManagerC2Ev
XLa:__ZNK12HandlerChain6ExistsERK13FileEntryData
F4f:__ZL61ExtensionAttribute_t1840441203_CustomAttributesCacheGeneratorP21CustomAttributesCache
PEd:_Convert_ToInt32_m2734833291
u_a:__Z30FindDirectAttenuationFromProbeP18ForwardLightsBlockbiRK10RenderNodeRK23FindForwardLightsParamsf
sxb:__ZN12InputManager23VirtualRedirectTransferER24GenerateTypeTreeTransfer
_Xb:__ZN9Transform23VirtualRedirectTransferER24GenerateTypeTreeTransfer
Xna:__Z18GetLODGroupManagerv
nBe:_List_1_Sort_m3574220472_gshared
lWb:__ZNSt3__26vectorIN9ShaderLab20SerializedSubProgram12UAVParameterENS_9allocatorIS3_EEE21__push_back_slow_pathIKS3_EEvRT_
Vgi:__Z92RuntimeInvoker_Il2CppObject_CustomAttributeNamedArgument_t94157543_Il2CppObject_Il2CppObjectPK10MethodInfoPvPS2_
jyi:_CrossAppDomainChannel_RegisterCrossAppDomainChannel_m43456045
sIf:_X509ChainElement_Count_m228862214
ZJg:_TimeZone_IsDaylightSavingTime_m1840774423
JXc:_UNITY_tt_size_ready_bytecode
QKc:__ZN13TextRendering4FontD2Ev
Zma:__ZN27GenericSlowGarbageCollectorD2Ev
A0h:__Z48RuntimeInvoker_Void_t1841601450_Byte_t3683104436PK10MethodInfoPvPS2_
ONc:_UNITY_FT_Stream_Open
n$c:__GLOBAL__sub_I_runtime_ui_lump_cpp
RKa:__ZN10MemoryFile4ReadEyyPvPy
sua:__ZN13GfxDeviceGLES26UpdateViewProjectionMatrixEv
lpi:_DebugLogHandler__ctor_m3134219506
Psa:__ZNSt3__26vectorIN22BuiltinResourceManager8ResourceENS_9allocatorIS2_EEE21__push_back_slow_pathIKS2_EEvRT_
pDh:_InternalEnumerator_1_System_Collections_IEnumerator_Reset_m1181480250_AdjustorThunk
MF:__ZN4FMOD3DSP12setParameterEif
qaa:__ZN13MemoryManager16StaticInitializeEv
lRf:__ZL53StackFrame_t2050294881_CustomAttributesCacheGeneratorP21CustomAttributesCache
sf:___cxa_free_exception
NSe:_ReadOnlyCollection_1_System_Collections_ICollection_CopyTo_m4126742951_gshared
GJ:__ZN4FMOD22FakeModChannelCallbackEPv
yf:_emscripten_glValidateProgram
TRa:__ZN4Mesh10CreateMeshEv
Dmj:__ZN6il2cpp2gc19AppendOnlyGCHashMapINSt3__24pairIPK9EventInfoP11Il2CppClassEEP21Il2CppReflectionEvent17ReflectionMapHashIS9_ENS2_8equal_toIS9_EEE3AddERKS9_SB_
EG:__ZN4FMOD7SystemI11createSoundEPKcjP22FMOD_CREATESOUNDEXINFOPPNS_5SoundE
GMi:_Sprite_get_associatedAlphaSplitTexture_m3617241169
Zxg:_ArrayFixupRecord_FixupImpl_m2377725358
zVc:_cf2_stack_clear
$Ld:_Double_System_IConvertible_ToBoolean_m4251806534_AdjustorThunk
Vff:_BigInteger_op_GreaterThanOrEqual_m1998498565
Ugh:_ShimEnumerator_Reset_m2247049027_gshared
jdg:__ZL150AnimatorControllerPlayable_t4078305555_CustomAttributesCacheGenerator_AnimatorControllerPlayable_CrossFadeInFixedTimeInternal_m793606818____fixedTime4P21CustomAttributesCache
hDc:__ZN10ClipperLib11ClipperBase5ClearEv
C3a:__ZN7Texture13SetAnisoLevelEi
LGf:_X509Chain_Process_m2508784250
zIa:__ZN9GfxDevice20GetComputeBufferDataE15ComputeBufferIDPvj
iCe:_List_1_RemoveAt_m2929488689_gshared
Twc:__ZN27PerformanceReportingManager23VirtualRedirectTransferER24GenerateTypeTreeTransfer
o2i:__ZL24UnresolvedVirtualCall_70P12Il2CppObjectS0_S0_iS0_S0_PK10MethodInfo
FPc:_raccess_guess_vfat
Y2c:__Z44Canvas_CUSTOM_GetETC1SupportedCanvasMaterialv
BLi:_X509Extension_Decode_m972859652
I8:__ZN33InstancedMeshIntermediateRenderer13StaticDestroyEPv
W_e:_Int16_Parse_m3012618547
HDi:_PatternLinkStack_set_BaseAddress_m781925478
tvj:__ZN14dense_hash_mapI10KeyWrapperIP14Il2CppIUnknownEjN6il2cpp5utils11PointerHashIS1_EENS3_14EqualsComparerINSt3__28equal_toIS2_EEEENS9_9allocatorINS9_4pairIKS3_jEEEEE13set_empty_keyERSF_
KBd:_Convert__cctor_m926133987
Kjb:__Z21DestroyShadowMapCacheP14ShadowMapCache
$y:__ZN7mecanim9animation25CreateControllerWorkspaceEPKNS0_18ControllerConstantERNS_6memory9AllocatorE
Jde:_Array_InternalArray__IndexOf_TisUInt64_t2909196914_m3958307360_gshared
f1d:_Graphic_RegisterDirtyVerticesCallback_m4169445219
Lmh:_Dictionary_2_get_Count_m3636113691_gshared
Joj:__ZN15dense_hashtableINSt3__24pairIK10KeyWrapperIPK10Il2CppTypeEjEES6_N6il2cpp8metadata14Il2CppTypeHashEN14dense_hash_mapIS6_jSB_NS6_14EqualsComparerINSA_26Il2CppTypeEqualityComparerEEENS0_9allocatorIS8_EEE9SelectKeyESF_SH_E14squash_deletedEv
tuj:__ZN6il2cpp2vm13LivenessState5ResetEv
qPi:_Transform_get_parent_m147407266
pqc:__ZN9JSONWrite8TransferI11KeyframeTplIfEEEvRT_PKc17TransferMetaFlags
N$h:__Z71RuntimeInvoker_Double_t4078015681_Double_t4078015681_Double_t4078015681PK10MethodInfoPvPS2_
aAh:_Text_get_cachedTextGenerator_m224335893
Hke:_Array_swap_TisVector4_t2243707581_m3504221493_gshared
Y0g:_GameObject_GetComponent_m306258075
HMh:_InternalEnumerator_1_Dispose_m4229866913_AdjustorThunk
Tvg:_ObjRef_get_ChannelInfo_m53840305
_vj:__ZN6il2cpp2vm3RCW23GetOrCreateFromIUnknownEP14Il2CppIUnknownP11Il2CppClass
ptj:__ZN6il2cpp2vm9Exception27RaiseNullReferenceExceptionEv
iJa:__ZN24BuiltinShaderParamValuesC2Ev
grc:__ZL41CreateJSONTransferFunctionScriptingTraitsv
Ntd:_Convert_ToInt32_m3683486440
$3e:_FileStream_get_CanWrite_m775322953
X2f:__ZL72PKCS12_t1362584795_CustomAttributesCacheGenerator_U3CU3Ef__switchU24map7P21CustomAttributesCache
CIg:_TimerCallback_BeginInvoke_m2938818726
sOa:__Z23GetLateBehaviourManagerv
MSd:_ExecuteEvents_Execute_m2863348178
G5:__ZN10MemoryPool10DeallocateEPv
UXe:_NumberFormatInfo__ctor_m2752806684
yWd:_CanvasUpdateRegistry_get_instance_m862315367
mIe:_Collection_1_System_Collections_IList_get_IsReadOnly_m1820916678_gshared
wDi:_PatternCompiler_EmitFastRepeat_m1175707353
Yle:_Array_InternalArray__get_Item_TisKeyValuePair_2_t3716250094_m3120861630_gshared
jPc:_cff_driver_class_pic_free
e$f:__ZL62ApplicationException_t474868623_CustomAttributesCacheGeneratorP21CustomAttributesCache
XLj:__ZNSt3__26__treeINS_12__value_typeIPvxEENS_19__map_value_compareIS2_S3_NS_4lessIS2_EELb1EEENS_9allocatorIS3_EEE16__insert_node_atEPNS_16__tree_node_baseIS2_EERSD_SD_
hy:__ZN17AnimationPlayable22SetStateMachineMessageEN7mecanim12statemachine19StateMachineMessageE
hwc:__ZNK9rapidjson12GenericValueINS_4UTF8IcEE13JSONAllocatorE6AcceptINS_6WriterI16TempBufferWriterS2_S2_S3_EEEEbRT_
QUj:dynCall_vif
tmh:_Dictionary_2__ctor_m2849528578_gshared
RUj:dynCall_vid
dgg:__ZL75Event_t3028476042_CustomAttributesCacheGenerator_Event_get_type_m2426033198P21CustomAttributesCache
